; ModuleID = 'lulesh.cc'
source_filename = "lulesh.cc"
target datalayout = "e-m:e-p270:32:32-p271:32:32-p272:64:64-i64:64-f80:128-n8:16:32:64-S128"
target triple = "x86_64-unknown-linux-gnu"

%"class.std::ios_base::Init" = type { i8 }
%"class.std::basic_ostream" = type { i32 (...)**, %"class.std::basic_ios" }
%"class.std::basic_ios" = type { %"class.std::ios_base", %"class.std::basic_ostream"*, i8, i8, %"class.std::basic_streambuf"*, %"class.std::ctype"*, %"class.std::num_put"*, %"class.std::num_get"* }
%"class.std::ios_base" = type { i32 (...)**, i64, i64, i32, i32, i32, %"struct.std::ios_base::_Callback_list"*, %"struct.std::ios_base::_Words", [8 x %"struct.std::ios_base::_Words"], i32, %"struct.std::ios_base::_Words"*, %"class.std::locale" }
%"struct.std::ios_base::_Callback_list" = type { %"struct.std::ios_base::_Callback_list"*, void (i32, %"class.std::ios_base"*, i32)*, i32, i32 }
%"struct.std::ios_base::_Words" = type { i8*, i64 }
%"class.std::locale" = type { %"class.std::locale::_Impl"* }
%"class.std::locale::_Impl" = type { i32, %"class.std::locale::facet"**, i64, %"class.std::locale::facet"**, i8** }
%"class.std::locale::facet" = type <{ i32 (...)**, i32, [4 x i8] }>
%"class.std::basic_streambuf" = type { i32 (...)**, i8*, i8*, i8*, i8*, i8*, i8*, %"class.std::locale" }
%"class.std::ctype" = type <{ %"class.std::locale::facet.base", [4 x i8], %struct.__locale_struct*, i8, [7 x i8], i32*, i32*, i16*, i8, [256 x i8], [256 x i8], i8, [6 x i8] }>
%"class.std::locale::facet.base" = type <{ i32 (...)**, i32 }>
%struct.__locale_struct = type { [13 x %struct.__locale_data*], i16*, i32*, i32*, [13 x i8*] }
%struct.__locale_data = type opaque
%"class.std::num_put" = type { %"class.std::locale::facet.base", [4 x i8] }
%"class.std::num_get" = type { %"class.std::locale::facet.base", [4 x i8] }
%struct._IO_FILE = type { i32, i8*, i8*, i8*, i8*, i8*, i8*, i8*, i8*, i8*, i8*, i8*, %struct._IO_marker*, %struct._IO_FILE*, i32, i32, i64, i16, i8, [1 x i8], i8*, i64, i8*, i8*, i8*, i8*, i64, i32, [20 x i8] }
%struct._IO_marker = type { %struct._IO_marker*, %struct._IO_FILE*, i32 }
%class.Domain = type { %"class.std::vector", %"class.std::vector", %"class.std::vector", %"class.std::vector", %"class.std::vector", %"class.std::vector", %"class.std::vector", %"class.std::vector", %"class.std::vector", %"class.std::vector", %"class.std::vector", %"class.std::vector", %"class.std::vector", %"class.std::vector.0", %"class.std::vector.0", %"class.std::vector.0", i32, i32, i32*, i32*, i32**, %"class.std::vector.0", %"class.std::vector.0", %"class.std::vector.0", %"class.std::vector.0", %"class.std::vector.0", %"class.std::vector.0", %"class.std::vector.0", %"class.std::vector.0", double*, double*, double*, double*, double*, double*, double*, double*, double*, %"class.std::vector", %"class.std::vector", %"class.std::vector", %"class.std::vector", %"class.std::vector", %"class.std::vector", %"class.std::vector", %"class.std::vector", %"class.std::vector", %"class.std::vector", %"class.std::vector", %"class.std::vector", %"class.std::vector", double, double, double, double, double, double, double, double, double, double, double, double, double, double, double, double, double, double, double, double, double, i32, double, double, double, double, double, double, double, i32, i32, i32, i32, i32, i32, i32, i32, i32, i32, i32, i32, i32*, i32*, i32, i32, i32, i32, i32, i32 }
%"class.std::vector.0" = type { %"struct.std::_Vector_base.1" }
%"struct.std::_Vector_base.1" = type { %"struct.std::_Vector_base<int, std::allocator<int>>::_Vector_impl" }
%"struct.std::_Vector_base<int, std::allocator<int>>::_Vector_impl" = type { i32*, i32*, i32* }
%"class.std::vector" = type { %"struct.std::_Vector_base" }
%"struct.std::_Vector_base" = type { %"struct.std::_Vector_base<double, std::allocator<double>>::_Vector_impl" }
%"struct.std::_Vector_base<double, std::allocator<double>>::_Vector_impl" = type { double*, double*, double* }
%struct.cmdLineOpts = type { i32, i32, i32, i32, i32, i32, i32, i32, i32 }
%struct.timeval = type { i64, i64 }
%struct.timezone = type { i32, i32 }
%"class.__gnu_cxx::__normal_iterator" = type { i32* }

$_ZN6Domain8nodelistEi = comdat any

$_ZN6Domain4voloEi = comdat any

$_ZN6Domain4vnewEi = comdat any

$_ZN6Domain1vEi = comdat any

$_ZN6Domain4delvEi = comdat any

$_ZN6Domain6arealgEi = comdat any

$_ZN6Domain2xdEi = comdat any

$_ZN6Domain2ydEi = comdat any

$_ZN6Domain2zdEi = comdat any

$_ZN6Domain3dxxEi = comdat any

$_ZN6Domain3dyyEi = comdat any

$_ZN6Domain3dzzEi = comdat any

$_ZN6Domain4timeEv = comdat any

$_ZN6Domain8stoptimeEv = comdat any

$_ZN6Domain5cycleEv = comdat any

$_ZSt10scientificRSt8ios_base = comdat any

$_ZN6Domain9deltatimeEv = comdat any

$_ZNSt8ios_base6unsetfESt13_Ios_Fmtflags = comdat any

$_ZNSt6vectorIiSaIiEEixEm = comdat any

$_ZN6Domain1xEi = comdat any

$_ZN6Domain1yEi = comdat any

$_ZN6Domain1zEi = comdat any

$_ZNSt6vectorIdSaIdEEixEm = comdat any

$_ZSt3maxIdERKT_S2_S2_ = comdat any

$_Z4SQRTd = comdat any

$_ZN6Domain7dtfixedEv = comdat any

$_ZN6Domain9dtcourantEv = comdat any

$_ZN6Domain7dthydroEv = comdat any

$_ZN6Domain15deltatimemultlbEv = comdat any

$_ZN6Domain15deltatimemultubEv = comdat any

$_ZN6Domain5dtmaxEv = comdat any

$_ZN6Domain7numElemEv = comdat any

$_ZNK6Domain5u_cutEv = comdat any

$_ZN6Domain7numNodeEv = comdat any

$_ZN6Domain2fxEi = comdat any

$_ZN6Domain2fyEi = comdat any

$_ZN6Domain2fzEi = comdat any

$_ZNK6Domain6hgcoefEv = comdat any

$_Z8AllocateIdEPT_m = comdat any

$_Z7ReleaseIdEvPPT_ = comdat any

$_ZN6Domain1pEi = comdat any

$_ZN6Domain1qEi = comdat any

$_ZN6Domain13nodeElemCountEi = comdat any

$_ZN6Domain18nodeElemCornerListEi = comdat any

$_ZN6Domain2ssEi = comdat any

$_ZN6Domain8elemMassEi = comdat any

$_Z4CBRTd = comdat any

$_ZN6Domain9nodalMassEi = comdat any

$_ZN6Domain3xddEi = comdat any

$_ZN6Domain3yddEi = comdat any

$_ZN6Domain3zddEi = comdat any

$_ZN6Domain5sizeXEv = comdat any

$_ZN6Domain10symmXemptyEv = comdat any

$_ZN6Domain5symmXEi = comdat any

$_ZN6Domain10symmYemptyEv = comdat any

$_ZN6Domain5symmYEi = comdat any

$_ZN6Domain10symmZemptyEv = comdat any

$_ZN6Domain5symmZEi = comdat any

$_ZNKSt6vectorIiSaIiEE5emptyEv = comdat any

$_ZN9__gnu_cxxeqIPKiSt6vectorIiSaIiEEEEbRKNS_17__normal_iteratorIT_T0_EESB_ = comdat any

$_ZNKSt6vectorIiSaIiEE5beginEv = comdat any

$_ZNKSt6vectorIiSaIiEE3endEv = comdat any

$_ZNK9__gnu_cxx17__normal_iteratorIPKiSt6vectorIiSaIiEEE4baseEv = comdat any

$_ZN9__gnu_cxx17__normal_iteratorIPKiSt6vectorIiSaIiEEEC2ERKS2_ = comdat any

$_Z4FABSd = comdat any

$_ZNK6Domain5v_cutEv = comdat any

$_ZN6Domain15AllocateStrainsEi = comdat any

$_ZN6Domain4vdovEi = comdat any

$_ZN6Domain17DeallocateStrainsEv = comdat any

$_ZN6Domain5sizeYEv = comdat any

$_ZN6Domain5sizeZEv = comdat any

$_ZN6Domain17AllocateGradientsEii = comdat any

$_ZN6Domain19DeallocateGradientsEv = comdat any

$_ZNK6Domain5qstopEv = comdat any

$_ZN6Domain9delx_zetaEi = comdat any

$_ZN6Domain9delv_zetaEi = comdat any

$_ZN6Domain7delx_xiEi = comdat any

$_ZN6Domain7delv_xiEi = comdat any

$_ZN6Domain8delx_etaEi = comdat any

$_ZN6Domain8delv_etaEi = comdat any

$_ZN6Domain6numRegEv = comdat any

$_ZN6Domain11regElemSizeEi = comdat any

$_ZNK6Domain18monoq_limiter_multEv = comdat any

$_ZNK6Domain15monoq_max_slopeEv = comdat any

$_ZNK6Domain9qlc_monoqEv = comdat any

$_ZNK6Domain9qqc_monoqEv = comdat any

$_ZN6Domain11regElemlistEii = comdat any

$_ZN6Domain6elemBCEi = comdat any

$_ZN6Domain4lximEi = comdat any

$_ZN6Domain4lxipEi = comdat any

$_ZN6Domain5letamEi = comdat any

$_ZN6Domain5letapEi = comdat any

$_ZN6Domain6lzetamEi = comdat any

$_ZN6Domain6lzetapEi = comdat any

$_ZN6Domain2qqEi = comdat any

$_ZN6Domain2qlEi = comdat any

$_ZNK6Domain7eosvminEv = comdat any

$_ZNK6Domain7eosvmaxEv = comdat any

$_ZN6Domain11regElemlistEi = comdat any

$_ZN6Domain4costEv = comdat any

$_ZNK6Domain5e_cutEv = comdat any

$_ZNK6Domain5p_cutEv = comdat any

$_ZNK6Domain5ss4o3Ev = comdat any

$_ZNK6Domain5q_cutEv = comdat any

$_ZNK6Domain4pminEv = comdat any

$_ZNK6Domain4eminEv = comdat any

$_ZNK6Domain7refdensEv = comdat any

$_ZN6Domain1eEi = comdat any

$_ZNK6Domain3qqcEv = comdat any

$_ZNK6Domain7dvovmaxEv = comdat any

$_ZNSt8ios_base4setfESt13_Ios_FmtflagsS0_ = comdat any

$_ZStaNRSt13_Ios_FmtflagsS_ = comdat any

$_ZStcoSt13_Ios_Fmtflags = comdat any

$_ZStoRRSt13_Ios_FmtflagsS_ = comdat any

$_ZStanSt13_Ios_FmtflagsS_ = comdat any

$_ZStorSt13_Ios_FmtflagsS_ = comdat any

$_ZNSt11char_traitsIcE6lengthEPKc = comdat any

$_ZStorSt12_Ios_IostateS_ = comdat any

@_ZStL8__ioinit = internal global %"class.std::ios_base::Init" zeroinitializer, align 1
@__dso_handle = external hidden global i8
@_ZSt4cout = external dso_local global %"class.std::basic_ostream", align 8
@.str = private unnamed_addr constant [22 x i8] c"Running problem size \00", align 1
@.str.1 = private unnamed_addr constant [32 x i8] c"^3 per domain until completion\0A\00", align 1
@.str.2 = private unnamed_addr constant [17 x i8] c"Num processors: \00", align 1
@.str.3 = private unnamed_addr constant [2 x i8] c"\0A\00", align 1
@.str.4 = private unnamed_addr constant [27 x i8] c"Total number of elements: \00", align 1
@.str.5 = private unnamed_addr constant [4 x i8] c" \0A\0A\00", align 1
@.str.6 = private unnamed_addr constant [39 x i8] c"To run other sizes, use -s <integer>.\0A\00", align 1
@.str.7 = private unnamed_addr constant [56 x i8] c"To run a fixed number of iterations, use -i <integer>.\0A\00", align 1
@.str.8 = private unnamed_addr constant [62 x i8] c"To run a more or less balanced region set, use -b <integer>.\0A\00", align 1
@.str.9 = private unnamed_addr constant [60 x i8] c"To change the relative costs of regions, use -c <integer>.\0A\00", align 1
@.str.10 = private unnamed_addr constant [31 x i8] c"To print out progress, use -p\0A\00", align 1
@.str.11 = private unnamed_addr constant [43 x i8] c"To write an output file for VisIt, use -v\0A\00", align 1
@.str.12 = private unnamed_addr constant [33 x i8] c"See help (-h) for more options\0A\0A\00", align 1
@.str.13 = private unnamed_addr constant [9 x i8] c"cycle = \00", align 1
@.str.14 = private unnamed_addr constant [3 x i8] c", \00", align 1
@.str.15 = private unnamed_addr constant [8 x i8] c"time = \00", align 1
@.str.16 = private unnamed_addr constant [4 x i8] c"dt=\00", align 1
@stderr = external dso_local global %struct._IO_FILE*, align 8
@.str.17 = private unnamed_addr constant [31 x i8] c"Error in switch at %s line %d\0A\00", align 1
@.str.18 = private unnamed_addr constant [10 x i8] c"lulesh.cc\00", align 1
@llvm.global_ctors = appending global [1 x { i32, void ()*, i8* }] [{ i32, void ()*, i8* } { i32 65535, void ()* @_GLOBAL__sub_I_lulesh.cc, i8* null }]

; Function Attrs: uwtable
define internal void @__cxx_global_var_init() #0 section ".text.startup" {
entry:
  call void @_ZNSt8ios_base4InitC1Ev(%"class.std::ios_base::Init"* @_ZStL8__ioinit)
  %0 = call i32 @__cxa_atexit(void (i8*)* bitcast (void (%"class.std::ios_base::Init"*)* @_ZNSt8ios_base4InitD1Ev to void (i8*)*), i8* getelementptr inbounds (%"class.std::ios_base::Init", %"class.std::ios_base::Init"* @_ZStL8__ioinit, i32 0, i32 0), i8* @__dso_handle) #3
  ret void
}

declare dso_local void @_ZNSt8ios_base4InitC1Ev(%"class.std::ios_base::Init"*) unnamed_addr #1

; Function Attrs: nounwind
declare dso_local void @_ZNSt8ios_base4InitD1Ev(%"class.std::ios_base::Init"*) unnamed_addr #2

; Function Attrs: nounwind
declare dso_local i32 @__cxa_atexit(void (i8*)*, i8*, i8*) #3

; Function Attrs: uwtable
define dso_local double @_Z14CalcElemVolumePKdS0_S0_(double* %x, double* %y, double* %z) #0 {
entry:
  %x.addr = alloca double*, align 8
  %y.addr = alloca double*, align 8
  %z.addr = alloca double*, align 8
  store double* %x, double** %x.addr, align 8, !tbaa !2
  store double* %y, double** %y.addr, align 8, !tbaa !2
  store double* %z, double** %z.addr, align 8, !tbaa !2
  %0 = load double*, double** %x.addr, align 8, !tbaa !2
  %arrayidx = getelementptr inbounds double, double* %0, i64 0
  %1 = load double, double* %arrayidx, align 8, !tbaa !6
  %2 = load double*, double** %x.addr, align 8, !tbaa !2
  %arrayidx1 = getelementptr inbounds double, double* %2, i64 1
  %3 = load double, double* %arrayidx1, align 8, !tbaa !6
  %4 = load double*, double** %x.addr, align 8, !tbaa !2
  %arrayidx2 = getelementptr inbounds double, double* %4, i64 2
  %5 = load double, double* %arrayidx2, align 8, !tbaa !6
  %6 = load double*, double** %x.addr, align 8, !tbaa !2
  %arrayidx3 = getelementptr inbounds double, double* %6, i64 3
  %7 = load double, double* %arrayidx3, align 8, !tbaa !6
  %8 = load double*, double** %x.addr, align 8, !tbaa !2
  %arrayidx4 = getelementptr inbounds double, double* %8, i64 4
  %9 = load double, double* %arrayidx4, align 8, !tbaa !6
  %10 = load double*, double** %x.addr, align 8, !tbaa !2
  %arrayidx5 = getelementptr inbounds double, double* %10, i64 5
  %11 = load double, double* %arrayidx5, align 8, !tbaa !6
  %12 = load double*, double** %x.addr, align 8, !tbaa !2
  %arrayidx6 = getelementptr inbounds double, double* %12, i64 6
  %13 = load double, double* %arrayidx6, align 8, !tbaa !6
  %14 = load double*, double** %x.addr, align 8, !tbaa !2
  %arrayidx7 = getelementptr inbounds double, double* %14, i64 7
  %15 = load double, double* %arrayidx7, align 8, !tbaa !6
  %16 = load double*, double** %y.addr, align 8, !tbaa !2
  %arrayidx8 = getelementptr inbounds double, double* %16, i64 0
  %17 = load double, double* %arrayidx8, align 8, !tbaa !6
  %18 = load double*, double** %y.addr, align 8, !tbaa !2
  %arrayidx9 = getelementptr inbounds double, double* %18, i64 1
  %19 = load double, double* %arrayidx9, align 8, !tbaa !6
  %20 = load double*, double** %y.addr, align 8, !tbaa !2
  %arrayidx10 = getelementptr inbounds double, double* %20, i64 2
  %21 = load double, double* %arrayidx10, align 8, !tbaa !6
  %22 = load double*, double** %y.addr, align 8, !tbaa !2
  %arrayidx11 = getelementptr inbounds double, double* %22, i64 3
  %23 = load double, double* %arrayidx11, align 8, !tbaa !6
  %24 = load double*, double** %y.addr, align 8, !tbaa !2
  %arrayidx12 = getelementptr inbounds double, double* %24, i64 4
  %25 = load double, double* %arrayidx12, align 8, !tbaa !6
  %26 = load double*, double** %y.addr, align 8, !tbaa !2
  %arrayidx13 = getelementptr inbounds double, double* %26, i64 5
  %27 = load double, double* %arrayidx13, align 8, !tbaa !6
  %28 = load double*, double** %y.addr, align 8, !tbaa !2
  %arrayidx14 = getelementptr inbounds double, double* %28, i64 6
  %29 = load double, double* %arrayidx14, align 8, !tbaa !6
  %30 = load double*, double** %y.addr, align 8, !tbaa !2
  %arrayidx15 = getelementptr inbounds double, double* %30, i64 7
  %31 = load double, double* %arrayidx15, align 8, !tbaa !6
  %32 = load double*, double** %z.addr, align 8, !tbaa !2
  %arrayidx16 = getelementptr inbounds double, double* %32, i64 0
  %33 = load double, double* %arrayidx16, align 8, !tbaa !6
  %34 = load double*, double** %z.addr, align 8, !tbaa !2
  %arrayidx17 = getelementptr inbounds double, double* %34, i64 1
  %35 = load double, double* %arrayidx17, align 8, !tbaa !6
  %36 = load double*, double** %z.addr, align 8, !tbaa !2
  %arrayidx18 = getelementptr inbounds double, double* %36, i64 2
  %37 = load double, double* %arrayidx18, align 8, !tbaa !6
  %38 = load double*, double** %z.addr, align 8, !tbaa !2
  %arrayidx19 = getelementptr inbounds double, double* %38, i64 3
  %39 = load double, double* %arrayidx19, align 8, !tbaa !6
  %40 = load double*, double** %z.addr, align 8, !tbaa !2
  %arrayidx20 = getelementptr inbounds double, double* %40, i64 4
  %41 = load double, double* %arrayidx20, align 8, !tbaa !6
  %42 = load double*, double** %z.addr, align 8, !tbaa !2
  %arrayidx21 = getelementptr inbounds double, double* %42, i64 5
  %43 = load double, double* %arrayidx21, align 8, !tbaa !6
  %44 = load double*, double** %z.addr, align 8, !tbaa !2
  %arrayidx22 = getelementptr inbounds double, double* %44, i64 6
  %45 = load double, double* %arrayidx22, align 8, !tbaa !6
  %46 = load double*, double** %z.addr, align 8, !tbaa !2
  %arrayidx23 = getelementptr inbounds double, double* %46, i64 7
  %47 = load double, double* %arrayidx23, align 8, !tbaa !6
  %call = call double @_ZL14CalcElemVolumedddddddddddddddddddddddd(double %1, double %3, double %5, double %7, double %9, double %11, double %13, double %15, double %17, double %19, double %21, double %23, double %25, double %27, double %29, double %31, double %33, double %35, double %37, double %39, double %41, double %43, double %45, double %47)
  ret double %call
}

; Function Attrs: inlinehint nounwind uwtable
define internal double @_ZL14CalcElemVolumedddddddddddddddddddddddd(double %x0, double %x1, double %x2, double %x3, double %x4, double %x5, double %x6, double %x7, double %y0, double %y1, double %y2, double %y3, double %y4, double %y5, double %y6, double %y7, double %z0, double %z1, double %z2, double %z3, double %z4, double %z5, double %z6, double %z7) #4 {
entry:
  %x0.addr = alloca double, align 8
  %x1.addr = alloca double, align 8
  %x2.addr = alloca double, align 8
  %x3.addr = alloca double, align 8
  %x4.addr = alloca double, align 8
  %x5.addr = alloca double, align 8
  %x6.addr = alloca double, align 8
  %x7.addr = alloca double, align 8
  %y0.addr = alloca double, align 8
  %y1.addr = alloca double, align 8
  %y2.addr = alloca double, align 8
  %y3.addr = alloca double, align 8
  %y4.addr = alloca double, align 8
  %y5.addr = alloca double, align 8
  %y6.addr = alloca double, align 8
  %y7.addr = alloca double, align 8
  %z0.addr = alloca double, align 8
  %z1.addr = alloca double, align 8
  %z2.addr = alloca double, align 8
  %z3.addr = alloca double, align 8
  %z4.addr = alloca double, align 8
  %z5.addr = alloca double, align 8
  %z6.addr = alloca double, align 8
  %z7.addr = alloca double, align 8
  %twelveth = alloca double, align 8
  %dx61 = alloca double, align 8
  %dy61 = alloca double, align 8
  %dz61 = alloca double, align 8
  %dx70 = alloca double, align 8
  %dy70 = alloca double, align 8
  %dz70 = alloca double, align 8
  %dx63 = alloca double, align 8
  %dy63 = alloca double, align 8
  %dz63 = alloca double, align 8
  %dx20 = alloca double, align 8
  %dy20 = alloca double, align 8
  %dz20 = alloca double, align 8
  %dx50 = alloca double, align 8
  %dy50 = alloca double, align 8
  %dz50 = alloca double, align 8
  %dx64 = alloca double, align 8
  %dy64 = alloca double, align 8
  %dz64 = alloca double, align 8
  %dx31 = alloca double, align 8
  %dy31 = alloca double, align 8
  %dz31 = alloca double, align 8
  %dx72 = alloca double, align 8
  %dy72 = alloca double, align 8
  %dz72 = alloca double, align 8
  %dx43 = alloca double, align 8
  %dy43 = alloca double, align 8
  %dz43 = alloca double, align 8
  %dx57 = alloca double, align 8
  %dy57 = alloca double, align 8
  %dz57 = alloca double, align 8
  %dx14 = alloca double, align 8
  %dy14 = alloca double, align 8
  %dz14 = alloca double, align 8
  %dx25 = alloca double, align 8
  %dy25 = alloca double, align 8
  %dz25 = alloca double, align 8
  %volume = alloca double, align 8
  store double %x0, double* %x0.addr, align 8, !tbaa !6
  store double %x1, double* %x1.addr, align 8, !tbaa !6
  store double %x2, double* %x2.addr, align 8, !tbaa !6
  store double %x3, double* %x3.addr, align 8, !tbaa !6
  store double %x4, double* %x4.addr, align 8, !tbaa !6
  store double %x5, double* %x5.addr, align 8, !tbaa !6
  store double %x6, double* %x6.addr, align 8, !tbaa !6
  store double %x7, double* %x7.addr, align 8, !tbaa !6
  store double %y0, double* %y0.addr, align 8, !tbaa !6
  store double %y1, double* %y1.addr, align 8, !tbaa !6
  store double %y2, double* %y2.addr, align 8, !tbaa !6
  store double %y3, double* %y3.addr, align 8, !tbaa !6
  store double %y4, double* %y4.addr, align 8, !tbaa !6
  store double %y5, double* %y5.addr, align 8, !tbaa !6
  store double %y6, double* %y6.addr, align 8, !tbaa !6
  store double %y7, double* %y7.addr, align 8, !tbaa !6
  store double %z0, double* %z0.addr, align 8, !tbaa !6
  store double %z1, double* %z1.addr, align 8, !tbaa !6
  store double %z2, double* %z2.addr, align 8, !tbaa !6
  store double %z3, double* %z3.addr, align 8, !tbaa !6
  store double %z4, double* %z4.addr, align 8, !tbaa !6
  store double %z5, double* %z5.addr, align 8, !tbaa !6
  store double %z6, double* %z6.addr, align 8, !tbaa !6
  store double %z7, double* %z7.addr, align 8, !tbaa !6
  %0 = bitcast double* %twelveth to i8*
  call void @llvm.lifetime.start.p0i8(i64 8, i8* %0) #3
  store double 0x3FB5555555555555, double* %twelveth, align 8, !tbaa !6
  %1 = bitcast double* %dx61 to i8*
  call void @llvm.lifetime.start.p0i8(i64 8, i8* %1) #3
  %2 = load double, double* %x6.addr, align 8, !tbaa !6
  %3 = load double, double* %x1.addr, align 8, !tbaa !6
  %sub = fsub double %2, %3
  store double %sub, double* %dx61, align 8, !tbaa !6
  %4 = bitcast double* %dy61 to i8*
  call void @llvm.lifetime.start.p0i8(i64 8, i8* %4) #3
  %5 = load double, double* %y6.addr, align 8, !tbaa !6
  %6 = load double, double* %y1.addr, align 8, !tbaa !6
  %sub1 = fsub double %5, %6
  store double %sub1, double* %dy61, align 8, !tbaa !6
  %7 = bitcast double* %dz61 to i8*
  call void @llvm.lifetime.start.p0i8(i64 8, i8* %7) #3
  %8 = load double, double* %z6.addr, align 8, !tbaa !6
  %9 = load double, double* %z1.addr, align 8, !tbaa !6
  %sub2 = fsub double %8, %9
  store double %sub2, double* %dz61, align 8, !tbaa !6
  %10 = bitcast double* %dx70 to i8*
  call void @llvm.lifetime.start.p0i8(i64 8, i8* %10) #3
  %11 = load double, double* %x7.addr, align 8, !tbaa !6
  %12 = load double, double* %x0.addr, align 8, !tbaa !6
  %sub3 = fsub double %11, %12
  store double %sub3, double* %dx70, align 8, !tbaa !6
  %13 = bitcast double* %dy70 to i8*
  call void @llvm.lifetime.start.p0i8(i64 8, i8* %13) #3
  %14 = load double, double* %y7.addr, align 8, !tbaa !6
  %15 = load double, double* %y0.addr, align 8, !tbaa !6
  %sub4 = fsub double %14, %15
  store double %sub4, double* %dy70, align 8, !tbaa !6
  %16 = bitcast double* %dz70 to i8*
  call void @llvm.lifetime.start.p0i8(i64 8, i8* %16) #3
  %17 = load double, double* %z7.addr, align 8, !tbaa !6
  %18 = load double, double* %z0.addr, align 8, !tbaa !6
  %sub5 = fsub double %17, %18
  store double %sub5, double* %dz70, align 8, !tbaa !6
  %19 = bitcast double* %dx63 to i8*
  call void @llvm.lifetime.start.p0i8(i64 8, i8* %19) #3
  %20 = load double, double* %x6.addr, align 8, !tbaa !6
  %21 = load double, double* %x3.addr, align 8, !tbaa !6
  %sub6 = fsub double %20, %21
  store double %sub6, double* %dx63, align 8, !tbaa !6
  %22 = bitcast double* %dy63 to i8*
  call void @llvm.lifetime.start.p0i8(i64 8, i8* %22) #3
  %23 = load double, double* %y6.addr, align 8, !tbaa !6
  %24 = load double, double* %y3.addr, align 8, !tbaa !6
  %sub7 = fsub double %23, %24
  store double %sub7, double* %dy63, align 8, !tbaa !6
  %25 = bitcast double* %dz63 to i8*
  call void @llvm.lifetime.start.p0i8(i64 8, i8* %25) #3
  %26 = load double, double* %z6.addr, align 8, !tbaa !6
  %27 = load double, double* %z3.addr, align 8, !tbaa !6
  %sub8 = fsub double %26, %27
  store double %sub8, double* %dz63, align 8, !tbaa !6
  %28 = bitcast double* %dx20 to i8*
  call void @llvm.lifetime.start.p0i8(i64 8, i8* %28) #3
  %29 = load double, double* %x2.addr, align 8, !tbaa !6
  %30 = load double, double* %x0.addr, align 8, !tbaa !6
  %sub9 = fsub double %29, %30
  store double %sub9, double* %dx20, align 8, !tbaa !6
  %31 = bitcast double* %dy20 to i8*
  call void @llvm.lifetime.start.p0i8(i64 8, i8* %31) #3
  %32 = load double, double* %y2.addr, align 8, !tbaa !6
  %33 = load double, double* %y0.addr, align 8, !tbaa !6
  %sub10 = fsub double %32, %33
  store double %sub10, double* %dy20, align 8, !tbaa !6
  %34 = bitcast double* %dz20 to i8*
  call void @llvm.lifetime.start.p0i8(i64 8, i8* %34) #3
  %35 = load double, double* %z2.addr, align 8, !tbaa !6
  %36 = load double, double* %z0.addr, align 8, !tbaa !6
  %sub11 = fsub double %35, %36
  store double %sub11, double* %dz20, align 8, !tbaa !6
  %37 = bitcast double* %dx50 to i8*
  call void @llvm.lifetime.start.p0i8(i64 8, i8* %37) #3
  %38 = load double, double* %x5.addr, align 8, !tbaa !6
  %39 = load double, double* %x0.addr, align 8, !tbaa !6
  %sub12 = fsub double %38, %39
  store double %sub12, double* %dx50, align 8, !tbaa !6
  %40 = bitcast double* %dy50 to i8*
  call void @llvm.lifetime.start.p0i8(i64 8, i8* %40) #3
  %41 = load double, double* %y5.addr, align 8, !tbaa !6
  %42 = load double, double* %y0.addr, align 8, !tbaa !6
  %sub13 = fsub double %41, %42
  store double %sub13, double* %dy50, align 8, !tbaa !6
  %43 = bitcast double* %dz50 to i8*
  call void @llvm.lifetime.start.p0i8(i64 8, i8* %43) #3
  %44 = load double, double* %z5.addr, align 8, !tbaa !6
  %45 = load double, double* %z0.addr, align 8, !tbaa !6
  %sub14 = fsub double %44, %45
  store double %sub14, double* %dz50, align 8, !tbaa !6
  %46 = bitcast double* %dx64 to i8*
  call void @llvm.lifetime.start.p0i8(i64 8, i8* %46) #3
  %47 = load double, double* %x6.addr, align 8, !tbaa !6
  %48 = load double, double* %x4.addr, align 8, !tbaa !6
  %sub15 = fsub double %47, %48
  store double %sub15, double* %dx64, align 8, !tbaa !6
  %49 = bitcast double* %dy64 to i8*
  call void @llvm.lifetime.start.p0i8(i64 8, i8* %49) #3
  %50 = load double, double* %y6.addr, align 8, !tbaa !6
  %51 = load double, double* %y4.addr, align 8, !tbaa !6
  %sub16 = fsub double %50, %51
  store double %sub16, double* %dy64, align 8, !tbaa !6
  %52 = bitcast double* %dz64 to i8*
  call void @llvm.lifetime.start.p0i8(i64 8, i8* %52) #3
  %53 = load double, double* %z6.addr, align 8, !tbaa !6
  %54 = load double, double* %z4.addr, align 8, !tbaa !6
  %sub17 = fsub double %53, %54
  store double %sub17, double* %dz64, align 8, !tbaa !6
  %55 = bitcast double* %dx31 to i8*
  call void @llvm.lifetime.start.p0i8(i64 8, i8* %55) #3
  %56 = load double, double* %x3.addr, align 8, !tbaa !6
  %57 = load double, double* %x1.addr, align 8, !tbaa !6
  %sub18 = fsub double %56, %57
  store double %sub18, double* %dx31, align 8, !tbaa !6
  %58 = bitcast double* %dy31 to i8*
  call void @llvm.lifetime.start.p0i8(i64 8, i8* %58) #3
  %59 = load double, double* %y3.addr, align 8, !tbaa !6
  %60 = load double, double* %y1.addr, align 8, !tbaa !6
  %sub19 = fsub double %59, %60
  store double %sub19, double* %dy31, align 8, !tbaa !6
  %61 = bitcast double* %dz31 to i8*
  call void @llvm.lifetime.start.p0i8(i64 8, i8* %61) #3
  %62 = load double, double* %z3.addr, align 8, !tbaa !6
  %63 = load double, double* %z1.addr, align 8, !tbaa !6
  %sub20 = fsub double %62, %63
  store double %sub20, double* %dz31, align 8, !tbaa !6
  %64 = bitcast double* %dx72 to i8*
  call void @llvm.lifetime.start.p0i8(i64 8, i8* %64) #3
  %65 = load double, double* %x7.addr, align 8, !tbaa !6
  %66 = load double, double* %x2.addr, align 8, !tbaa !6
  %sub21 = fsub double %65, %66
  store double %sub21, double* %dx72, align 8, !tbaa !6
  %67 = bitcast double* %dy72 to i8*
  call void @llvm.lifetime.start.p0i8(i64 8, i8* %67) #3
  %68 = load double, double* %y7.addr, align 8, !tbaa !6
  %69 = load double, double* %y2.addr, align 8, !tbaa !6
  %sub22 = fsub double %68, %69
  store double %sub22, double* %dy72, align 8, !tbaa !6
  %70 = bitcast double* %dz72 to i8*
  call void @llvm.lifetime.start.p0i8(i64 8, i8* %70) #3
  %71 = load double, double* %z7.addr, align 8, !tbaa !6
  %72 = load double, double* %z2.addr, align 8, !tbaa !6
  %sub23 = fsub double %71, %72
  store double %sub23, double* %dz72, align 8, !tbaa !6
  %73 = bitcast double* %dx43 to i8*
  call void @llvm.lifetime.start.p0i8(i64 8, i8* %73) #3
  %74 = load double, double* %x4.addr, align 8, !tbaa !6
  %75 = load double, double* %x3.addr, align 8, !tbaa !6
  %sub24 = fsub double %74, %75
  store double %sub24, double* %dx43, align 8, !tbaa !6
  %76 = bitcast double* %dy43 to i8*
  call void @llvm.lifetime.start.p0i8(i64 8, i8* %76) #3
  %77 = load double, double* %y4.addr, align 8, !tbaa !6
  %78 = load double, double* %y3.addr, align 8, !tbaa !6
  %sub25 = fsub double %77, %78
  store double %sub25, double* %dy43, align 8, !tbaa !6
  %79 = bitcast double* %dz43 to i8*
  call void @llvm.lifetime.start.p0i8(i64 8, i8* %79) #3
  %80 = load double, double* %z4.addr, align 8, !tbaa !6
  %81 = load double, double* %z3.addr, align 8, !tbaa !6
  %sub26 = fsub double %80, %81
  store double %sub26, double* %dz43, align 8, !tbaa !6
  %82 = bitcast double* %dx57 to i8*
  call void @llvm.lifetime.start.p0i8(i64 8, i8* %82) #3
  %83 = load double, double* %x5.addr, align 8, !tbaa !6
  %84 = load double, double* %x7.addr, align 8, !tbaa !6
  %sub27 = fsub double %83, %84
  store double %sub27, double* %dx57, align 8, !tbaa !6
  %85 = bitcast double* %dy57 to i8*
  call void @llvm.lifetime.start.p0i8(i64 8, i8* %85) #3
  %86 = load double, double* %y5.addr, align 8, !tbaa !6
  %87 = load double, double* %y7.addr, align 8, !tbaa !6
  %sub28 = fsub double %86, %87
  store double %sub28, double* %dy57, align 8, !tbaa !6
  %88 = bitcast double* %dz57 to i8*
  call void @llvm.lifetime.start.p0i8(i64 8, i8* %88) #3
  %89 = load double, double* %z5.addr, align 8, !tbaa !6
  %90 = load double, double* %z7.addr, align 8, !tbaa !6
  %sub29 = fsub double %89, %90
  store double %sub29, double* %dz57, align 8, !tbaa !6
  %91 = bitcast double* %dx14 to i8*
  call void @llvm.lifetime.start.p0i8(i64 8, i8* %91) #3
  %92 = load double, double* %x1.addr, align 8, !tbaa !6
  %93 = load double, double* %x4.addr, align 8, !tbaa !6
  %sub30 = fsub double %92, %93
  store double %sub30, double* %dx14, align 8, !tbaa !6
  %94 = bitcast double* %dy14 to i8*
  call void @llvm.lifetime.start.p0i8(i64 8, i8* %94) #3
  %95 = load double, double* %y1.addr, align 8, !tbaa !6
  %96 = load double, double* %y4.addr, align 8, !tbaa !6
  %sub31 = fsub double %95, %96
  store double %sub31, double* %dy14, align 8, !tbaa !6
  %97 = bitcast double* %dz14 to i8*
  call void @llvm.lifetime.start.p0i8(i64 8, i8* %97) #3
  %98 = load double, double* %z1.addr, align 8, !tbaa !6
  %99 = load double, double* %z4.addr, align 8, !tbaa !6
  %sub32 = fsub double %98, %99
  store double %sub32, double* %dz14, align 8, !tbaa !6
  %100 = bitcast double* %dx25 to i8*
  call void @llvm.lifetime.start.p0i8(i64 8, i8* %100) #3
  %101 = load double, double* %x2.addr, align 8, !tbaa !6
  %102 = load double, double* %x5.addr, align 8, !tbaa !6
  %sub33 = fsub double %101, %102
  store double %sub33, double* %dx25, align 8, !tbaa !6
  %103 = bitcast double* %dy25 to i8*
  call void @llvm.lifetime.start.p0i8(i64 8, i8* %103) #3
  %104 = load double, double* %y2.addr, align 8, !tbaa !6
  %105 = load double, double* %y5.addr, align 8, !tbaa !6
  %sub34 = fsub double %104, %105
  store double %sub34, double* %dy25, align 8, !tbaa !6
  %106 = bitcast double* %dz25 to i8*
  call void @llvm.lifetime.start.p0i8(i64 8, i8* %106) #3
  %107 = load double, double* %z2.addr, align 8, !tbaa !6
  %108 = load double, double* %z5.addr, align 8, !tbaa !6
  %sub35 = fsub double %107, %108
  store double %sub35, double* %dz25, align 8, !tbaa !6
  %109 = bitcast double* %volume to i8*
  call void @llvm.lifetime.start.p0i8(i64 8, i8* %109) #3
  %110 = load double, double* %dx31, align 8, !tbaa !6
  %111 = load double, double* %dx72, align 8, !tbaa !6
  %add = fadd double %110, %111
  %112 = load double, double* %dy63, align 8, !tbaa !6
  %113 = load double, double* %dz20, align 8, !tbaa !6
  %mul = fmul double %112, %113
  %114 = load double, double* %dy20, align 8, !tbaa !6
  %115 = load double, double* %dz63, align 8, !tbaa !6
  %mul36 = fmul double %114, %115
  %sub37 = fsub double %mul, %mul36
  %mul38 = fmul double %add, %sub37
  %116 = load double, double* %dy31, align 8, !tbaa !6
  %117 = load double, double* %dy72, align 8, !tbaa !6
  %add39 = fadd double %116, %117
  %118 = load double, double* %dx20, align 8, !tbaa !6
  %119 = load double, double* %dz63, align 8, !tbaa !6
  %mul40 = fmul double %118, %119
  %120 = load double, double* %dx63, align 8, !tbaa !6
  %121 = load double, double* %dz20, align 8, !tbaa !6
  %mul41 = fmul double %120, %121
  %sub42 = fsub double %mul40, %mul41
  %mul43 = fmul double %add39, %sub42
  %add44 = fadd double %mul38, %mul43
  %122 = load double, double* %dz31, align 8, !tbaa !6
  %123 = load double, double* %dz72, align 8, !tbaa !6
  %add45 = fadd double %122, %123
  %124 = load double, double* %dx63, align 8, !tbaa !6
  %125 = load double, double* %dy20, align 8, !tbaa !6
  %mul46 = fmul double %124, %125
  %126 = load double, double* %dx20, align 8, !tbaa !6
  %127 = load double, double* %dy63, align 8, !tbaa !6
  %mul47 = fmul double %126, %127
  %sub48 = fsub double %mul46, %mul47
  %mul49 = fmul double %add45, %sub48
  %add50 = fadd double %add44, %mul49
  %128 = load double, double* %dx43, align 8, !tbaa !6
  %129 = load double, double* %dx57, align 8, !tbaa !6
  %add51 = fadd double %128, %129
  %130 = load double, double* %dy64, align 8, !tbaa !6
  %131 = load double, double* %dz70, align 8, !tbaa !6
  %mul52 = fmul double %130, %131
  %132 = load double, double* %dy70, align 8, !tbaa !6
  %133 = load double, double* %dz64, align 8, !tbaa !6
  %mul53 = fmul double %132, %133
  %sub54 = fsub double %mul52, %mul53
  %mul55 = fmul double %add51, %sub54
  %134 = load double, double* %dy43, align 8, !tbaa !6
  %135 = load double, double* %dy57, align 8, !tbaa !6
  %add56 = fadd double %134, %135
  %136 = load double, double* %dx70, align 8, !tbaa !6
  %137 = load double, double* %dz64, align 8, !tbaa !6
  %mul57 = fmul double %136, %137
  %138 = load double, double* %dx64, align 8, !tbaa !6
  %139 = load double, double* %dz70, align 8, !tbaa !6
  %mul58 = fmul double %138, %139
  %sub59 = fsub double %mul57, %mul58
  %mul60 = fmul double %add56, %sub59
  %add61 = fadd double %mul55, %mul60
  %140 = load double, double* %dz43, align 8, !tbaa !6
  %141 = load double, double* %dz57, align 8, !tbaa !6
  %add62 = fadd double %140, %141
  %142 = load double, double* %dx64, align 8, !tbaa !6
  %143 = load double, double* %dy70, align 8, !tbaa !6
  %mul63 = fmul double %142, %143
  %144 = load double, double* %dx70, align 8, !tbaa !6
  %145 = load double, double* %dy64, align 8, !tbaa !6
  %mul64 = fmul double %144, %145
  %sub65 = fsub double %mul63, %mul64
  %mul66 = fmul double %add62, %sub65
  %add67 = fadd double %add61, %mul66
  %add68 = fadd double %add50, %add67
  %146 = load double, double* %dx14, align 8, !tbaa !6
  %147 = load double, double* %dx25, align 8, !tbaa !6
  %add69 = fadd double %146, %147
  %148 = load double, double* %dy61, align 8, !tbaa !6
  %149 = load double, double* %dz50, align 8, !tbaa !6
  %mul70 = fmul double %148, %149
  %150 = load double, double* %dy50, align 8, !tbaa !6
  %151 = load double, double* %dz61, align 8, !tbaa !6
  %mul71 = fmul double %150, %151
  %sub72 = fsub double %mul70, %mul71
  %mul73 = fmul double %add69, %sub72
  %152 = load double, double* %dy14, align 8, !tbaa !6
  %153 = load double, double* %dy25, align 8, !tbaa !6
  %add74 = fadd double %152, %153
  %154 = load double, double* %dx50, align 8, !tbaa !6
  %155 = load double, double* %dz61, align 8, !tbaa !6
  %mul75 = fmul double %154, %155
  %156 = load double, double* %dx61, align 8, !tbaa !6
  %157 = load double, double* %dz50, align 8, !tbaa !6
  %mul76 = fmul double %156, %157
  %sub77 = fsub double %mul75, %mul76
  %mul78 = fmul double %add74, %sub77
  %add79 = fadd double %mul73, %mul78
  %158 = load double, double* %dz14, align 8, !tbaa !6
  %159 = load double, double* %dz25, align 8, !tbaa !6
  %add80 = fadd double %158, %159
  %160 = load double, double* %dx61, align 8, !tbaa !6
  %161 = load double, double* %dy50, align 8, !tbaa !6
  %mul81 = fmul double %160, %161
  %162 = load double, double* %dx50, align 8, !tbaa !6
  %163 = load double, double* %dy61, align 8, !tbaa !6
  %mul82 = fmul double %162, %163
  %sub83 = fsub double %mul81, %mul82
  %mul84 = fmul double %add80, %sub83
  %add85 = fadd double %add79, %mul84
  %add86 = fadd double %add68, %add85
  store double %add86, double* %volume, align 8, !tbaa !6
  %164 = load double, double* %twelveth, align 8, !tbaa !6
  %165 = load double, double* %volume, align 8, !tbaa !6
  %mul87 = fmul double %165, %164
  store double %mul87, double* %volume, align 8, !tbaa !6
  %166 = load double, double* %volume, align 8, !tbaa !6
  %167 = bitcast double* %volume to i8*
  call void @llvm.lifetime.end.p0i8(i64 8, i8* %167) #3
  %168 = bitcast double* %dz25 to i8*
  call void @llvm.lifetime.end.p0i8(i64 8, i8* %168) #3
  %169 = bitcast double* %dy25 to i8*
  call void @llvm.lifetime.end.p0i8(i64 8, i8* %169) #3
  %170 = bitcast double* %dx25 to i8*
  call void @llvm.lifetime.end.p0i8(i64 8, i8* %170) #3
  %171 = bitcast double* %dz14 to i8*
  call void @llvm.lifetime.end.p0i8(i64 8, i8* %171) #3
  %172 = bitcast double* %dy14 to i8*
  call void @llvm.lifetime.end.p0i8(i64 8, i8* %172) #3
  %173 = bitcast double* %dx14 to i8*
  call void @llvm.lifetime.end.p0i8(i64 8, i8* %173) #3
  %174 = bitcast double* %dz57 to i8*
  call void @llvm.lifetime.end.p0i8(i64 8, i8* %174) #3
  %175 = bitcast double* %dy57 to i8*
  call void @llvm.lifetime.end.p0i8(i64 8, i8* %175) #3
  %176 = bitcast double* %dx57 to i8*
  call void @llvm.lifetime.end.p0i8(i64 8, i8* %176) #3
  %177 = bitcast double* %dz43 to i8*
  call void @llvm.lifetime.end.p0i8(i64 8, i8* %177) #3
  %178 = bitcast double* %dy43 to i8*
  call void @llvm.lifetime.end.p0i8(i64 8, i8* %178) #3
  %179 = bitcast double* %dx43 to i8*
  call void @llvm.lifetime.end.p0i8(i64 8, i8* %179) #3
  %180 = bitcast double* %dz72 to i8*
  call void @llvm.lifetime.end.p0i8(i64 8, i8* %180) #3
  %181 = bitcast double* %dy72 to i8*
  call void @llvm.lifetime.end.p0i8(i64 8, i8* %181) #3
  %182 = bitcast double* %dx72 to i8*
  call void @llvm.lifetime.end.p0i8(i64 8, i8* %182) #3
  %183 = bitcast double* %dz31 to i8*
  call void @llvm.lifetime.end.p0i8(i64 8, i8* %183) #3
  %184 = bitcast double* %dy31 to i8*
  call void @llvm.lifetime.end.p0i8(i64 8, i8* %184) #3
  %185 = bitcast double* %dx31 to i8*
  call void @llvm.lifetime.end.p0i8(i64 8, i8* %185) #3
  %186 = bitcast double* %dz64 to i8*
  call void @llvm.lifetime.end.p0i8(i64 8, i8* %186) #3
  %187 = bitcast double* %dy64 to i8*
  call void @llvm.lifetime.end.p0i8(i64 8, i8* %187) #3
  %188 = bitcast double* %dx64 to i8*
  call void @llvm.lifetime.end.p0i8(i64 8, i8* %188) #3
  %189 = bitcast double* %dz50 to i8*
  call void @llvm.lifetime.end.p0i8(i64 8, i8* %189) #3
  %190 = bitcast double* %dy50 to i8*
  call void @llvm.lifetime.end.p0i8(i64 8, i8* %190) #3
  %191 = bitcast double* %dx50 to i8*
  call void @llvm.lifetime.end.p0i8(i64 8, i8* %191) #3
  %192 = bitcast double* %dz20 to i8*
  call void @llvm.lifetime.end.p0i8(i64 8, i8* %192) #3
  %193 = bitcast double* %dy20 to i8*
  call void @llvm.lifetime.end.p0i8(i64 8, i8* %193) #3
  %194 = bitcast double* %dx20 to i8*
  call void @llvm.lifetime.end.p0i8(i64 8, i8* %194) #3
  %195 = bitcast double* %dz63 to i8*
  call void @llvm.lifetime.end.p0i8(i64 8, i8* %195) #3
  %196 = bitcast double* %dy63 to i8*
  call void @llvm.lifetime.end.p0i8(i64 8, i8* %196) #3
  %197 = bitcast double* %dx63 to i8*
  call void @llvm.lifetime.end.p0i8(i64 8, i8* %197) #3
  %198 = bitcast double* %dz70 to i8*
  call void @llvm.lifetime.end.p0i8(i64 8, i8* %198) #3
  %199 = bitcast double* %dy70 to i8*
  call void @llvm.lifetime.end.p0i8(i64 8, i8* %199) #3
  %200 = bitcast double* %dx70 to i8*
  call void @llvm.lifetime.end.p0i8(i64 8, i8* %200) #3
  %201 = bitcast double* %dz61 to i8*
  call void @llvm.lifetime.end.p0i8(i64 8, i8* %201) #3
  %202 = bitcast double* %dy61 to i8*
  call void @llvm.lifetime.end.p0i8(i64 8, i8* %202) #3
  %203 = bitcast double* %dx61 to i8*
  call void @llvm.lifetime.end.p0i8(i64 8, i8* %203) #3
  %204 = bitcast double* %twelveth to i8*
  call void @llvm.lifetime.end.p0i8(i64 8, i8* %204) #3
  ret double %166
}

; Function Attrs: uwtable
define dso_local void @_Z22CalcKinematicsForElemsR6Domaindi(%class.Domain* nonnull align 8 dereferenceable(1312) %domain, double %deltaTime, i32 %numElem) #0 {
entry:
  %domain.addr = alloca %class.Domain*, align 8
  %deltaTime.addr = alloca double, align 8
  %numElem.addr = alloca i32, align 4
  %k = alloca i32, align 4
  %cleanup.dest.slot = alloca i32, align 4
  %B = alloca [3 x [8 x double]], align 16
  %D = alloca [6 x double], align 16
  %x_local = alloca [8 x double], align 16
  %y_local = alloca [8 x double], align 16
  %z_local = alloca [8 x double], align 16
  %xd_local = alloca [8 x double], align 16
  %yd_local = alloca [8 x double], align 16
  %zd_local = alloca [8 x double], align 16
  %detJ = alloca double, align 8
  %volume = alloca double, align 8
  %relativeVolume = alloca double, align 8
  %elemToNode = alloca i32*, align 8
  %lnode = alloca i32, align 4
  %gnode = alloca i32, align 4
  %dt2 = alloca double, align 8
  %j = alloca i32, align 4
  store %class.Domain* %domain, %class.Domain** %domain.addr, align 8, !tbaa !2
  store double %deltaTime, double* %deltaTime.addr, align 8, !tbaa !6
  store i32 %numElem, i32* %numElem.addr, align 4, !tbaa !8
  %0 = bitcast i32* %k to i8*
  call void @llvm.lifetime.start.p0i8(i64 4, i8* %0) #3
  store i32 0, i32* %k, align 4, !tbaa !8
  br label %for.cond

for.cond:                                         ; preds = %for.inc69, %entry
  %1 = load i32, i32* %k, align 4, !tbaa !8
  %2 = load i32, i32* %numElem.addr, align 4, !tbaa !8
  %cmp = icmp slt i32 %1, %2
  br i1 %cmp, label %for.body, label %for.cond.cleanup

for.cond.cleanup:                                 ; preds = %for.cond
  store i32 2, i32* %cleanup.dest.slot, align 4
  %3 = bitcast i32* %k to i8*
  call void @llvm.lifetime.end.p0i8(i64 4, i8* %3) #3
  br label %for.end71

for.body:                                         ; preds = %for.cond
  %4 = bitcast [3 x [8 x double]]* %B to i8*
  call void @llvm.lifetime.start.p0i8(i64 192, i8* %4) #3
  %5 = bitcast [6 x double]* %D to i8*
  call void @llvm.lifetime.start.p0i8(i64 48, i8* %5) #3
  %6 = bitcast [8 x double]* %x_local to i8*
  call void @llvm.lifetime.start.p0i8(i64 64, i8* %6) #3
  %7 = bitcast [8 x double]* %y_local to i8*
  call void @llvm.lifetime.start.p0i8(i64 64, i8* %7) #3
  %8 = bitcast [8 x double]* %z_local to i8*
  call void @llvm.lifetime.start.p0i8(i64 64, i8* %8) #3
  %9 = bitcast [8 x double]* %xd_local to i8*
  call void @llvm.lifetime.start.p0i8(i64 64, i8* %9) #3
  %10 = bitcast [8 x double]* %yd_local to i8*
  call void @llvm.lifetime.start.p0i8(i64 64, i8* %10) #3
  %11 = bitcast [8 x double]* %zd_local to i8*
  call void @llvm.lifetime.start.p0i8(i64 64, i8* %11) #3
  %12 = bitcast double* %detJ to i8*
  call void @llvm.lifetime.start.p0i8(i64 8, i8* %12) #3
  store double 0.000000e+00, double* %detJ, align 8, !tbaa !6
  %13 = bitcast double* %volume to i8*
  call void @llvm.lifetime.start.p0i8(i64 8, i8* %13) #3
  %14 = bitcast double* %relativeVolume to i8*
  call void @llvm.lifetime.start.p0i8(i64 8, i8* %14) #3
  %15 = bitcast i32** %elemToNode to i8*
  call void @llvm.lifetime.start.p0i8(i64 8, i8* %15) #3
  %16 = load %class.Domain*, %class.Domain** %domain.addr, align 8, !tbaa !2
  %17 = load i32, i32* %k, align 4, !tbaa !8
  %call = call i32* @_ZN6Domain8nodelistEi(%class.Domain* %16, i32 %17)
  store i32* %call, i32** %elemToNode, align 8, !tbaa !2
  %18 = load %class.Domain*, %class.Domain** %domain.addr, align 8, !tbaa !2
  %19 = load i32*, i32** %elemToNode, align 8, !tbaa !2
  %arraydecay = getelementptr inbounds [8 x double], [8 x double]* %x_local, i64 0, i64 0
  %arraydecay1 = getelementptr inbounds [8 x double], [8 x double]* %y_local, i64 0, i64 0
  %arraydecay2 = getelementptr inbounds [8 x double], [8 x double]* %z_local, i64 0, i64 0
  call void @_ZL29CollectDomainNodesToElemNodesR6DomainPKiPdS3_S3_(%class.Domain* nonnull align 8 dereferenceable(1312) %18, i32* %19, double* %arraydecay, double* %arraydecay1, double* %arraydecay2)
  %arraydecay3 = getelementptr inbounds [8 x double], [8 x double]* %x_local, i64 0, i64 0
  %arraydecay4 = getelementptr inbounds [8 x double], [8 x double]* %y_local, i64 0, i64 0
  %arraydecay5 = getelementptr inbounds [8 x double], [8 x double]* %z_local, i64 0, i64 0
  %call6 = call double @_Z14CalcElemVolumePKdS0_S0_(double* %arraydecay3, double* %arraydecay4, double* %arraydecay5)
  store double %call6, double* %volume, align 8, !tbaa !6
  %20 = load double, double* %volume, align 8, !tbaa !6
  %21 = load %class.Domain*, %class.Domain** %domain.addr, align 8, !tbaa !2
  %22 = load i32, i32* %k, align 4, !tbaa !8
  %call7 = call nonnull align 8 dereferenceable(8) double* @_ZN6Domain4voloEi(%class.Domain* %21, i32 %22)
  %23 = load double, double* %call7, align 8, !tbaa !6
  %div = fdiv double %20, %23
  store double %div, double* %relativeVolume, align 8, !tbaa !6
  %24 = load double, double* %relativeVolume, align 8, !tbaa !6
  %25 = load %class.Domain*, %class.Domain** %domain.addr, align 8, !tbaa !2
  %26 = load i32, i32* %k, align 4, !tbaa !8
  %call8 = call nonnull align 8 dereferenceable(8) double* @_ZN6Domain4vnewEi(%class.Domain* %25, i32 %26)
  store double %24, double* %call8, align 8, !tbaa !6
  %27 = load double, double* %relativeVolume, align 8, !tbaa !6
  %28 = load %class.Domain*, %class.Domain** %domain.addr, align 8, !tbaa !2
  %29 = load i32, i32* %k, align 4, !tbaa !8
  %call9 = call nonnull align 8 dereferenceable(8) double* @_ZN6Domain1vEi(%class.Domain* %28, i32 %29)
  %30 = load double, double* %call9, align 8, !tbaa !6
  %sub = fsub double %27, %30
  %31 = load %class.Domain*, %class.Domain** %domain.addr, align 8, !tbaa !2
  %32 = load i32, i32* %k, align 4, !tbaa !8
  %call10 = call nonnull align 8 dereferenceable(8) double* @_ZN6Domain4delvEi(%class.Domain* %31, i32 %32)
  store double %sub, double* %call10, align 8, !tbaa !6
  %arraydecay11 = getelementptr inbounds [8 x double], [8 x double]* %x_local, i64 0, i64 0
  %arraydecay12 = getelementptr inbounds [8 x double], [8 x double]* %y_local, i64 0, i64 0
  %arraydecay13 = getelementptr inbounds [8 x double], [8 x double]* %z_local, i64 0, i64 0
  %33 = load double, double* %volume, align 8, !tbaa !6
  %call14 = call double @_ZL28CalcElemCharacteristicLengthPKdS0_S0_d(double* %arraydecay11, double* %arraydecay12, double* %arraydecay13, double %33)
  %34 = load %class.Domain*, %class.Domain** %domain.addr, align 8, !tbaa !2
  %35 = load i32, i32* %k, align 4, !tbaa !8
  %call15 = call nonnull align 8 dereferenceable(8) double* @_ZN6Domain6arealgEi(%class.Domain* %34, i32 %35)
  store double %call14, double* %call15, align 8, !tbaa !6
  %36 = bitcast i32* %lnode to i8*
  call void @llvm.lifetime.start.p0i8(i64 4, i8* %36) #3
  store i32 0, i32* %lnode, align 4, !tbaa !8
  br label %for.cond16

for.cond16:                                       ; preds = %for.inc, %for.body
  %37 = load i32, i32* %lnode, align 4, !tbaa !8
  %cmp17 = icmp slt i32 %37, 8
  br i1 %cmp17, label %for.body19, label %for.cond.cleanup18

for.cond.cleanup18:                               ; preds = %for.cond16
  store i32 5, i32* %cleanup.dest.slot, align 4
  %38 = bitcast i32* %lnode to i8*
  call void @llvm.lifetime.end.p0i8(i64 4, i8* %38) #3
  br label %for.end

for.body19:                                       ; preds = %for.cond16
  %39 = bitcast i32* %gnode to i8*
  call void @llvm.lifetime.start.p0i8(i64 4, i8* %39) #3
  %40 = load i32*, i32** %elemToNode, align 8, !tbaa !2
  %41 = load i32, i32* %lnode, align 4, !tbaa !8
  %idxprom = sext i32 %41 to i64
  %arrayidx = getelementptr inbounds i32, i32* %40, i64 %idxprom
  %42 = load i32, i32* %arrayidx, align 4, !tbaa !8
  store i32 %42, i32* %gnode, align 4, !tbaa !8
  %43 = load %class.Domain*, %class.Domain** %domain.addr, align 8, !tbaa !2
  %44 = load i32, i32* %gnode, align 4, !tbaa !8
  %call20 = call nonnull align 8 dereferenceable(8) double* @_ZN6Domain2xdEi(%class.Domain* %43, i32 %44)
  %45 = load double, double* %call20, align 8, !tbaa !6
  %46 = load i32, i32* %lnode, align 4, !tbaa !8
  %idxprom21 = sext i32 %46 to i64
  %arrayidx22 = getelementptr inbounds [8 x double], [8 x double]* %xd_local, i64 0, i64 %idxprom21
  store double %45, double* %arrayidx22, align 8, !tbaa !6
  %47 = load %class.Domain*, %class.Domain** %domain.addr, align 8, !tbaa !2
  %48 = load i32, i32* %gnode, align 4, !tbaa !8
  %call23 = call nonnull align 8 dereferenceable(8) double* @_ZN6Domain2ydEi(%class.Domain* %47, i32 %48)
  %49 = load double, double* %call23, align 8, !tbaa !6
  %50 = load i32, i32* %lnode, align 4, !tbaa !8
  %idxprom24 = sext i32 %50 to i64
  %arrayidx25 = getelementptr inbounds [8 x double], [8 x double]* %yd_local, i64 0, i64 %idxprom24
  store double %49, double* %arrayidx25, align 8, !tbaa !6
  %51 = load %class.Domain*, %class.Domain** %domain.addr, align 8, !tbaa !2
  %52 = load i32, i32* %gnode, align 4, !tbaa !8
  %call26 = call nonnull align 8 dereferenceable(8) double* @_ZN6Domain2zdEi(%class.Domain* %51, i32 %52)
  %53 = load double, double* %call26, align 8, !tbaa !6
  %54 = load i32, i32* %lnode, align 4, !tbaa !8
  %idxprom27 = sext i32 %54 to i64
  %arrayidx28 = getelementptr inbounds [8 x double], [8 x double]* %zd_local, i64 0, i64 %idxprom27
  store double %53, double* %arrayidx28, align 8, !tbaa !6
  %55 = bitcast i32* %gnode to i8*
  call void @llvm.lifetime.end.p0i8(i64 4, i8* %55) #3
  br label %for.inc

for.inc:                                          ; preds = %for.body19
  %56 = load i32, i32* %lnode, align 4, !tbaa !8
  %inc = add nsw i32 %56, 1
  store i32 %inc, i32* %lnode, align 4, !tbaa !8
  br label %for.cond16, !llvm.loop !10

for.end:                                          ; preds = %for.cond.cleanup18
  %57 = bitcast double* %dt2 to i8*
  call void @llvm.lifetime.start.p0i8(i64 8, i8* %57) #3
  %58 = load double, double* %deltaTime.addr, align 8, !tbaa !6
  %mul = fmul double 5.000000e-01, %58
  store double %mul, double* %dt2, align 8, !tbaa !6
  %59 = bitcast i32* %j to i8*
  call void @llvm.lifetime.start.p0i8(i64 4, i8* %59) #3
  store i32 0, i32* %j, align 4, !tbaa !8
  br label %for.cond29

for.cond29:                                       ; preds = %for.inc51, %for.end
  %60 = load i32, i32* %j, align 4, !tbaa !8
  %cmp30 = icmp slt i32 %60, 8
  br i1 %cmp30, label %for.body32, label %for.cond.cleanup31

for.cond.cleanup31:                               ; preds = %for.cond29
  store i32 8, i32* %cleanup.dest.slot, align 4
  %61 = bitcast i32* %j to i8*
  call void @llvm.lifetime.end.p0i8(i64 4, i8* %61) #3
  br label %for.end53

for.body32:                                       ; preds = %for.cond29
  %62 = load double, double* %dt2, align 8, !tbaa !6
  %63 = load i32, i32* %j, align 4, !tbaa !8
  %idxprom33 = sext i32 %63 to i64
  %arrayidx34 = getelementptr inbounds [8 x double], [8 x double]* %xd_local, i64 0, i64 %idxprom33
  %64 = load double, double* %arrayidx34, align 8, !tbaa !6
  %mul35 = fmul double %62, %64
  %65 = load i32, i32* %j, align 4, !tbaa !8
  %idxprom36 = sext i32 %65 to i64
  %arrayidx37 = getelementptr inbounds [8 x double], [8 x double]* %x_local, i64 0, i64 %idxprom36
  %66 = load double, double* %arrayidx37, align 8, !tbaa !6
  %sub38 = fsub double %66, %mul35
  store double %sub38, double* %arrayidx37, align 8, !tbaa !6
  %67 = load double, double* %dt2, align 8, !tbaa !6
  %68 = load i32, i32* %j, align 4, !tbaa !8
  %idxprom39 = sext i32 %68 to i64
  %arrayidx40 = getelementptr inbounds [8 x double], [8 x double]* %yd_local, i64 0, i64 %idxprom39
  %69 = load double, double* %arrayidx40, align 8, !tbaa !6
  %mul41 = fmul double %67, %69
  %70 = load i32, i32* %j, align 4, !tbaa !8
  %idxprom42 = sext i32 %70 to i64
  %arrayidx43 = getelementptr inbounds [8 x double], [8 x double]* %y_local, i64 0, i64 %idxprom42
  %71 = load double, double* %arrayidx43, align 8, !tbaa !6
  %sub44 = fsub double %71, %mul41
  store double %sub44, double* %arrayidx43, align 8, !tbaa !6
  %72 = load double, double* %dt2, align 8, !tbaa !6
  %73 = load i32, i32* %j, align 4, !tbaa !8
  %idxprom45 = sext i32 %73 to i64
  %arrayidx46 = getelementptr inbounds [8 x double], [8 x double]* %zd_local, i64 0, i64 %idxprom45
  %74 = load double, double* %arrayidx46, align 8, !tbaa !6
  %mul47 = fmul double %72, %74
  %75 = load i32, i32* %j, align 4, !tbaa !8
  %idxprom48 = sext i32 %75 to i64
  %arrayidx49 = getelementptr inbounds [8 x double], [8 x double]* %z_local, i64 0, i64 %idxprom48
  %76 = load double, double* %arrayidx49, align 8, !tbaa !6
  %sub50 = fsub double %76, %mul47
  store double %sub50, double* %arrayidx49, align 8, !tbaa !6
  br label %for.inc51

for.inc51:                                        ; preds = %for.body32
  %77 = load i32, i32* %j, align 4, !tbaa !8
  %inc52 = add nsw i32 %77, 1
  store i32 %inc52, i32* %j, align 4, !tbaa !8
  br label %for.cond29, !llvm.loop !12

for.end53:                                        ; preds = %for.cond.cleanup31
  %arraydecay54 = getelementptr inbounds [8 x double], [8 x double]* %x_local, i64 0, i64 0
  %arraydecay55 = getelementptr inbounds [8 x double], [8 x double]* %y_local, i64 0, i64 0
  %arraydecay56 = getelementptr inbounds [8 x double], [8 x double]* %z_local, i64 0, i64 0
  %arraydecay57 = getelementptr inbounds [3 x [8 x double]], [3 x [8 x double]]* %B, i64 0, i64 0
  call void @_ZL32CalcElemShapeFunctionDerivativesPKdS0_S0_PA8_dPd(double* %arraydecay54, double* %arraydecay55, double* %arraydecay56, [8 x double]* %arraydecay57, double* %detJ)
  %arraydecay58 = getelementptr inbounds [8 x double], [8 x double]* %xd_local, i64 0, i64 0
  %arraydecay59 = getelementptr inbounds [8 x double], [8 x double]* %yd_local, i64 0, i64 0
  %arraydecay60 = getelementptr inbounds [8 x double], [8 x double]* %zd_local, i64 0, i64 0
  %arraydecay61 = getelementptr inbounds [3 x [8 x double]], [3 x [8 x double]]* %B, i64 0, i64 0
  %78 = load double, double* %detJ, align 8, !tbaa !6
  %arraydecay62 = getelementptr inbounds [6 x double], [6 x double]* %D, i64 0, i64 0
  call void @_ZL24CalcElemVelocityGradientPKdS0_S0_PA8_S_dPd(double* %arraydecay58, double* %arraydecay59, double* %arraydecay60, [8 x double]* %arraydecay61, double %78, double* %arraydecay62)
  %arrayidx63 = getelementptr inbounds [6 x double], [6 x double]* %D, i64 0, i64 0
  %79 = load double, double* %arrayidx63, align 16, !tbaa !6
  %80 = load %class.Domain*, %class.Domain** %domain.addr, align 8, !tbaa !2
  %81 = load i32, i32* %k, align 4, !tbaa !8
  %call64 = call nonnull align 8 dereferenceable(8) double* @_ZN6Domain3dxxEi(%class.Domain* %80, i32 %81)
  store double %79, double* %call64, align 8, !tbaa !6
  %arrayidx65 = getelementptr inbounds [6 x double], [6 x double]* %D, i64 0, i64 1
  %82 = load double, double* %arrayidx65, align 8, !tbaa !6
  %83 = load %class.Domain*, %class.Domain** %domain.addr, align 8, !tbaa !2
  %84 = load i32, i32* %k, align 4, !tbaa !8
  %call66 = call nonnull align 8 dereferenceable(8) double* @_ZN6Domain3dyyEi(%class.Domain* %83, i32 %84)
  store double %82, double* %call66, align 8, !tbaa !6
  %arrayidx67 = getelementptr inbounds [6 x double], [6 x double]* %D, i64 0, i64 2
  %85 = load double, double* %arrayidx67, align 16, !tbaa !6
  %86 = load %class.Domain*, %class.Domain** %domain.addr, align 8, !tbaa !2
  %87 = load i32, i32* %k, align 4, !tbaa !8
  %call68 = call nonnull align 8 dereferenceable(8) double* @_ZN6Domain3dzzEi(%class.Domain* %86, i32 %87)
  store double %85, double* %call68, align 8, !tbaa !6
  %88 = bitcast double* %dt2 to i8*
  call void @llvm.lifetime.end.p0i8(i64 8, i8* %88) #3
  %89 = bitcast i32** %elemToNode to i8*
  call void @llvm.lifetime.end.p0i8(i64 8, i8* %89) #3
  %90 = bitcast double* %relativeVolume to i8*
  call void @llvm.lifetime.end.p0i8(i64 8, i8* %90) #3
  %91 = bitcast double* %volume to i8*
  call void @llvm.lifetime.end.p0i8(i64 8, i8* %91) #3
  %92 = bitcast double* %detJ to i8*
  call void @llvm.lifetime.end.p0i8(i64 8, i8* %92) #3
  %93 = bitcast [8 x double]* %zd_local to i8*
  call void @llvm.lifetime.end.p0i8(i64 64, i8* %93) #3
  %94 = bitcast [8 x double]* %yd_local to i8*
  call void @llvm.lifetime.end.p0i8(i64 64, i8* %94) #3
  %95 = bitcast [8 x double]* %xd_local to i8*
  call void @llvm.lifetime.end.p0i8(i64 64, i8* %95) #3
  %96 = bitcast [8 x double]* %z_local to i8*
  call void @llvm.lifetime.end.p0i8(i64 64, i8* %96) #3
  %97 = bitcast [8 x double]* %y_local to i8*
  call void @llvm.lifetime.end.p0i8(i64 64, i8* %97) #3
  %98 = bitcast [8 x double]* %x_local to i8*
  call void @llvm.lifetime.end.p0i8(i64 64, i8* %98) #3
  %99 = bitcast [6 x double]* %D to i8*
  call void @llvm.lifetime.end.p0i8(i64 48, i8* %99) #3
  %100 = bitcast [3 x [8 x double]]* %B to i8*
  call void @llvm.lifetime.end.p0i8(i64 192, i8* %100) #3
  br label %for.inc69

for.inc69:                                        ; preds = %for.end53
  %101 = load i32, i32* %k, align 4, !tbaa !8
  %inc70 = add nsw i32 %101, 1
  store i32 %inc70, i32* %k, align 4, !tbaa !8
  br label %for.cond, !llvm.loop !13

for.end71:                                        ; preds = %for.cond.cleanup
  ret void
}

; Function Attrs: argmemonly nounwind willreturn
declare void @llvm.lifetime.start.p0i8(i64 immarg, i8* nocapture) #5

; Function Attrs: nounwind uwtable
define linkonce_odr dso_local i32* @_ZN6Domain8nodelistEi(%class.Domain* %this, i32 %idx) #6 comdat align 2 {
entry:
  %this.addr = alloca %class.Domain*, align 8
  %idx.addr = alloca i32, align 4
  store %class.Domain* %this, %class.Domain** %this.addr, align 8, !tbaa !2
  store i32 %idx, i32* %idx.addr, align 4, !tbaa !8
  %this1 = load %class.Domain*, %class.Domain** %this.addr, align 8
  %m_nodelist = getelementptr inbounds %class.Domain, %class.Domain* %this1, i32 0, i32 21
  %0 = load i32, i32* %idx.addr, align 4, !tbaa !8
  %mul = mul nsw i32 8, %0
  %conv = sext i32 %mul to i64
  %call = call nonnull align 4 dereferenceable(4) i32* @_ZNSt6vectorIiSaIiEEixEm(%"class.std::vector.0"* %m_nodelist, i64 %conv) #3
  ret i32* %call
}

; Function Attrs: inlinehint uwtable
define internal void @_ZL29CollectDomainNodesToElemNodesR6DomainPKiPdS3_S3_(%class.Domain* nonnull align 8 dereferenceable(1312) %domain, i32* %elemToNode, double* %elemX, double* %elemY, double* %elemZ) #7 {
entry:
  %domain.addr = alloca %class.Domain*, align 8
  %elemToNode.addr = alloca i32*, align 8
  %elemX.addr = alloca double*, align 8
  %elemY.addr = alloca double*, align 8
  %elemZ.addr = alloca double*, align 8
  %nd0i = alloca i32, align 4
  %nd1i = alloca i32, align 4
  %nd2i = alloca i32, align 4
  %nd3i = alloca i32, align 4
  %nd4i = alloca i32, align 4
  %nd5i = alloca i32, align 4
  %nd6i = alloca i32, align 4
  %nd7i = alloca i32, align 4
  store %class.Domain* %domain, %class.Domain** %domain.addr, align 8, !tbaa !2
  store i32* %elemToNode, i32** %elemToNode.addr, align 8, !tbaa !2
  store double* %elemX, double** %elemX.addr, align 8, !tbaa !2
  store double* %elemY, double** %elemY.addr, align 8, !tbaa !2
  store double* %elemZ, double** %elemZ.addr, align 8, !tbaa !2
  %0 = bitcast i32* %nd0i to i8*
  call void @llvm.lifetime.start.p0i8(i64 4, i8* %0) #3
  %1 = load i32*, i32** %elemToNode.addr, align 8, !tbaa !2
  %arrayidx = getelementptr inbounds i32, i32* %1, i64 0
  %2 = load i32, i32* %arrayidx, align 4, !tbaa !8
  store i32 %2, i32* %nd0i, align 4, !tbaa !8
  %3 = bitcast i32* %nd1i to i8*
  call void @llvm.lifetime.start.p0i8(i64 4, i8* %3) #3
  %4 = load i32*, i32** %elemToNode.addr, align 8, !tbaa !2
  %arrayidx1 = getelementptr inbounds i32, i32* %4, i64 1
  %5 = load i32, i32* %arrayidx1, align 4, !tbaa !8
  store i32 %5, i32* %nd1i, align 4, !tbaa !8
  %6 = bitcast i32* %nd2i to i8*
  call void @llvm.lifetime.start.p0i8(i64 4, i8* %6) #3
  %7 = load i32*, i32** %elemToNode.addr, align 8, !tbaa !2
  %arrayidx2 = getelementptr inbounds i32, i32* %7, i64 2
  %8 = load i32, i32* %arrayidx2, align 4, !tbaa !8
  store i32 %8, i32* %nd2i, align 4, !tbaa !8
  %9 = bitcast i32* %nd3i to i8*
  call void @llvm.lifetime.start.p0i8(i64 4, i8* %9) #3
  %10 = load i32*, i32** %elemToNode.addr, align 8, !tbaa !2
  %arrayidx3 = getelementptr inbounds i32, i32* %10, i64 3
  %11 = load i32, i32* %arrayidx3, align 4, !tbaa !8
  store i32 %11, i32* %nd3i, align 4, !tbaa !8
  %12 = bitcast i32* %nd4i to i8*
  call void @llvm.lifetime.start.p0i8(i64 4, i8* %12) #3
  %13 = load i32*, i32** %elemToNode.addr, align 8, !tbaa !2
  %arrayidx4 = getelementptr inbounds i32, i32* %13, i64 4
  %14 = load i32, i32* %arrayidx4, align 4, !tbaa !8
  store i32 %14, i32* %nd4i, align 4, !tbaa !8
  %15 = bitcast i32* %nd5i to i8*
  call void @llvm.lifetime.start.p0i8(i64 4, i8* %15) #3
  %16 = load i32*, i32** %elemToNode.addr, align 8, !tbaa !2
  %arrayidx5 = getelementptr inbounds i32, i32* %16, i64 5
  %17 = load i32, i32* %arrayidx5, align 4, !tbaa !8
  store i32 %17, i32* %nd5i, align 4, !tbaa !8
  %18 = bitcast i32* %nd6i to i8*
  call void @llvm.lifetime.start.p0i8(i64 4, i8* %18) #3
  %19 = load i32*, i32** %elemToNode.addr, align 8, !tbaa !2
  %arrayidx6 = getelementptr inbounds i32, i32* %19, i64 6
  %20 = load i32, i32* %arrayidx6, align 4, !tbaa !8
  store i32 %20, i32* %nd6i, align 4, !tbaa !8
  %21 = bitcast i32* %nd7i to i8*
  call void @llvm.lifetime.start.p0i8(i64 4, i8* %21) #3
  %22 = load i32*, i32** %elemToNode.addr, align 8, !tbaa !2
  %arrayidx7 = getelementptr inbounds i32, i32* %22, i64 7
  %23 = load i32, i32* %arrayidx7, align 4, !tbaa !8
  store i32 %23, i32* %nd7i, align 4, !tbaa !8
  %24 = load %class.Domain*, %class.Domain** %domain.addr, align 8, !tbaa !2
  %25 = load i32, i32* %nd0i, align 4, !tbaa !8
  %call = call nonnull align 8 dereferenceable(8) double* @_ZN6Domain1xEi(%class.Domain* %24, i32 %25)
  %26 = load double, double* %call, align 8, !tbaa !6
  %27 = load double*, double** %elemX.addr, align 8, !tbaa !2
  %arrayidx8 = getelementptr inbounds double, double* %27, i64 0
  store double %26, double* %arrayidx8, align 8, !tbaa !6
  %28 = load %class.Domain*, %class.Domain** %domain.addr, align 8, !tbaa !2
  %29 = load i32, i32* %nd1i, align 4, !tbaa !8
  %call9 = call nonnull align 8 dereferenceable(8) double* @_ZN6Domain1xEi(%class.Domain* %28, i32 %29)
  %30 = load double, double* %call9, align 8, !tbaa !6
  %31 = load double*, double** %elemX.addr, align 8, !tbaa !2
  %arrayidx10 = getelementptr inbounds double, double* %31, i64 1
  store double %30, double* %arrayidx10, align 8, !tbaa !6
  %32 = load %class.Domain*, %class.Domain** %domain.addr, align 8, !tbaa !2
  %33 = load i32, i32* %nd2i, align 4, !tbaa !8
  %call11 = call nonnull align 8 dereferenceable(8) double* @_ZN6Domain1xEi(%class.Domain* %32, i32 %33)
  %34 = load double, double* %call11, align 8, !tbaa !6
  %35 = load double*, double** %elemX.addr, align 8, !tbaa !2
  %arrayidx12 = getelementptr inbounds double, double* %35, i64 2
  store double %34, double* %arrayidx12, align 8, !tbaa !6
  %36 = load %class.Domain*, %class.Domain** %domain.addr, align 8, !tbaa !2
  %37 = load i32, i32* %nd3i, align 4, !tbaa !8
  %call13 = call nonnull align 8 dereferenceable(8) double* @_ZN6Domain1xEi(%class.Domain* %36, i32 %37)
  %38 = load double, double* %call13, align 8, !tbaa !6
  %39 = load double*, double** %elemX.addr, align 8, !tbaa !2
  %arrayidx14 = getelementptr inbounds double, double* %39, i64 3
  store double %38, double* %arrayidx14, align 8, !tbaa !6
  %40 = load %class.Domain*, %class.Domain** %domain.addr, align 8, !tbaa !2
  %41 = load i32, i32* %nd4i, align 4, !tbaa !8
  %call15 = call nonnull align 8 dereferenceable(8) double* @_ZN6Domain1xEi(%class.Domain* %40, i32 %41)
  %42 = load double, double* %call15, align 8, !tbaa !6
  %43 = load double*, double** %elemX.addr, align 8, !tbaa !2
  %arrayidx16 = getelementptr inbounds double, double* %43, i64 4
  store double %42, double* %arrayidx16, align 8, !tbaa !6
  %44 = load %class.Domain*, %class.Domain** %domain.addr, align 8, !tbaa !2
  %45 = load i32, i32* %nd5i, align 4, !tbaa !8
  %call17 = call nonnull align 8 dereferenceable(8) double* @_ZN6Domain1xEi(%class.Domain* %44, i32 %45)
  %46 = load double, double* %call17, align 8, !tbaa !6
  %47 = load double*, double** %elemX.addr, align 8, !tbaa !2
  %arrayidx18 = getelementptr inbounds double, double* %47, i64 5
  store double %46, double* %arrayidx18, align 8, !tbaa !6
  %48 = load %class.Domain*, %class.Domain** %domain.addr, align 8, !tbaa !2
  %49 = load i32, i32* %nd6i, align 4, !tbaa !8
  %call19 = call nonnull align 8 dereferenceable(8) double* @_ZN6Domain1xEi(%class.Domain* %48, i32 %49)
  %50 = load double, double* %call19, align 8, !tbaa !6
  %51 = load double*, double** %elemX.addr, align 8, !tbaa !2
  %arrayidx20 = getelementptr inbounds double, double* %51, i64 6
  store double %50, double* %arrayidx20, align 8, !tbaa !6
  %52 = load %class.Domain*, %class.Domain** %domain.addr, align 8, !tbaa !2
  %53 = load i32, i32* %nd7i, align 4, !tbaa !8
  %call21 = call nonnull align 8 dereferenceable(8) double* @_ZN6Domain1xEi(%class.Domain* %52, i32 %53)
  %54 = load double, double* %call21, align 8, !tbaa !6
  %55 = load double*, double** %elemX.addr, align 8, !tbaa !2
  %arrayidx22 = getelementptr inbounds double, double* %55, i64 7
  store double %54, double* %arrayidx22, align 8, !tbaa !6
  %56 = load %class.Domain*, %class.Domain** %domain.addr, align 8, !tbaa !2
  %57 = load i32, i32* %nd0i, align 4, !tbaa !8
  %call23 = call nonnull align 8 dereferenceable(8) double* @_ZN6Domain1yEi(%class.Domain* %56, i32 %57)
  %58 = load double, double* %call23, align 8, !tbaa !6
  %59 = load double*, double** %elemY.addr, align 8, !tbaa !2
  %arrayidx24 = getelementptr inbounds double, double* %59, i64 0
  store double %58, double* %arrayidx24, align 8, !tbaa !6
  %60 = load %class.Domain*, %class.Domain** %domain.addr, align 8, !tbaa !2
  %61 = load i32, i32* %nd1i, align 4, !tbaa !8
  %call25 = call nonnull align 8 dereferenceable(8) double* @_ZN6Domain1yEi(%class.Domain* %60, i32 %61)
  %62 = load double, double* %call25, align 8, !tbaa !6
  %63 = load double*, double** %elemY.addr, align 8, !tbaa !2
  %arrayidx26 = getelementptr inbounds double, double* %63, i64 1
  store double %62, double* %arrayidx26, align 8, !tbaa !6
  %64 = load %class.Domain*, %class.Domain** %domain.addr, align 8, !tbaa !2
  %65 = load i32, i32* %nd2i, align 4, !tbaa !8
  %call27 = call nonnull align 8 dereferenceable(8) double* @_ZN6Domain1yEi(%class.Domain* %64, i32 %65)
  %66 = load double, double* %call27, align 8, !tbaa !6
  %67 = load double*, double** %elemY.addr, align 8, !tbaa !2
  %arrayidx28 = getelementptr inbounds double, double* %67, i64 2
  store double %66, double* %arrayidx28, align 8, !tbaa !6
  %68 = load %class.Domain*, %class.Domain** %domain.addr, align 8, !tbaa !2
  %69 = load i32, i32* %nd3i, align 4, !tbaa !8
  %call29 = call nonnull align 8 dereferenceable(8) double* @_ZN6Domain1yEi(%class.Domain* %68, i32 %69)
  %70 = load double, double* %call29, align 8, !tbaa !6
  %71 = load double*, double** %elemY.addr, align 8, !tbaa !2
  %arrayidx30 = getelementptr inbounds double, double* %71, i64 3
  store double %70, double* %arrayidx30, align 8, !tbaa !6
  %72 = load %class.Domain*, %class.Domain** %domain.addr, align 8, !tbaa !2
  %73 = load i32, i32* %nd4i, align 4, !tbaa !8
  %call31 = call nonnull align 8 dereferenceable(8) double* @_ZN6Domain1yEi(%class.Domain* %72, i32 %73)
  %74 = load double, double* %call31, align 8, !tbaa !6
  %75 = load double*, double** %elemY.addr, align 8, !tbaa !2
  %arrayidx32 = getelementptr inbounds double, double* %75, i64 4
  store double %74, double* %arrayidx32, align 8, !tbaa !6
  %76 = load %class.Domain*, %class.Domain** %domain.addr, align 8, !tbaa !2
  %77 = load i32, i32* %nd5i, align 4, !tbaa !8
  %call33 = call nonnull align 8 dereferenceable(8) double* @_ZN6Domain1yEi(%class.Domain* %76, i32 %77)
  %78 = load double, double* %call33, align 8, !tbaa !6
  %79 = load double*, double** %elemY.addr, align 8, !tbaa !2
  %arrayidx34 = getelementptr inbounds double, double* %79, i64 5
  store double %78, double* %arrayidx34, align 8, !tbaa !6
  %80 = load %class.Domain*, %class.Domain** %domain.addr, align 8, !tbaa !2
  %81 = load i32, i32* %nd6i, align 4, !tbaa !8
  %call35 = call nonnull align 8 dereferenceable(8) double* @_ZN6Domain1yEi(%class.Domain* %80, i32 %81)
  %82 = load double, double* %call35, align 8, !tbaa !6
  %83 = load double*, double** %elemY.addr, align 8, !tbaa !2
  %arrayidx36 = getelementptr inbounds double, double* %83, i64 6
  store double %82, double* %arrayidx36, align 8, !tbaa !6
  %84 = load %class.Domain*, %class.Domain** %domain.addr, align 8, !tbaa !2
  %85 = load i32, i32* %nd7i, align 4, !tbaa !8
  %call37 = call nonnull align 8 dereferenceable(8) double* @_ZN6Domain1yEi(%class.Domain* %84, i32 %85)
  %86 = load double, double* %call37, align 8, !tbaa !6
  %87 = load double*, double** %elemY.addr, align 8, !tbaa !2
  %arrayidx38 = getelementptr inbounds double, double* %87, i64 7
  store double %86, double* %arrayidx38, align 8, !tbaa !6
  %88 = load %class.Domain*, %class.Domain** %domain.addr, align 8, !tbaa !2
  %89 = load i32, i32* %nd0i, align 4, !tbaa !8
  %call39 = call nonnull align 8 dereferenceable(8) double* @_ZN6Domain1zEi(%class.Domain* %88, i32 %89)
  %90 = load double, double* %call39, align 8, !tbaa !6
  %91 = load double*, double** %elemZ.addr, align 8, !tbaa !2
  %arrayidx40 = getelementptr inbounds double, double* %91, i64 0
  store double %90, double* %arrayidx40, align 8, !tbaa !6
  %92 = load %class.Domain*, %class.Domain** %domain.addr, align 8, !tbaa !2
  %93 = load i32, i32* %nd1i, align 4, !tbaa !8
  %call41 = call nonnull align 8 dereferenceable(8) double* @_ZN6Domain1zEi(%class.Domain* %92, i32 %93)
  %94 = load double, double* %call41, align 8, !tbaa !6
  %95 = load double*, double** %elemZ.addr, align 8, !tbaa !2
  %arrayidx42 = getelementptr inbounds double, double* %95, i64 1
  store double %94, double* %arrayidx42, align 8, !tbaa !6
  %96 = load %class.Domain*, %class.Domain** %domain.addr, align 8, !tbaa !2
  %97 = load i32, i32* %nd2i, align 4, !tbaa !8
  %call43 = call nonnull align 8 dereferenceable(8) double* @_ZN6Domain1zEi(%class.Domain* %96, i32 %97)
  %98 = load double, double* %call43, align 8, !tbaa !6
  %99 = load double*, double** %elemZ.addr, align 8, !tbaa !2
  %arrayidx44 = getelementptr inbounds double, double* %99, i64 2
  store double %98, double* %arrayidx44, align 8, !tbaa !6
  %100 = load %class.Domain*, %class.Domain** %domain.addr, align 8, !tbaa !2
  %101 = load i32, i32* %nd3i, align 4, !tbaa !8
  %call45 = call nonnull align 8 dereferenceable(8) double* @_ZN6Domain1zEi(%class.Domain* %100, i32 %101)
  %102 = load double, double* %call45, align 8, !tbaa !6
  %103 = load double*, double** %elemZ.addr, align 8, !tbaa !2
  %arrayidx46 = getelementptr inbounds double, double* %103, i64 3
  store double %102, double* %arrayidx46, align 8, !tbaa !6
  %104 = load %class.Domain*, %class.Domain** %domain.addr, align 8, !tbaa !2
  %105 = load i32, i32* %nd4i, align 4, !tbaa !8
  %call47 = call nonnull align 8 dereferenceable(8) double* @_ZN6Domain1zEi(%class.Domain* %104, i32 %105)
  %106 = load double, double* %call47, align 8, !tbaa !6
  %107 = load double*, double** %elemZ.addr, align 8, !tbaa !2
  %arrayidx48 = getelementptr inbounds double, double* %107, i64 4
  store double %106, double* %arrayidx48, align 8, !tbaa !6
  %108 = load %class.Domain*, %class.Domain** %domain.addr, align 8, !tbaa !2
  %109 = load i32, i32* %nd5i, align 4, !tbaa !8
  %call49 = call nonnull align 8 dereferenceable(8) double* @_ZN6Domain1zEi(%class.Domain* %108, i32 %109)
  %110 = load double, double* %call49, align 8, !tbaa !6
  %111 = load double*, double** %elemZ.addr, align 8, !tbaa !2
  %arrayidx50 = getelementptr inbounds double, double* %111, i64 5
  store double %110, double* %arrayidx50, align 8, !tbaa !6
  %112 = load %class.Domain*, %class.Domain** %domain.addr, align 8, !tbaa !2
  %113 = load i32, i32* %nd6i, align 4, !tbaa !8
  %call51 = call nonnull align 8 dereferenceable(8) double* @_ZN6Domain1zEi(%class.Domain* %112, i32 %113)
  %114 = load double, double* %call51, align 8, !tbaa !6
  %115 = load double*, double** %elemZ.addr, align 8, !tbaa !2
  %arrayidx52 = getelementptr inbounds double, double* %115, i64 6
  store double %114, double* %arrayidx52, align 8, !tbaa !6
  %116 = load %class.Domain*, %class.Domain** %domain.addr, align 8, !tbaa !2
  %117 = load i32, i32* %nd7i, align 4, !tbaa !8
  %call53 = call nonnull align 8 dereferenceable(8) double* @_ZN6Domain1zEi(%class.Domain* %116, i32 %117)
  %118 = load double, double* %call53, align 8, !tbaa !6
  %119 = load double*, double** %elemZ.addr, align 8, !tbaa !2
  %arrayidx54 = getelementptr inbounds double, double* %119, i64 7
  store double %118, double* %arrayidx54, align 8, !tbaa !6
  %120 = bitcast i32* %nd7i to i8*
  call void @llvm.lifetime.end.p0i8(i64 4, i8* %120) #3
  %121 = bitcast i32* %nd6i to i8*
  call void @llvm.lifetime.end.p0i8(i64 4, i8* %121) #3
  %122 = bitcast i32* %nd5i to i8*
  call void @llvm.lifetime.end.p0i8(i64 4, i8* %122) #3
  %123 = bitcast i32* %nd4i to i8*
  call void @llvm.lifetime.end.p0i8(i64 4, i8* %123) #3
  %124 = bitcast i32* %nd3i to i8*
  call void @llvm.lifetime.end.p0i8(i64 4, i8* %124) #3
  %125 = bitcast i32* %nd2i to i8*
  call void @llvm.lifetime.end.p0i8(i64 4, i8* %125) #3
  %126 = bitcast i32* %nd1i to i8*
  call void @llvm.lifetime.end.p0i8(i64 4, i8* %126) #3
  %127 = bitcast i32* %nd0i to i8*
  call void @llvm.lifetime.end.p0i8(i64 4, i8* %127) #3
  ret void
}

; Function Attrs: nounwind uwtable
define linkonce_odr dso_local nonnull align 8 dereferenceable(8) double* @_ZN6Domain4voloEi(%class.Domain* %this, i32 %idx) #6 comdat align 2 {
entry:
  %this.addr = alloca %class.Domain*, align 8
  %idx.addr = alloca i32, align 4
  store %class.Domain* %this, %class.Domain** %this.addr, align 8, !tbaa !2
  store i32 %idx, i32* %idx.addr, align 4, !tbaa !8
  %this1 = load %class.Domain*, %class.Domain** %this.addr, align 8
  %m_volo = getelementptr inbounds %class.Domain, %class.Domain* %this1, i32 0, i32 44
  %0 = load i32, i32* %idx.addr, align 4, !tbaa !8
  %conv = sext i32 %0 to i64
  %call = call nonnull align 8 dereferenceable(8) double* @_ZNSt6vectorIdSaIdEEixEm(%"class.std::vector"* %m_volo, i64 %conv) #3
  ret double* %call
}

; Function Attrs: nounwind uwtable
define linkonce_odr dso_local nonnull align 8 dereferenceable(8) double* @_ZN6Domain4vnewEi(%class.Domain* %this, i32 %idx) #6 comdat align 2 {
entry:
  %this.addr = alloca %class.Domain*, align 8
  %idx.addr = alloca i32, align 4
  store %class.Domain* %this, %class.Domain** %this.addr, align 8, !tbaa !2
  store i32 %idx, i32* %idx.addr, align 4, !tbaa !8
  %this1 = load %class.Domain*, %class.Domain** %this.addr, align 8
  %m_vnew = getelementptr inbounds %class.Domain, %class.Domain* %this1, i32 0, i32 45
  %0 = load i32, i32* %idx.addr, align 4, !tbaa !8
  %conv = sext i32 %0 to i64
  %call = call nonnull align 8 dereferenceable(8) double* @_ZNSt6vectorIdSaIdEEixEm(%"class.std::vector"* %m_vnew, i64 %conv) #3
  ret double* %call
}

; Function Attrs: nounwind uwtable
define linkonce_odr dso_local nonnull align 8 dereferenceable(8) double* @_ZN6Domain1vEi(%class.Domain* %this, i32 %idx) #6 comdat align 2 {
entry:
  %this.addr = alloca %class.Domain*, align 8
  %idx.addr = alloca i32, align 4
  store %class.Domain* %this, %class.Domain** %this.addr, align 8, !tbaa !2
  store i32 %idx, i32* %idx.addr, align 4, !tbaa !8
  %this1 = load %class.Domain*, %class.Domain** %this.addr, align 8
  %m_v = getelementptr inbounds %class.Domain, %class.Domain* %this1, i32 0, i32 43
  %0 = load i32, i32* %idx.addr, align 4, !tbaa !8
  %conv = sext i32 %0 to i64
  %call = call nonnull align 8 dereferenceable(8) double* @_ZNSt6vectorIdSaIdEEixEm(%"class.std::vector"* %m_v, i64 %conv) #3
  ret double* %call
}

; Function Attrs: nounwind uwtable
define linkonce_odr dso_local nonnull align 8 dereferenceable(8) double* @_ZN6Domain4delvEi(%class.Domain* %this, i32 %idx) #6 comdat align 2 {
entry:
  %this.addr = alloca %class.Domain*, align 8
  %idx.addr = alloca i32, align 4
  store %class.Domain* %this, %class.Domain** %this.addr, align 8, !tbaa !2
  store i32 %idx, i32* %idx.addr, align 4, !tbaa !8
  %this1 = load %class.Domain*, %class.Domain** %this.addr, align 8
  %m_delv = getelementptr inbounds %class.Domain, %class.Domain* %this1, i32 0, i32 46
  %0 = load i32, i32* %idx.addr, align 4, !tbaa !8
  %conv = sext i32 %0 to i64
  %call = call nonnull align 8 dereferenceable(8) double* @_ZNSt6vectorIdSaIdEEixEm(%"class.std::vector"* %m_delv, i64 %conv) #3
  ret double* %call
}

; Function Attrs: inlinehint uwtable
define internal double @_ZL28CalcElemCharacteristicLengthPKdS0_S0_d(double* %x, double* %y, double* %z, double %volume) #7 {
entry:
  %x.addr = alloca double*, align 8
  %y.addr = alloca double*, align 8
  %z.addr = alloca double*, align 8
  %volume.addr = alloca double, align 8
  %a = alloca double, align 8
  %charLength = alloca double, align 8
  store double* %x, double** %x.addr, align 8, !tbaa !2
  store double* %y, double** %y.addr, align 8, !tbaa !2
  store double* %z, double** %z.addr, align 8, !tbaa !2
  store double %volume, double* %volume.addr, align 8, !tbaa !6
  %0 = bitcast double* %a to i8*
  call void @llvm.lifetime.start.p0i8(i64 8, i8* %0) #3
  %1 = bitcast double* %charLength to i8*
  call void @llvm.lifetime.start.p0i8(i64 8, i8* %1) #3
  store double 0.000000e+00, double* %charLength, align 8, !tbaa !6
  %2 = load double*, double** %x.addr, align 8, !tbaa !2
  %arrayidx = getelementptr inbounds double, double* %2, i64 0
  %3 = load double, double* %arrayidx, align 8, !tbaa !6
  %4 = load double*, double** %x.addr, align 8, !tbaa !2
  %arrayidx1 = getelementptr inbounds double, double* %4, i64 1
  %5 = load double, double* %arrayidx1, align 8, !tbaa !6
  %6 = load double*, double** %x.addr, align 8, !tbaa !2
  %arrayidx2 = getelementptr inbounds double, double* %6, i64 2
  %7 = load double, double* %arrayidx2, align 8, !tbaa !6
  %8 = load double*, double** %x.addr, align 8, !tbaa !2
  %arrayidx3 = getelementptr inbounds double, double* %8, i64 3
  %9 = load double, double* %arrayidx3, align 8, !tbaa !6
  %10 = load double*, double** %y.addr, align 8, !tbaa !2
  %arrayidx4 = getelementptr inbounds double, double* %10, i64 0
  %11 = load double, double* %arrayidx4, align 8, !tbaa !6
  %12 = load double*, double** %y.addr, align 8, !tbaa !2
  %arrayidx5 = getelementptr inbounds double, double* %12, i64 1
  %13 = load double, double* %arrayidx5, align 8, !tbaa !6
  %14 = load double*, double** %y.addr, align 8, !tbaa !2
  %arrayidx6 = getelementptr inbounds double, double* %14, i64 2
  %15 = load double, double* %arrayidx6, align 8, !tbaa !6
  %16 = load double*, double** %y.addr, align 8, !tbaa !2
  %arrayidx7 = getelementptr inbounds double, double* %16, i64 3
  %17 = load double, double* %arrayidx7, align 8, !tbaa !6
  %18 = load double*, double** %z.addr, align 8, !tbaa !2
  %arrayidx8 = getelementptr inbounds double, double* %18, i64 0
  %19 = load double, double* %arrayidx8, align 8, !tbaa !6
  %20 = load double*, double** %z.addr, align 8, !tbaa !2
  %arrayidx9 = getelementptr inbounds double, double* %20, i64 1
  %21 = load double, double* %arrayidx9, align 8, !tbaa !6
  %22 = load double*, double** %z.addr, align 8, !tbaa !2
  %arrayidx10 = getelementptr inbounds double, double* %22, i64 2
  %23 = load double, double* %arrayidx10, align 8, !tbaa !6
  %24 = load double*, double** %z.addr, align 8, !tbaa !2
  %arrayidx11 = getelementptr inbounds double, double* %24, i64 3
  %25 = load double, double* %arrayidx11, align 8, !tbaa !6
  %call = call double @_ZL8AreaFacedddddddddddd(double %3, double %5, double %7, double %9, double %11, double %13, double %15, double %17, double %19, double %21, double %23, double %25)
  store double %call, double* %a, align 8, !tbaa !6
  %call12 = call nonnull align 8 dereferenceable(8) double* @_ZSt3maxIdERKT_S2_S2_(double* nonnull align 8 dereferenceable(8) %a, double* nonnull align 8 dereferenceable(8) %charLength)
  %26 = load double, double* %call12, align 8, !tbaa !6
  store double %26, double* %charLength, align 8, !tbaa !6
  %27 = load double*, double** %x.addr, align 8, !tbaa !2
  %arrayidx13 = getelementptr inbounds double, double* %27, i64 4
  %28 = load double, double* %arrayidx13, align 8, !tbaa !6
  %29 = load double*, double** %x.addr, align 8, !tbaa !2
  %arrayidx14 = getelementptr inbounds double, double* %29, i64 5
  %30 = load double, double* %arrayidx14, align 8, !tbaa !6
  %31 = load double*, double** %x.addr, align 8, !tbaa !2
  %arrayidx15 = getelementptr inbounds double, double* %31, i64 6
  %32 = load double, double* %arrayidx15, align 8, !tbaa !6
  %33 = load double*, double** %x.addr, align 8, !tbaa !2
  %arrayidx16 = getelementptr inbounds double, double* %33, i64 7
  %34 = load double, double* %arrayidx16, align 8, !tbaa !6
  %35 = load double*, double** %y.addr, align 8, !tbaa !2
  %arrayidx17 = getelementptr inbounds double, double* %35, i64 4
  %36 = load double, double* %arrayidx17, align 8, !tbaa !6
  %37 = load double*, double** %y.addr, align 8, !tbaa !2
  %arrayidx18 = getelementptr inbounds double, double* %37, i64 5
  %38 = load double, double* %arrayidx18, align 8, !tbaa !6
  %39 = load double*, double** %y.addr, align 8, !tbaa !2
  %arrayidx19 = getelementptr inbounds double, double* %39, i64 6
  %40 = load double, double* %arrayidx19, align 8, !tbaa !6
  %41 = load double*, double** %y.addr, align 8, !tbaa !2
  %arrayidx20 = getelementptr inbounds double, double* %41, i64 7
  %42 = load double, double* %arrayidx20, align 8, !tbaa !6
  %43 = load double*, double** %z.addr, align 8, !tbaa !2
  %arrayidx21 = getelementptr inbounds double, double* %43, i64 4
  %44 = load double, double* %arrayidx21, align 8, !tbaa !6
  %45 = load double*, double** %z.addr, align 8, !tbaa !2
  %arrayidx22 = getelementptr inbounds double, double* %45, i64 5
  %46 = load double, double* %arrayidx22, align 8, !tbaa !6
  %47 = load double*, double** %z.addr, align 8, !tbaa !2
  %arrayidx23 = getelementptr inbounds double, double* %47, i64 6
  %48 = load double, double* %arrayidx23, align 8, !tbaa !6
  %49 = load double*, double** %z.addr, align 8, !tbaa !2
  %arrayidx24 = getelementptr inbounds double, double* %49, i64 7
  %50 = load double, double* %arrayidx24, align 8, !tbaa !6
  %call25 = call double @_ZL8AreaFacedddddddddddd(double %28, double %30, double %32, double %34, double %36, double %38, double %40, double %42, double %44, double %46, double %48, double %50)
  store double %call25, double* %a, align 8, !tbaa !6
  %call26 = call nonnull align 8 dereferenceable(8) double* @_ZSt3maxIdERKT_S2_S2_(double* nonnull align 8 dereferenceable(8) %a, double* nonnull align 8 dereferenceable(8) %charLength)
  %51 = load double, double* %call26, align 8, !tbaa !6
  store double %51, double* %charLength, align 8, !tbaa !6
  %52 = load double*, double** %x.addr, align 8, !tbaa !2
  %arrayidx27 = getelementptr inbounds double, double* %52, i64 0
  %53 = load double, double* %arrayidx27, align 8, !tbaa !6
  %54 = load double*, double** %x.addr, align 8, !tbaa !2
  %arrayidx28 = getelementptr inbounds double, double* %54, i64 1
  %55 = load double, double* %arrayidx28, align 8, !tbaa !6
  %56 = load double*, double** %x.addr, align 8, !tbaa !2
  %arrayidx29 = getelementptr inbounds double, double* %56, i64 5
  %57 = load double, double* %arrayidx29, align 8, !tbaa !6
  %58 = load double*, double** %x.addr, align 8, !tbaa !2
  %arrayidx30 = getelementptr inbounds double, double* %58, i64 4
  %59 = load double, double* %arrayidx30, align 8, !tbaa !6
  %60 = load double*, double** %y.addr, align 8, !tbaa !2
  %arrayidx31 = getelementptr inbounds double, double* %60, i64 0
  %61 = load double, double* %arrayidx31, align 8, !tbaa !6
  %62 = load double*, double** %y.addr, align 8, !tbaa !2
  %arrayidx32 = getelementptr inbounds double, double* %62, i64 1
  %63 = load double, double* %arrayidx32, align 8, !tbaa !6
  %64 = load double*, double** %y.addr, align 8, !tbaa !2
  %arrayidx33 = getelementptr inbounds double, double* %64, i64 5
  %65 = load double, double* %arrayidx33, align 8, !tbaa !6
  %66 = load double*, double** %y.addr, align 8, !tbaa !2
  %arrayidx34 = getelementptr inbounds double, double* %66, i64 4
  %67 = load double, double* %arrayidx34, align 8, !tbaa !6
  %68 = load double*, double** %z.addr, align 8, !tbaa !2
  %arrayidx35 = getelementptr inbounds double, double* %68, i64 0
  %69 = load double, double* %arrayidx35, align 8, !tbaa !6
  %70 = load double*, double** %z.addr, align 8, !tbaa !2
  %arrayidx36 = getelementptr inbounds double, double* %70, i64 1
  %71 = load double, double* %arrayidx36, align 8, !tbaa !6
  %72 = load double*, double** %z.addr, align 8, !tbaa !2
  %arrayidx37 = getelementptr inbounds double, double* %72, i64 5
  %73 = load double, double* %arrayidx37, align 8, !tbaa !6
  %74 = load double*, double** %z.addr, align 8, !tbaa !2
  %arrayidx38 = getelementptr inbounds double, double* %74, i64 4
  %75 = load double, double* %arrayidx38, align 8, !tbaa !6
  %call39 = call double @_ZL8AreaFacedddddddddddd(double %53, double %55, double %57, double %59, double %61, double %63, double %65, double %67, double %69, double %71, double %73, double %75)
  store double %call39, double* %a, align 8, !tbaa !6
  %call40 = call nonnull align 8 dereferenceable(8) double* @_ZSt3maxIdERKT_S2_S2_(double* nonnull align 8 dereferenceable(8) %a, double* nonnull align 8 dereferenceable(8) %charLength)
  %76 = load double, double* %call40, align 8, !tbaa !6
  store double %76, double* %charLength, align 8, !tbaa !6
  %77 = load double*, double** %x.addr, align 8, !tbaa !2
  %arrayidx41 = getelementptr inbounds double, double* %77, i64 1
  %78 = load double, double* %arrayidx41, align 8, !tbaa !6
  %79 = load double*, double** %x.addr, align 8, !tbaa !2
  %arrayidx42 = getelementptr inbounds double, double* %79, i64 2
  %80 = load double, double* %arrayidx42, align 8, !tbaa !6
  %81 = load double*, double** %x.addr, align 8, !tbaa !2
  %arrayidx43 = getelementptr inbounds double, double* %81, i64 6
  %82 = load double, double* %arrayidx43, align 8, !tbaa !6
  %83 = load double*, double** %x.addr, align 8, !tbaa !2
  %arrayidx44 = getelementptr inbounds double, double* %83, i64 5
  %84 = load double, double* %arrayidx44, align 8, !tbaa !6
  %85 = load double*, double** %y.addr, align 8, !tbaa !2
  %arrayidx45 = getelementptr inbounds double, double* %85, i64 1
  %86 = load double, double* %arrayidx45, align 8, !tbaa !6
  %87 = load double*, double** %y.addr, align 8, !tbaa !2
  %arrayidx46 = getelementptr inbounds double, double* %87, i64 2
  %88 = load double, double* %arrayidx46, align 8, !tbaa !6
  %89 = load double*, double** %y.addr, align 8, !tbaa !2
  %arrayidx47 = getelementptr inbounds double, double* %89, i64 6
  %90 = load double, double* %arrayidx47, align 8, !tbaa !6
  %91 = load double*, double** %y.addr, align 8, !tbaa !2
  %arrayidx48 = getelementptr inbounds double, double* %91, i64 5
  %92 = load double, double* %arrayidx48, align 8, !tbaa !6
  %93 = load double*, double** %z.addr, align 8, !tbaa !2
  %arrayidx49 = getelementptr inbounds double, double* %93, i64 1
  %94 = load double, double* %arrayidx49, align 8, !tbaa !6
  %95 = load double*, double** %z.addr, align 8, !tbaa !2
  %arrayidx50 = getelementptr inbounds double, double* %95, i64 2
  %96 = load double, double* %arrayidx50, align 8, !tbaa !6
  %97 = load double*, double** %z.addr, align 8, !tbaa !2
  %arrayidx51 = getelementptr inbounds double, double* %97, i64 6
  %98 = load double, double* %arrayidx51, align 8, !tbaa !6
  %99 = load double*, double** %z.addr, align 8, !tbaa !2
  %arrayidx52 = getelementptr inbounds double, double* %99, i64 5
  %100 = load double, double* %arrayidx52, align 8, !tbaa !6
  %call53 = call double @_ZL8AreaFacedddddddddddd(double %78, double %80, double %82, double %84, double %86, double %88, double %90, double %92, double %94, double %96, double %98, double %100)
  store double %call53, double* %a, align 8, !tbaa !6
  %call54 = call nonnull align 8 dereferenceable(8) double* @_ZSt3maxIdERKT_S2_S2_(double* nonnull align 8 dereferenceable(8) %a, double* nonnull align 8 dereferenceable(8) %charLength)
  %101 = load double, double* %call54, align 8, !tbaa !6
  store double %101, double* %charLength, align 8, !tbaa !6
  %102 = load double*, double** %x.addr, align 8, !tbaa !2
  %arrayidx55 = getelementptr inbounds double, double* %102, i64 2
  %103 = load double, double* %arrayidx55, align 8, !tbaa !6
  %104 = load double*, double** %x.addr, align 8, !tbaa !2
  %arrayidx56 = getelementptr inbounds double, double* %104, i64 3
  %105 = load double, double* %arrayidx56, align 8, !tbaa !6
  %106 = load double*, double** %x.addr, align 8, !tbaa !2
  %arrayidx57 = getelementptr inbounds double, double* %106, i64 7
  %107 = load double, double* %arrayidx57, align 8, !tbaa !6
  %108 = load double*, double** %x.addr, align 8, !tbaa !2
  %arrayidx58 = getelementptr inbounds double, double* %108, i64 6
  %109 = load double, double* %arrayidx58, align 8, !tbaa !6
  %110 = load double*, double** %y.addr, align 8, !tbaa !2
  %arrayidx59 = getelementptr inbounds double, double* %110, i64 2
  %111 = load double, double* %arrayidx59, align 8, !tbaa !6
  %112 = load double*, double** %y.addr, align 8, !tbaa !2
  %arrayidx60 = getelementptr inbounds double, double* %112, i64 3
  %113 = load double, double* %arrayidx60, align 8, !tbaa !6
  %114 = load double*, double** %y.addr, align 8, !tbaa !2
  %arrayidx61 = getelementptr inbounds double, double* %114, i64 7
  %115 = load double, double* %arrayidx61, align 8, !tbaa !6
  %116 = load double*, double** %y.addr, align 8, !tbaa !2
  %arrayidx62 = getelementptr inbounds double, double* %116, i64 6
  %117 = load double, double* %arrayidx62, align 8, !tbaa !6
  %118 = load double*, double** %z.addr, align 8, !tbaa !2
  %arrayidx63 = getelementptr inbounds double, double* %118, i64 2
  %119 = load double, double* %arrayidx63, align 8, !tbaa !6
  %120 = load double*, double** %z.addr, align 8, !tbaa !2
  %arrayidx64 = getelementptr inbounds double, double* %120, i64 3
  %121 = load double, double* %arrayidx64, align 8, !tbaa !6
  %122 = load double*, double** %z.addr, align 8, !tbaa !2
  %arrayidx65 = getelementptr inbounds double, double* %122, i64 7
  %123 = load double, double* %arrayidx65, align 8, !tbaa !6
  %124 = load double*, double** %z.addr, align 8, !tbaa !2
  %arrayidx66 = getelementptr inbounds double, double* %124, i64 6
  %125 = load double, double* %arrayidx66, align 8, !tbaa !6
  %call67 = call double @_ZL8AreaFacedddddddddddd(double %103, double %105, double %107, double %109, double %111, double %113, double %115, double %117, double %119, double %121, double %123, double %125)
  store double %call67, double* %a, align 8, !tbaa !6
  %call68 = call nonnull align 8 dereferenceable(8) double* @_ZSt3maxIdERKT_S2_S2_(double* nonnull align 8 dereferenceable(8) %a, double* nonnull align 8 dereferenceable(8) %charLength)
  %126 = load double, double* %call68, align 8, !tbaa !6
  store double %126, double* %charLength, align 8, !tbaa !6
  %127 = load double*, double** %x.addr, align 8, !tbaa !2
  %arrayidx69 = getelementptr inbounds double, double* %127, i64 3
  %128 = load double, double* %arrayidx69, align 8, !tbaa !6
  %129 = load double*, double** %x.addr, align 8, !tbaa !2
  %arrayidx70 = getelementptr inbounds double, double* %129, i64 0
  %130 = load double, double* %arrayidx70, align 8, !tbaa !6
  %131 = load double*, double** %x.addr, align 8, !tbaa !2
  %arrayidx71 = getelementptr inbounds double, double* %131, i64 4
  %132 = load double, double* %arrayidx71, align 8, !tbaa !6
  %133 = load double*, double** %x.addr, align 8, !tbaa !2
  %arrayidx72 = getelementptr inbounds double, double* %133, i64 7
  %134 = load double, double* %arrayidx72, align 8, !tbaa !6
  %135 = load double*, double** %y.addr, align 8, !tbaa !2
  %arrayidx73 = getelementptr inbounds double, double* %135, i64 3
  %136 = load double, double* %arrayidx73, align 8, !tbaa !6
  %137 = load double*, double** %y.addr, align 8, !tbaa !2
  %arrayidx74 = getelementptr inbounds double, double* %137, i64 0
  %138 = load double, double* %arrayidx74, align 8, !tbaa !6
  %139 = load double*, double** %y.addr, align 8, !tbaa !2
  %arrayidx75 = getelementptr inbounds double, double* %139, i64 4
  %140 = load double, double* %arrayidx75, align 8, !tbaa !6
  %141 = load double*, double** %y.addr, align 8, !tbaa !2
  %arrayidx76 = getelementptr inbounds double, double* %141, i64 7
  %142 = load double, double* %arrayidx76, align 8, !tbaa !6
  %143 = load double*, double** %z.addr, align 8, !tbaa !2
  %arrayidx77 = getelementptr inbounds double, double* %143, i64 3
  %144 = load double, double* %arrayidx77, align 8, !tbaa !6
  %145 = load double*, double** %z.addr, align 8, !tbaa !2
  %arrayidx78 = getelementptr inbounds double, double* %145, i64 0
  %146 = load double, double* %arrayidx78, align 8, !tbaa !6
  %147 = load double*, double** %z.addr, align 8, !tbaa !2
  %arrayidx79 = getelementptr inbounds double, double* %147, i64 4
  %148 = load double, double* %arrayidx79, align 8, !tbaa !6
  %149 = load double*, double** %z.addr, align 8, !tbaa !2
  %arrayidx80 = getelementptr inbounds double, double* %149, i64 7
  %150 = load double, double* %arrayidx80, align 8, !tbaa !6
  %call81 = call double @_ZL8AreaFacedddddddddddd(double %128, double %130, double %132, double %134, double %136, double %138, double %140, double %142, double %144, double %146, double %148, double %150)
  store double %call81, double* %a, align 8, !tbaa !6
  %call82 = call nonnull align 8 dereferenceable(8) double* @_ZSt3maxIdERKT_S2_S2_(double* nonnull align 8 dereferenceable(8) %a, double* nonnull align 8 dereferenceable(8) %charLength)
  %151 = load double, double* %call82, align 8, !tbaa !6
  store double %151, double* %charLength, align 8, !tbaa !6
  %152 = load double, double* %volume.addr, align 8, !tbaa !6
  %mul = fmul double 4.000000e+00, %152
  %153 = load double, double* %charLength, align 8, !tbaa !6
  %call83 = call double @_Z4SQRTd(double %153)
  %div = fdiv double %mul, %call83
  store double %div, double* %charLength, align 8, !tbaa !6
  %154 = load double, double* %charLength, align 8, !tbaa !6
  %155 = bitcast double* %charLength to i8*
  call void @llvm.lifetime.end.p0i8(i64 8, i8* %155) #3
  %156 = bitcast double* %a to i8*
  call void @llvm.lifetime.end.p0i8(i64 8, i8* %156) #3
  ret double %154
}

; Function Attrs: nounwind uwtable
define linkonce_odr dso_local nonnull align 8 dereferenceable(8) double* @_ZN6Domain6arealgEi(%class.Domain* %this, i32 %idx) #6 comdat align 2 {
entry:
  %this.addr = alloca %class.Domain*, align 8
  %idx.addr = alloca i32, align 4
  store %class.Domain* %this, %class.Domain** %this.addr, align 8, !tbaa !2
  store i32 %idx, i32* %idx.addr, align 4, !tbaa !8
  %this1 = load %class.Domain*, %class.Domain** %this.addr, align 8
  %m_arealg = getelementptr inbounds %class.Domain, %class.Domain* %this1, i32 0, i32 48
  %0 = load i32, i32* %idx.addr, align 4, !tbaa !8
  %conv = sext i32 %0 to i64
  %call = call nonnull align 8 dereferenceable(8) double* @_ZNSt6vectorIdSaIdEEixEm(%"class.std::vector"* %m_arealg, i64 %conv) #3
  ret double* %call
}

; Function Attrs: nounwind uwtable
define linkonce_odr dso_local nonnull align 8 dereferenceable(8) double* @_ZN6Domain2xdEi(%class.Domain* %this, i32 %idx) #6 comdat align 2 {
entry:
  %this.addr = alloca %class.Domain*, align 8
  %idx.addr = alloca i32, align 4
  store %class.Domain* %this, %class.Domain** %this.addr, align 8, !tbaa !2
  store i32 %idx, i32* %idx.addr, align 4, !tbaa !8
  %this1 = load %class.Domain*, %class.Domain** %this.addr, align 8
  %m_xd = getelementptr inbounds %class.Domain, %class.Domain* %this1, i32 0, i32 3
  %0 = load i32, i32* %idx.addr, align 4, !tbaa !8
  %conv = sext i32 %0 to i64
  %call = call nonnull align 8 dereferenceable(8) double* @_ZNSt6vectorIdSaIdEEixEm(%"class.std::vector"* %m_xd, i64 %conv) #3
  ret double* %call
}

; Function Attrs: nounwind uwtable
define linkonce_odr dso_local nonnull align 8 dereferenceable(8) double* @_ZN6Domain2ydEi(%class.Domain* %this, i32 %idx) #6 comdat align 2 {
entry:
  %this.addr = alloca %class.Domain*, align 8
  %idx.addr = alloca i32, align 4
  store %class.Domain* %this, %class.Domain** %this.addr, align 8, !tbaa !2
  store i32 %idx, i32* %idx.addr, align 4, !tbaa !8
  %this1 = load %class.Domain*, %class.Domain** %this.addr, align 8
  %m_yd = getelementptr inbounds %class.Domain, %class.Domain* %this1, i32 0, i32 4
  %0 = load i32, i32* %idx.addr, align 4, !tbaa !8
  %conv = sext i32 %0 to i64
  %call = call nonnull align 8 dereferenceable(8) double* @_ZNSt6vectorIdSaIdEEixEm(%"class.std::vector"* %m_yd, i64 %conv) #3
  ret double* %call
}

; Function Attrs: nounwind uwtable
define linkonce_odr dso_local nonnull align 8 dereferenceable(8) double* @_ZN6Domain2zdEi(%class.Domain* %this, i32 %idx) #6 comdat align 2 {
entry:
  %this.addr = alloca %class.Domain*, align 8
  %idx.addr = alloca i32, align 4
  store %class.Domain* %this, %class.Domain** %this.addr, align 8, !tbaa !2
  store i32 %idx, i32* %idx.addr, align 4, !tbaa !8
  %this1 = load %class.Domain*, %class.Domain** %this.addr, align 8
  %m_zd = getelementptr inbounds %class.Domain, %class.Domain* %this1, i32 0, i32 5
  %0 = load i32, i32* %idx.addr, align 4, !tbaa !8
  %conv = sext i32 %0 to i64
  %call = call nonnull align 8 dereferenceable(8) double* @_ZNSt6vectorIdSaIdEEixEm(%"class.std::vector"* %m_zd, i64 %conv) #3
  ret double* %call
}

; Function Attrs: argmemonly nounwind willreturn
declare void @llvm.lifetime.end.p0i8(i64 immarg, i8* nocapture) #5

; Function Attrs: inlinehint nounwind uwtable
define internal void @_ZL32CalcElemShapeFunctionDerivativesPKdS0_S0_PA8_dPd(double* %x, double* %y, double* %z, [8 x double]* %b, double* %volume) #4 {
entry:
  %x.addr = alloca double*, align 8
  %y.addr = alloca double*, align 8
  %z.addr = alloca double*, align 8
  %b.addr = alloca [8 x double]*, align 8
  %volume.addr = alloca double*, align 8
  %x0 = alloca double, align 8
  %x1 = alloca double, align 8
  %x2 = alloca double, align 8
  %x3 = alloca double, align 8
  %x4 = alloca double, align 8
  %x5 = alloca double, align 8
  %x6 = alloca double, align 8
  %x7 = alloca double, align 8
  %y0 = alloca double, align 8
  %y1 = alloca double, align 8
  %y2 = alloca double, align 8
  %y3 = alloca double, align 8
  %y4 = alloca double, align 8
  %y5 = alloca double, align 8
  %y6 = alloca double, align 8
  %y7 = alloca double, align 8
  %z0 = alloca double, align 8
  %z1 = alloca double, align 8
  %z2 = alloca double, align 8
  %z3 = alloca double, align 8
  %z4 = alloca double, align 8
  %z5 = alloca double, align 8
  %z6 = alloca double, align 8
  %z7 = alloca double, align 8
  %fjxxi = alloca double, align 8
  %fjxet = alloca double, align 8
  %fjxze = alloca double, align 8
  %fjyxi = alloca double, align 8
  %fjyet = alloca double, align 8
  %fjyze = alloca double, align 8
  %fjzxi = alloca double, align 8
  %fjzet = alloca double, align 8
  %fjzze = alloca double, align 8
  %cjxxi = alloca double, align 8
  %cjxet = alloca double, align 8
  %cjxze = alloca double, align 8
  %cjyxi = alloca double, align 8
  %cjyet = alloca double, align 8
  %cjyze = alloca double, align 8
  %cjzxi = alloca double, align 8
  %cjzet = alloca double, align 8
  %cjzze = alloca double, align 8
  store double* %x, double** %x.addr, align 8, !tbaa !2
  store double* %y, double** %y.addr, align 8, !tbaa !2
  store double* %z, double** %z.addr, align 8, !tbaa !2
  store [8 x double]* %b, [8 x double]** %b.addr, align 8, !tbaa !2
  store double* %volume, double** %volume.addr, align 8, !tbaa !2
  %0 = bitcast double* %x0 to i8*
  call void @llvm.lifetime.start.p0i8(i64 8, i8* %0) #3
  %1 = load double*, double** %x.addr, align 8, !tbaa !2
  %arrayidx = getelementptr inbounds double, double* %1, i64 0
  %2 = load double, double* %arrayidx, align 8, !tbaa !6
  store double %2, double* %x0, align 8, !tbaa !6
  %3 = bitcast double* %x1 to i8*
  call void @llvm.lifetime.start.p0i8(i64 8, i8* %3) #3
  %4 = load double*, double** %x.addr, align 8, !tbaa !2
  %arrayidx1 = getelementptr inbounds double, double* %4, i64 1
  %5 = load double, double* %arrayidx1, align 8, !tbaa !6
  store double %5, double* %x1, align 8, !tbaa !6
  %6 = bitcast double* %x2 to i8*
  call void @llvm.lifetime.start.p0i8(i64 8, i8* %6) #3
  %7 = load double*, double** %x.addr, align 8, !tbaa !2
  %arrayidx2 = getelementptr inbounds double, double* %7, i64 2
  %8 = load double, double* %arrayidx2, align 8, !tbaa !6
  store double %8, double* %x2, align 8, !tbaa !6
  %9 = bitcast double* %x3 to i8*
  call void @llvm.lifetime.start.p0i8(i64 8, i8* %9) #3
  %10 = load double*, double** %x.addr, align 8, !tbaa !2
  %arrayidx3 = getelementptr inbounds double, double* %10, i64 3
  %11 = load double, double* %arrayidx3, align 8, !tbaa !6
  store double %11, double* %x3, align 8, !tbaa !6
  %12 = bitcast double* %x4 to i8*
  call void @llvm.lifetime.start.p0i8(i64 8, i8* %12) #3
  %13 = load double*, double** %x.addr, align 8, !tbaa !2
  %arrayidx4 = getelementptr inbounds double, double* %13, i64 4
  %14 = load double, double* %arrayidx4, align 8, !tbaa !6
  store double %14, double* %x4, align 8, !tbaa !6
  %15 = bitcast double* %x5 to i8*
  call void @llvm.lifetime.start.p0i8(i64 8, i8* %15) #3
  %16 = load double*, double** %x.addr, align 8, !tbaa !2
  %arrayidx5 = getelementptr inbounds double, double* %16, i64 5
  %17 = load double, double* %arrayidx5, align 8, !tbaa !6
  store double %17, double* %x5, align 8, !tbaa !6
  %18 = bitcast double* %x6 to i8*
  call void @llvm.lifetime.start.p0i8(i64 8, i8* %18) #3
  %19 = load double*, double** %x.addr, align 8, !tbaa !2
  %arrayidx6 = getelementptr inbounds double, double* %19, i64 6
  %20 = load double, double* %arrayidx6, align 8, !tbaa !6
  store double %20, double* %x6, align 8, !tbaa !6
  %21 = bitcast double* %x7 to i8*
  call void @llvm.lifetime.start.p0i8(i64 8, i8* %21) #3
  %22 = load double*, double** %x.addr, align 8, !tbaa !2
  %arrayidx7 = getelementptr inbounds double, double* %22, i64 7
  %23 = load double, double* %arrayidx7, align 8, !tbaa !6
  store double %23, double* %x7, align 8, !tbaa !6
  %24 = bitcast double* %y0 to i8*
  call void @llvm.lifetime.start.p0i8(i64 8, i8* %24) #3
  %25 = load double*, double** %y.addr, align 8, !tbaa !2
  %arrayidx8 = getelementptr inbounds double, double* %25, i64 0
  %26 = load double, double* %arrayidx8, align 8, !tbaa !6
  store double %26, double* %y0, align 8, !tbaa !6
  %27 = bitcast double* %y1 to i8*
  call void @llvm.lifetime.start.p0i8(i64 8, i8* %27) #3
  %28 = load double*, double** %y.addr, align 8, !tbaa !2
  %arrayidx9 = getelementptr inbounds double, double* %28, i64 1
  %29 = load double, double* %arrayidx9, align 8, !tbaa !6
  store double %29, double* %y1, align 8, !tbaa !6
  %30 = bitcast double* %y2 to i8*
  call void @llvm.lifetime.start.p0i8(i64 8, i8* %30) #3
  %31 = load double*, double** %y.addr, align 8, !tbaa !2
  %arrayidx10 = getelementptr inbounds double, double* %31, i64 2
  %32 = load double, double* %arrayidx10, align 8, !tbaa !6
  store double %32, double* %y2, align 8, !tbaa !6
  %33 = bitcast double* %y3 to i8*
  call void @llvm.lifetime.start.p0i8(i64 8, i8* %33) #3
  %34 = load double*, double** %y.addr, align 8, !tbaa !2
  %arrayidx11 = getelementptr inbounds double, double* %34, i64 3
  %35 = load double, double* %arrayidx11, align 8, !tbaa !6
  store double %35, double* %y3, align 8, !tbaa !6
  %36 = bitcast double* %y4 to i8*
  call void @llvm.lifetime.start.p0i8(i64 8, i8* %36) #3
  %37 = load double*, double** %y.addr, align 8, !tbaa !2
  %arrayidx12 = getelementptr inbounds double, double* %37, i64 4
  %38 = load double, double* %arrayidx12, align 8, !tbaa !6
  store double %38, double* %y4, align 8, !tbaa !6
  %39 = bitcast double* %y5 to i8*
  call void @llvm.lifetime.start.p0i8(i64 8, i8* %39) #3
  %40 = load double*, double** %y.addr, align 8, !tbaa !2
  %arrayidx13 = getelementptr inbounds double, double* %40, i64 5
  %41 = load double, double* %arrayidx13, align 8, !tbaa !6
  store double %41, double* %y5, align 8, !tbaa !6
  %42 = bitcast double* %y6 to i8*
  call void @llvm.lifetime.start.p0i8(i64 8, i8* %42) #3
  %43 = load double*, double** %y.addr, align 8, !tbaa !2
  %arrayidx14 = getelementptr inbounds double, double* %43, i64 6
  %44 = load double, double* %arrayidx14, align 8, !tbaa !6
  store double %44, double* %y6, align 8, !tbaa !6
  %45 = bitcast double* %y7 to i8*
  call void @llvm.lifetime.start.p0i8(i64 8, i8* %45) #3
  %46 = load double*, double** %y.addr, align 8, !tbaa !2
  %arrayidx15 = getelementptr inbounds double, double* %46, i64 7
  %47 = load double, double* %arrayidx15, align 8, !tbaa !6
  store double %47, double* %y7, align 8, !tbaa !6
  %48 = bitcast double* %z0 to i8*
  call void @llvm.lifetime.start.p0i8(i64 8, i8* %48) #3
  %49 = load double*, double** %z.addr, align 8, !tbaa !2
  %arrayidx16 = getelementptr inbounds double, double* %49, i64 0
  %50 = load double, double* %arrayidx16, align 8, !tbaa !6
  store double %50, double* %z0, align 8, !tbaa !6
  %51 = bitcast double* %z1 to i8*
  call void @llvm.lifetime.start.p0i8(i64 8, i8* %51) #3
  %52 = load double*, double** %z.addr, align 8, !tbaa !2
  %arrayidx17 = getelementptr inbounds double, double* %52, i64 1
  %53 = load double, double* %arrayidx17, align 8, !tbaa !6
  store double %53, double* %z1, align 8, !tbaa !6
  %54 = bitcast double* %z2 to i8*
  call void @llvm.lifetime.start.p0i8(i64 8, i8* %54) #3
  %55 = load double*, double** %z.addr, align 8, !tbaa !2
  %arrayidx18 = getelementptr inbounds double, double* %55, i64 2
  %56 = load double, double* %arrayidx18, align 8, !tbaa !6
  store double %56, double* %z2, align 8, !tbaa !6
  %57 = bitcast double* %z3 to i8*
  call void @llvm.lifetime.start.p0i8(i64 8, i8* %57) #3
  %58 = load double*, double** %z.addr, align 8, !tbaa !2
  %arrayidx19 = getelementptr inbounds double, double* %58, i64 3
  %59 = load double, double* %arrayidx19, align 8, !tbaa !6
  store double %59, double* %z3, align 8, !tbaa !6
  %60 = bitcast double* %z4 to i8*
  call void @llvm.lifetime.start.p0i8(i64 8, i8* %60) #3
  %61 = load double*, double** %z.addr, align 8, !tbaa !2
  %arrayidx20 = getelementptr inbounds double, double* %61, i64 4
  %62 = load double, double* %arrayidx20, align 8, !tbaa !6
  store double %62, double* %z4, align 8, !tbaa !6
  %63 = bitcast double* %z5 to i8*
  call void @llvm.lifetime.start.p0i8(i64 8, i8* %63) #3
  %64 = load double*, double** %z.addr, align 8, !tbaa !2
  %arrayidx21 = getelementptr inbounds double, double* %64, i64 5
  %65 = load double, double* %arrayidx21, align 8, !tbaa !6
  store double %65, double* %z5, align 8, !tbaa !6
  %66 = bitcast double* %z6 to i8*
  call void @llvm.lifetime.start.p0i8(i64 8, i8* %66) #3
  %67 = load double*, double** %z.addr, align 8, !tbaa !2
  %arrayidx22 = getelementptr inbounds double, double* %67, i64 6
  %68 = load double, double* %arrayidx22, align 8, !tbaa !6
  store double %68, double* %z6, align 8, !tbaa !6
  %69 = bitcast double* %z7 to i8*
  call void @llvm.lifetime.start.p0i8(i64 8, i8* %69) #3
  %70 = load double*, double** %z.addr, align 8, !tbaa !2
  %arrayidx23 = getelementptr inbounds double, double* %70, i64 7
  %71 = load double, double* %arrayidx23, align 8, !tbaa !6
  store double %71, double* %z7, align 8, !tbaa !6
  %72 = bitcast double* %fjxxi to i8*
  call void @llvm.lifetime.start.p0i8(i64 8, i8* %72) #3
  %73 = bitcast double* %fjxet to i8*
  call void @llvm.lifetime.start.p0i8(i64 8, i8* %73) #3
  %74 = bitcast double* %fjxze to i8*
  call void @llvm.lifetime.start.p0i8(i64 8, i8* %74) #3
  %75 = bitcast double* %fjyxi to i8*
  call void @llvm.lifetime.start.p0i8(i64 8, i8* %75) #3
  %76 = bitcast double* %fjyet to i8*
  call void @llvm.lifetime.start.p0i8(i64 8, i8* %76) #3
  %77 = bitcast double* %fjyze to i8*
  call void @llvm.lifetime.start.p0i8(i64 8, i8* %77) #3
  %78 = bitcast double* %fjzxi to i8*
  call void @llvm.lifetime.start.p0i8(i64 8, i8* %78) #3
  %79 = bitcast double* %fjzet to i8*
  call void @llvm.lifetime.start.p0i8(i64 8, i8* %79) #3
  %80 = bitcast double* %fjzze to i8*
  call void @llvm.lifetime.start.p0i8(i64 8, i8* %80) #3
  %81 = bitcast double* %cjxxi to i8*
  call void @llvm.lifetime.start.p0i8(i64 8, i8* %81) #3
  %82 = bitcast double* %cjxet to i8*
  call void @llvm.lifetime.start.p0i8(i64 8, i8* %82) #3
  %83 = bitcast double* %cjxze to i8*
  call void @llvm.lifetime.start.p0i8(i64 8, i8* %83) #3
  %84 = bitcast double* %cjyxi to i8*
  call void @llvm.lifetime.start.p0i8(i64 8, i8* %84) #3
  %85 = bitcast double* %cjyet to i8*
  call void @llvm.lifetime.start.p0i8(i64 8, i8* %85) #3
  %86 = bitcast double* %cjyze to i8*
  call void @llvm.lifetime.start.p0i8(i64 8, i8* %86) #3
  %87 = bitcast double* %cjzxi to i8*
  call void @llvm.lifetime.start.p0i8(i64 8, i8* %87) #3
  %88 = bitcast double* %cjzet to i8*
  call void @llvm.lifetime.start.p0i8(i64 8, i8* %88) #3
  %89 = bitcast double* %cjzze to i8*
  call void @llvm.lifetime.start.p0i8(i64 8, i8* %89) #3
  %90 = load double, double* %x6, align 8, !tbaa !6
  %91 = load double, double* %x0, align 8, !tbaa !6
  %sub = fsub double %90, %91
  %92 = load double, double* %x5, align 8, !tbaa !6
  %93 = load double, double* %x3, align 8, !tbaa !6
  %sub24 = fsub double %92, %93
  %add = fadd double %sub, %sub24
  %94 = load double, double* %x7, align 8, !tbaa !6
  %95 = load double, double* %x1, align 8, !tbaa !6
  %sub25 = fsub double %94, %95
  %sub26 = fsub double %add, %sub25
  %96 = load double, double* %x4, align 8, !tbaa !6
  %97 = load double, double* %x2, align 8, !tbaa !6
  %sub27 = fsub double %96, %97
  %sub28 = fsub double %sub26, %sub27
  %mul = fmul double 1.250000e-01, %sub28
  store double %mul, double* %fjxxi, align 8, !tbaa !6
  %98 = load double, double* %x6, align 8, !tbaa !6
  %99 = load double, double* %x0, align 8, !tbaa !6
  %sub29 = fsub double %98, %99
  %100 = load double, double* %x5, align 8, !tbaa !6
  %101 = load double, double* %x3, align 8, !tbaa !6
  %sub30 = fsub double %100, %101
  %sub31 = fsub double %sub29, %sub30
  %102 = load double, double* %x7, align 8, !tbaa !6
  %103 = load double, double* %x1, align 8, !tbaa !6
  %sub32 = fsub double %102, %103
  %add33 = fadd double %sub31, %sub32
  %104 = load double, double* %x4, align 8, !tbaa !6
  %105 = load double, double* %x2, align 8, !tbaa !6
  %sub34 = fsub double %104, %105
  %sub35 = fsub double %add33, %sub34
  %mul36 = fmul double 1.250000e-01, %sub35
  store double %mul36, double* %fjxet, align 8, !tbaa !6
  %106 = load double, double* %x6, align 8, !tbaa !6
  %107 = load double, double* %x0, align 8, !tbaa !6
  %sub37 = fsub double %106, %107
  %108 = load double, double* %x5, align 8, !tbaa !6
  %109 = load double, double* %x3, align 8, !tbaa !6
  %sub38 = fsub double %108, %109
  %add39 = fadd double %sub37, %sub38
  %110 = load double, double* %x7, align 8, !tbaa !6
  %111 = load double, double* %x1, align 8, !tbaa !6
  %sub40 = fsub double %110, %111
  %add41 = fadd double %add39, %sub40
  %112 = load double, double* %x4, align 8, !tbaa !6
  %113 = load double, double* %x2, align 8, !tbaa !6
  %sub42 = fsub double %112, %113
  %add43 = fadd double %add41, %sub42
  %mul44 = fmul double 1.250000e-01, %add43
  store double %mul44, double* %fjxze, align 8, !tbaa !6
  %114 = load double, double* %y6, align 8, !tbaa !6
  %115 = load double, double* %y0, align 8, !tbaa !6
  %sub45 = fsub double %114, %115
  %116 = load double, double* %y5, align 8, !tbaa !6
  %117 = load double, double* %y3, align 8, !tbaa !6
  %sub46 = fsub double %116, %117
  %add47 = fadd double %sub45, %sub46
  %118 = load double, double* %y7, align 8, !tbaa !6
  %119 = load double, double* %y1, align 8, !tbaa !6
  %sub48 = fsub double %118, %119
  %sub49 = fsub double %add47, %sub48
  %120 = load double, double* %y4, align 8, !tbaa !6
  %121 = load double, double* %y2, align 8, !tbaa !6
  %sub50 = fsub double %120, %121
  %sub51 = fsub double %sub49, %sub50
  %mul52 = fmul double 1.250000e-01, %sub51
  store double %mul52, double* %fjyxi, align 8, !tbaa !6
  %122 = load double, double* %y6, align 8, !tbaa !6
  %123 = load double, double* %y0, align 8, !tbaa !6
  %sub53 = fsub double %122, %123
  %124 = load double, double* %y5, align 8, !tbaa !6
  %125 = load double, double* %y3, align 8, !tbaa !6
  %sub54 = fsub double %124, %125
  %sub55 = fsub double %sub53, %sub54
  %126 = load double, double* %y7, align 8, !tbaa !6
  %127 = load double, double* %y1, align 8, !tbaa !6
  %sub56 = fsub double %126, %127
  %add57 = fadd double %sub55, %sub56
  %128 = load double, double* %y4, align 8, !tbaa !6
  %129 = load double, double* %y2, align 8, !tbaa !6
  %sub58 = fsub double %128, %129
  %sub59 = fsub double %add57, %sub58
  %mul60 = fmul double 1.250000e-01, %sub59
  store double %mul60, double* %fjyet, align 8, !tbaa !6
  %130 = load double, double* %y6, align 8, !tbaa !6
  %131 = load double, double* %y0, align 8, !tbaa !6
  %sub61 = fsub double %130, %131
  %132 = load double, double* %y5, align 8, !tbaa !6
  %133 = load double, double* %y3, align 8, !tbaa !6
  %sub62 = fsub double %132, %133
  %add63 = fadd double %sub61, %sub62
  %134 = load double, double* %y7, align 8, !tbaa !6
  %135 = load double, double* %y1, align 8, !tbaa !6
  %sub64 = fsub double %134, %135
  %add65 = fadd double %add63, %sub64
  %136 = load double, double* %y4, align 8, !tbaa !6
  %137 = load double, double* %y2, align 8, !tbaa !6
  %sub66 = fsub double %136, %137
  %add67 = fadd double %add65, %sub66
  %mul68 = fmul double 1.250000e-01, %add67
  store double %mul68, double* %fjyze, align 8, !tbaa !6
  %138 = load double, double* %z6, align 8, !tbaa !6
  %139 = load double, double* %z0, align 8, !tbaa !6
  %sub69 = fsub double %138, %139
  %140 = load double, double* %z5, align 8, !tbaa !6
  %141 = load double, double* %z3, align 8, !tbaa !6
  %sub70 = fsub double %140, %141
  %add71 = fadd double %sub69, %sub70
  %142 = load double, double* %z7, align 8, !tbaa !6
  %143 = load double, double* %z1, align 8, !tbaa !6
  %sub72 = fsub double %142, %143
  %sub73 = fsub double %add71, %sub72
  %144 = load double, double* %z4, align 8, !tbaa !6
  %145 = load double, double* %z2, align 8, !tbaa !6
  %sub74 = fsub double %144, %145
  %sub75 = fsub double %sub73, %sub74
  %mul76 = fmul double 1.250000e-01, %sub75
  store double %mul76, double* %fjzxi, align 8, !tbaa !6
  %146 = load double, double* %z6, align 8, !tbaa !6
  %147 = load double, double* %z0, align 8, !tbaa !6
  %sub77 = fsub double %146, %147
  %148 = load double, double* %z5, align 8, !tbaa !6
  %149 = load double, double* %z3, align 8, !tbaa !6
  %sub78 = fsub double %148, %149
  %sub79 = fsub double %sub77, %sub78
  %150 = load double, double* %z7, align 8, !tbaa !6
  %151 = load double, double* %z1, align 8, !tbaa !6
  %sub80 = fsub double %150, %151
  %add81 = fadd double %sub79, %sub80
  %152 = load double, double* %z4, align 8, !tbaa !6
  %153 = load double, double* %z2, align 8, !tbaa !6
  %sub82 = fsub double %152, %153
  %sub83 = fsub double %add81, %sub82
  %mul84 = fmul double 1.250000e-01, %sub83
  store double %mul84, double* %fjzet, align 8, !tbaa !6
  %154 = load double, double* %z6, align 8, !tbaa !6
  %155 = load double, double* %z0, align 8, !tbaa !6
  %sub85 = fsub double %154, %155
  %156 = load double, double* %z5, align 8, !tbaa !6
  %157 = load double, double* %z3, align 8, !tbaa !6
  %sub86 = fsub double %156, %157
  %add87 = fadd double %sub85, %sub86
  %158 = load double, double* %z7, align 8, !tbaa !6
  %159 = load double, double* %z1, align 8, !tbaa !6
  %sub88 = fsub double %158, %159
  %add89 = fadd double %add87, %sub88
  %160 = load double, double* %z4, align 8, !tbaa !6
  %161 = load double, double* %z2, align 8, !tbaa !6
  %sub90 = fsub double %160, %161
  %add91 = fadd double %add89, %sub90
  %mul92 = fmul double 1.250000e-01, %add91
  store double %mul92, double* %fjzze, align 8, !tbaa !6
  %162 = load double, double* %fjyet, align 8, !tbaa !6
  %163 = load double, double* %fjzze, align 8, !tbaa !6
  %mul93 = fmul double %162, %163
  %164 = load double, double* %fjzet, align 8, !tbaa !6
  %165 = load double, double* %fjyze, align 8, !tbaa !6
  %mul94 = fmul double %164, %165
  %sub95 = fsub double %mul93, %mul94
  store double %sub95, double* %cjxxi, align 8, !tbaa !6
  %166 = load double, double* %fjyxi, align 8, !tbaa !6
  %167 = load double, double* %fjzze, align 8, !tbaa !6
  %mul96 = fmul double %166, %167
  %fneg = fneg double %mul96
  %168 = load double, double* %fjzxi, align 8, !tbaa !6
  %169 = load double, double* %fjyze, align 8, !tbaa !6
  %mul97 = fmul double %168, %169
  %add98 = fadd double %fneg, %mul97
  store double %add98, double* %cjxet, align 8, !tbaa !6
  %170 = load double, double* %fjyxi, align 8, !tbaa !6
  %171 = load double, double* %fjzet, align 8, !tbaa !6
  %mul99 = fmul double %170, %171
  %172 = load double, double* %fjzxi, align 8, !tbaa !6
  %173 = load double, double* %fjyet, align 8, !tbaa !6
  %mul100 = fmul double %172, %173
  %sub101 = fsub double %mul99, %mul100
  store double %sub101, double* %cjxze, align 8, !tbaa !6
  %174 = load double, double* %fjxet, align 8, !tbaa !6
  %175 = load double, double* %fjzze, align 8, !tbaa !6
  %mul102 = fmul double %174, %175
  %fneg103 = fneg double %mul102
  %176 = load double, double* %fjzet, align 8, !tbaa !6
  %177 = load double, double* %fjxze, align 8, !tbaa !6
  %mul104 = fmul double %176, %177
  %add105 = fadd double %fneg103, %mul104
  store double %add105, double* %cjyxi, align 8, !tbaa !6
  %178 = load double, double* %fjxxi, align 8, !tbaa !6
  %179 = load double, double* %fjzze, align 8, !tbaa !6
  %mul106 = fmul double %178, %179
  %180 = load double, double* %fjzxi, align 8, !tbaa !6
  %181 = load double, double* %fjxze, align 8, !tbaa !6
  %mul107 = fmul double %180, %181
  %sub108 = fsub double %mul106, %mul107
  store double %sub108, double* %cjyet, align 8, !tbaa !6
  %182 = load double, double* %fjxxi, align 8, !tbaa !6
  %183 = load double, double* %fjzet, align 8, !tbaa !6
  %mul109 = fmul double %182, %183
  %fneg110 = fneg double %mul109
  %184 = load double, double* %fjzxi, align 8, !tbaa !6
  %185 = load double, double* %fjxet, align 8, !tbaa !6
  %mul111 = fmul double %184, %185
  %add112 = fadd double %fneg110, %mul111
  store double %add112, double* %cjyze, align 8, !tbaa !6
  %186 = load double, double* %fjxet, align 8, !tbaa !6
  %187 = load double, double* %fjyze, align 8, !tbaa !6
  %mul113 = fmul double %186, %187
  %188 = load double, double* %fjyet, align 8, !tbaa !6
  %189 = load double, double* %fjxze, align 8, !tbaa !6
  %mul114 = fmul double %188, %189
  %sub115 = fsub double %mul113, %mul114
  store double %sub115, double* %cjzxi, align 8, !tbaa !6
  %190 = load double, double* %fjxxi, align 8, !tbaa !6
  %191 = load double, double* %fjyze, align 8, !tbaa !6
  %mul116 = fmul double %190, %191
  %fneg117 = fneg double %mul116
  %192 = load double, double* %fjyxi, align 8, !tbaa !6
  %193 = load double, double* %fjxze, align 8, !tbaa !6
  %mul118 = fmul double %192, %193
  %add119 = fadd double %fneg117, %mul118
  store double %add119, double* %cjzet, align 8, !tbaa !6
  %194 = load double, double* %fjxxi, align 8, !tbaa !6
  %195 = load double, double* %fjyet, align 8, !tbaa !6
  %mul120 = fmul double %194, %195
  %196 = load double, double* %fjyxi, align 8, !tbaa !6
  %197 = load double, double* %fjxet, align 8, !tbaa !6
  %mul121 = fmul double %196, %197
  %sub122 = fsub double %mul120, %mul121
  store double %sub122, double* %cjzze, align 8, !tbaa !6
  %198 = load double, double* %cjxxi, align 8, !tbaa !6
  %fneg123 = fneg double %198
  %199 = load double, double* %cjxet, align 8, !tbaa !6
  %sub124 = fsub double %fneg123, %199
  %200 = load double, double* %cjxze, align 8, !tbaa !6
  %sub125 = fsub double %sub124, %200
  %201 = load [8 x double]*, [8 x double]** %b.addr, align 8, !tbaa !2
  %arrayidx126 = getelementptr inbounds [8 x double], [8 x double]* %201, i64 0
  %arrayidx127 = getelementptr inbounds [8 x double], [8 x double]* %arrayidx126, i64 0, i64 0
  store double %sub125, double* %arrayidx127, align 8, !tbaa !6
  %202 = load double, double* %cjxxi, align 8, !tbaa !6
  %203 = load double, double* %cjxet, align 8, !tbaa !6
  %sub128 = fsub double %202, %203
  %204 = load double, double* %cjxze, align 8, !tbaa !6
  %sub129 = fsub double %sub128, %204
  %205 = load [8 x double]*, [8 x double]** %b.addr, align 8, !tbaa !2
  %arrayidx130 = getelementptr inbounds [8 x double], [8 x double]* %205, i64 0
  %arrayidx131 = getelementptr inbounds [8 x double], [8 x double]* %arrayidx130, i64 0, i64 1
  store double %sub129, double* %arrayidx131, align 8, !tbaa !6
  %206 = load double, double* %cjxxi, align 8, !tbaa !6
  %207 = load double, double* %cjxet, align 8, !tbaa !6
  %add132 = fadd double %206, %207
  %208 = load double, double* %cjxze, align 8, !tbaa !6
  %sub133 = fsub double %add132, %208
  %209 = load [8 x double]*, [8 x double]** %b.addr, align 8, !tbaa !2
  %arrayidx134 = getelementptr inbounds [8 x double], [8 x double]* %209, i64 0
  %arrayidx135 = getelementptr inbounds [8 x double], [8 x double]* %arrayidx134, i64 0, i64 2
  store double %sub133, double* %arrayidx135, align 8, !tbaa !6
  %210 = load double, double* %cjxxi, align 8, !tbaa !6
  %fneg136 = fneg double %210
  %211 = load double, double* %cjxet, align 8, !tbaa !6
  %add137 = fadd double %fneg136, %211
  %212 = load double, double* %cjxze, align 8, !tbaa !6
  %sub138 = fsub double %add137, %212
  %213 = load [8 x double]*, [8 x double]** %b.addr, align 8, !tbaa !2
  %arrayidx139 = getelementptr inbounds [8 x double], [8 x double]* %213, i64 0
  %arrayidx140 = getelementptr inbounds [8 x double], [8 x double]* %arrayidx139, i64 0, i64 3
  store double %sub138, double* %arrayidx140, align 8, !tbaa !6
  %214 = load [8 x double]*, [8 x double]** %b.addr, align 8, !tbaa !2
  %arrayidx141 = getelementptr inbounds [8 x double], [8 x double]* %214, i64 0
  %arrayidx142 = getelementptr inbounds [8 x double], [8 x double]* %arrayidx141, i64 0, i64 2
  %215 = load double, double* %arrayidx142, align 8, !tbaa !6
  %fneg143 = fneg double %215
  %216 = load [8 x double]*, [8 x double]** %b.addr, align 8, !tbaa !2
  %arrayidx144 = getelementptr inbounds [8 x double], [8 x double]* %216, i64 0
  %arrayidx145 = getelementptr inbounds [8 x double], [8 x double]* %arrayidx144, i64 0, i64 4
  store double %fneg143, double* %arrayidx145, align 8, !tbaa !6
  %217 = load [8 x double]*, [8 x double]** %b.addr, align 8, !tbaa !2
  %arrayidx146 = getelementptr inbounds [8 x double], [8 x double]* %217, i64 0
  %arrayidx147 = getelementptr inbounds [8 x double], [8 x double]* %arrayidx146, i64 0, i64 3
  %218 = load double, double* %arrayidx147, align 8, !tbaa !6
  %fneg148 = fneg double %218
  %219 = load [8 x double]*, [8 x double]** %b.addr, align 8, !tbaa !2
  %arrayidx149 = getelementptr inbounds [8 x double], [8 x double]* %219, i64 0
  %arrayidx150 = getelementptr inbounds [8 x double], [8 x double]* %arrayidx149, i64 0, i64 5
  store double %fneg148, double* %arrayidx150, align 8, !tbaa !6
  %220 = load [8 x double]*, [8 x double]** %b.addr, align 8, !tbaa !2
  %arrayidx151 = getelementptr inbounds [8 x double], [8 x double]* %220, i64 0
  %arrayidx152 = getelementptr inbounds [8 x double], [8 x double]* %arrayidx151, i64 0, i64 0
  %221 = load double, double* %arrayidx152, align 8, !tbaa !6
  %fneg153 = fneg double %221
  %222 = load [8 x double]*, [8 x double]** %b.addr, align 8, !tbaa !2
  %arrayidx154 = getelementptr inbounds [8 x double], [8 x double]* %222, i64 0
  %arrayidx155 = getelementptr inbounds [8 x double], [8 x double]* %arrayidx154, i64 0, i64 6
  store double %fneg153, double* %arrayidx155, align 8, !tbaa !6
  %223 = load [8 x double]*, [8 x double]** %b.addr, align 8, !tbaa !2
  %arrayidx156 = getelementptr inbounds [8 x double], [8 x double]* %223, i64 0
  %arrayidx157 = getelementptr inbounds [8 x double], [8 x double]* %arrayidx156, i64 0, i64 1
  %224 = load double, double* %arrayidx157, align 8, !tbaa !6
  %fneg158 = fneg double %224
  %225 = load [8 x double]*, [8 x double]** %b.addr, align 8, !tbaa !2
  %arrayidx159 = getelementptr inbounds [8 x double], [8 x double]* %225, i64 0
  %arrayidx160 = getelementptr inbounds [8 x double], [8 x double]* %arrayidx159, i64 0, i64 7
  store double %fneg158, double* %arrayidx160, align 8, !tbaa !6
  %226 = load double, double* %cjyxi, align 8, !tbaa !6
  %fneg161 = fneg double %226
  %227 = load double, double* %cjyet, align 8, !tbaa !6
  %sub162 = fsub double %fneg161, %227
  %228 = load double, double* %cjyze, align 8, !tbaa !6
  %sub163 = fsub double %sub162, %228
  %229 = load [8 x double]*, [8 x double]** %b.addr, align 8, !tbaa !2
  %arrayidx164 = getelementptr inbounds [8 x double], [8 x double]* %229, i64 1
  %arrayidx165 = getelementptr inbounds [8 x double], [8 x double]* %arrayidx164, i64 0, i64 0
  store double %sub163, double* %arrayidx165, align 8, !tbaa !6
  %230 = load double, double* %cjyxi, align 8, !tbaa !6
  %231 = load double, double* %cjyet, align 8, !tbaa !6
  %sub166 = fsub double %230, %231
  %232 = load double, double* %cjyze, align 8, !tbaa !6
  %sub167 = fsub double %sub166, %232
  %233 = load [8 x double]*, [8 x double]** %b.addr, align 8, !tbaa !2
  %arrayidx168 = getelementptr inbounds [8 x double], [8 x double]* %233, i64 1
  %arrayidx169 = getelementptr inbounds [8 x double], [8 x double]* %arrayidx168, i64 0, i64 1
  store double %sub167, double* %arrayidx169, align 8, !tbaa !6
  %234 = load double, double* %cjyxi, align 8, !tbaa !6
  %235 = load double, double* %cjyet, align 8, !tbaa !6
  %add170 = fadd double %234, %235
  %236 = load double, double* %cjyze, align 8, !tbaa !6
  %sub171 = fsub double %add170, %236
  %237 = load [8 x double]*, [8 x double]** %b.addr, align 8, !tbaa !2
  %arrayidx172 = getelementptr inbounds [8 x double], [8 x double]* %237, i64 1
  %arrayidx173 = getelementptr inbounds [8 x double], [8 x double]* %arrayidx172, i64 0, i64 2
  store double %sub171, double* %arrayidx173, align 8, !tbaa !6
  %238 = load double, double* %cjyxi, align 8, !tbaa !6
  %fneg174 = fneg double %238
  %239 = load double, double* %cjyet, align 8, !tbaa !6
  %add175 = fadd double %fneg174, %239
  %240 = load double, double* %cjyze, align 8, !tbaa !6
  %sub176 = fsub double %add175, %240
  %241 = load [8 x double]*, [8 x double]** %b.addr, align 8, !tbaa !2
  %arrayidx177 = getelementptr inbounds [8 x double], [8 x double]* %241, i64 1
  %arrayidx178 = getelementptr inbounds [8 x double], [8 x double]* %arrayidx177, i64 0, i64 3
  store double %sub176, double* %arrayidx178, align 8, !tbaa !6
  %242 = load [8 x double]*, [8 x double]** %b.addr, align 8, !tbaa !2
  %arrayidx179 = getelementptr inbounds [8 x double], [8 x double]* %242, i64 1
  %arrayidx180 = getelementptr inbounds [8 x double], [8 x double]* %arrayidx179, i64 0, i64 2
  %243 = load double, double* %arrayidx180, align 8, !tbaa !6
  %fneg181 = fneg double %243
  %244 = load [8 x double]*, [8 x double]** %b.addr, align 8, !tbaa !2
  %arrayidx182 = getelementptr inbounds [8 x double], [8 x double]* %244, i64 1
  %arrayidx183 = getelementptr inbounds [8 x double], [8 x double]* %arrayidx182, i64 0, i64 4
  store double %fneg181, double* %arrayidx183, align 8, !tbaa !6
  %245 = load [8 x double]*, [8 x double]** %b.addr, align 8, !tbaa !2
  %arrayidx184 = getelementptr inbounds [8 x double], [8 x double]* %245, i64 1
  %arrayidx185 = getelementptr inbounds [8 x double], [8 x double]* %arrayidx184, i64 0, i64 3
  %246 = load double, double* %arrayidx185, align 8, !tbaa !6
  %fneg186 = fneg double %246
  %247 = load [8 x double]*, [8 x double]** %b.addr, align 8, !tbaa !2
  %arrayidx187 = getelementptr inbounds [8 x double], [8 x double]* %247, i64 1
  %arrayidx188 = getelementptr inbounds [8 x double], [8 x double]* %arrayidx187, i64 0, i64 5
  store double %fneg186, double* %arrayidx188, align 8, !tbaa !6
  %248 = load [8 x double]*, [8 x double]** %b.addr, align 8, !tbaa !2
  %arrayidx189 = getelementptr inbounds [8 x double], [8 x double]* %248, i64 1
  %arrayidx190 = getelementptr inbounds [8 x double], [8 x double]* %arrayidx189, i64 0, i64 0
  %249 = load double, double* %arrayidx190, align 8, !tbaa !6
  %fneg191 = fneg double %249
  %250 = load [8 x double]*, [8 x double]** %b.addr, align 8, !tbaa !2
  %arrayidx192 = getelementptr inbounds [8 x double], [8 x double]* %250, i64 1
  %arrayidx193 = getelementptr inbounds [8 x double], [8 x double]* %arrayidx192, i64 0, i64 6
  store double %fneg191, double* %arrayidx193, align 8, !tbaa !6
  %251 = load [8 x double]*, [8 x double]** %b.addr, align 8, !tbaa !2
  %arrayidx194 = getelementptr inbounds [8 x double], [8 x double]* %251, i64 1
  %arrayidx195 = getelementptr inbounds [8 x double], [8 x double]* %arrayidx194, i64 0, i64 1
  %252 = load double, double* %arrayidx195, align 8, !tbaa !6
  %fneg196 = fneg double %252
  %253 = load [8 x double]*, [8 x double]** %b.addr, align 8, !tbaa !2
  %arrayidx197 = getelementptr inbounds [8 x double], [8 x double]* %253, i64 1
  %arrayidx198 = getelementptr inbounds [8 x double], [8 x double]* %arrayidx197, i64 0, i64 7
  store double %fneg196, double* %arrayidx198, align 8, !tbaa !6
  %254 = load double, double* %cjzxi, align 8, !tbaa !6
  %fneg199 = fneg double %254
  %255 = load double, double* %cjzet, align 8, !tbaa !6
  %sub200 = fsub double %fneg199, %255
  %256 = load double, double* %cjzze, align 8, !tbaa !6
  %sub201 = fsub double %sub200, %256
  %257 = load [8 x double]*, [8 x double]** %b.addr, align 8, !tbaa !2
  %arrayidx202 = getelementptr inbounds [8 x double], [8 x double]* %257, i64 2
  %arrayidx203 = getelementptr inbounds [8 x double], [8 x double]* %arrayidx202, i64 0, i64 0
  store double %sub201, double* %arrayidx203, align 8, !tbaa !6
  %258 = load double, double* %cjzxi, align 8, !tbaa !6
  %259 = load double, double* %cjzet, align 8, !tbaa !6
  %sub204 = fsub double %258, %259
  %260 = load double, double* %cjzze, align 8, !tbaa !6
  %sub205 = fsub double %sub204, %260
  %261 = load [8 x double]*, [8 x double]** %b.addr, align 8, !tbaa !2
  %arrayidx206 = getelementptr inbounds [8 x double], [8 x double]* %261, i64 2
  %arrayidx207 = getelementptr inbounds [8 x double], [8 x double]* %arrayidx206, i64 0, i64 1
  store double %sub205, double* %arrayidx207, align 8, !tbaa !6
  %262 = load double, double* %cjzxi, align 8, !tbaa !6
  %263 = load double, double* %cjzet, align 8, !tbaa !6
  %add208 = fadd double %262, %263
  %264 = load double, double* %cjzze, align 8, !tbaa !6
  %sub209 = fsub double %add208, %264
  %265 = load [8 x double]*, [8 x double]** %b.addr, align 8, !tbaa !2
  %arrayidx210 = getelementptr inbounds [8 x double], [8 x double]* %265, i64 2
  %arrayidx211 = getelementptr inbounds [8 x double], [8 x double]* %arrayidx210, i64 0, i64 2
  store double %sub209, double* %arrayidx211, align 8, !tbaa !6
  %266 = load double, double* %cjzxi, align 8, !tbaa !6
  %fneg212 = fneg double %266
  %267 = load double, double* %cjzet, align 8, !tbaa !6
  %add213 = fadd double %fneg212, %267
  %268 = load double, double* %cjzze, align 8, !tbaa !6
  %sub214 = fsub double %add213, %268
  %269 = load [8 x double]*, [8 x double]** %b.addr, align 8, !tbaa !2
  %arrayidx215 = getelementptr inbounds [8 x double], [8 x double]* %269, i64 2
  %arrayidx216 = getelementptr inbounds [8 x double], [8 x double]* %arrayidx215, i64 0, i64 3
  store double %sub214, double* %arrayidx216, align 8, !tbaa !6
  %270 = load [8 x double]*, [8 x double]** %b.addr, align 8, !tbaa !2
  %arrayidx217 = getelementptr inbounds [8 x double], [8 x double]* %270, i64 2
  %arrayidx218 = getelementptr inbounds [8 x double], [8 x double]* %arrayidx217, i64 0, i64 2
  %271 = load double, double* %arrayidx218, align 8, !tbaa !6
  %fneg219 = fneg double %271
  %272 = load [8 x double]*, [8 x double]** %b.addr, align 8, !tbaa !2
  %arrayidx220 = getelementptr inbounds [8 x double], [8 x double]* %272, i64 2
  %arrayidx221 = getelementptr inbounds [8 x double], [8 x double]* %arrayidx220, i64 0, i64 4
  store double %fneg219, double* %arrayidx221, align 8, !tbaa !6
  %273 = load [8 x double]*, [8 x double]** %b.addr, align 8, !tbaa !2
  %arrayidx222 = getelementptr inbounds [8 x double], [8 x double]* %273, i64 2
  %arrayidx223 = getelementptr inbounds [8 x double], [8 x double]* %arrayidx222, i64 0, i64 3
  %274 = load double, double* %arrayidx223, align 8, !tbaa !6
  %fneg224 = fneg double %274
  %275 = load [8 x double]*, [8 x double]** %b.addr, align 8, !tbaa !2
  %arrayidx225 = getelementptr inbounds [8 x double], [8 x double]* %275, i64 2
  %arrayidx226 = getelementptr inbounds [8 x double], [8 x double]* %arrayidx225, i64 0, i64 5
  store double %fneg224, double* %arrayidx226, align 8, !tbaa !6
  %276 = load [8 x double]*, [8 x double]** %b.addr, align 8, !tbaa !2
  %arrayidx227 = getelementptr inbounds [8 x double], [8 x double]* %276, i64 2
  %arrayidx228 = getelementptr inbounds [8 x double], [8 x double]* %arrayidx227, i64 0, i64 0
  %277 = load double, double* %arrayidx228, align 8, !tbaa !6
  %fneg229 = fneg double %277
  %278 = load [8 x double]*, [8 x double]** %b.addr, align 8, !tbaa !2
  %arrayidx230 = getelementptr inbounds [8 x double], [8 x double]* %278, i64 2
  %arrayidx231 = getelementptr inbounds [8 x double], [8 x double]* %arrayidx230, i64 0, i64 6
  store double %fneg229, double* %arrayidx231, align 8, !tbaa !6
  %279 = load [8 x double]*, [8 x double]** %b.addr, align 8, !tbaa !2
  %arrayidx232 = getelementptr inbounds [8 x double], [8 x double]* %279, i64 2
  %arrayidx233 = getelementptr inbounds [8 x double], [8 x double]* %arrayidx232, i64 0, i64 1
  %280 = load double, double* %arrayidx233, align 8, !tbaa !6
  %fneg234 = fneg double %280
  %281 = load [8 x double]*, [8 x double]** %b.addr, align 8, !tbaa !2
  %arrayidx235 = getelementptr inbounds [8 x double], [8 x double]* %281, i64 2
  %arrayidx236 = getelementptr inbounds [8 x double], [8 x double]* %arrayidx235, i64 0, i64 7
  store double %fneg234, double* %arrayidx236, align 8, !tbaa !6
  %282 = load double, double* %fjxet, align 8, !tbaa !6
  %283 = load double, double* %cjxet, align 8, !tbaa !6
  %mul237 = fmul double %282, %283
  %284 = load double, double* %fjyet, align 8, !tbaa !6
  %285 = load double, double* %cjyet, align 8, !tbaa !6
  %mul238 = fmul double %284, %285
  %add239 = fadd double %mul237, %mul238
  %286 = load double, double* %fjzet, align 8, !tbaa !6
  %287 = load double, double* %cjzet, align 8, !tbaa !6
  %mul240 = fmul double %286, %287
  %add241 = fadd double %add239, %mul240
  %mul242 = fmul double 8.000000e+00, %add241
  %288 = load double*, double** %volume.addr, align 8, !tbaa !2
  store double %mul242, double* %288, align 8, !tbaa !6
  %289 = bitcast double* %cjzze to i8*
  call void @llvm.lifetime.end.p0i8(i64 8, i8* %289) #3
  %290 = bitcast double* %cjzet to i8*
  call void @llvm.lifetime.end.p0i8(i64 8, i8* %290) #3
  %291 = bitcast double* %cjzxi to i8*
  call void @llvm.lifetime.end.p0i8(i64 8, i8* %291) #3
  %292 = bitcast double* %cjyze to i8*
  call void @llvm.lifetime.end.p0i8(i64 8, i8* %292) #3
  %293 = bitcast double* %cjyet to i8*
  call void @llvm.lifetime.end.p0i8(i64 8, i8* %293) #3
  %294 = bitcast double* %cjyxi to i8*
  call void @llvm.lifetime.end.p0i8(i64 8, i8* %294) #3
  %295 = bitcast double* %cjxze to i8*
  call void @llvm.lifetime.end.p0i8(i64 8, i8* %295) #3
  %296 = bitcast double* %cjxet to i8*
  call void @llvm.lifetime.end.p0i8(i64 8, i8* %296) #3
  %297 = bitcast double* %cjxxi to i8*
  call void @llvm.lifetime.end.p0i8(i64 8, i8* %297) #3
  %298 = bitcast double* %fjzze to i8*
  call void @llvm.lifetime.end.p0i8(i64 8, i8* %298) #3
  %299 = bitcast double* %fjzet to i8*
  call void @llvm.lifetime.end.p0i8(i64 8, i8* %299) #3
  %300 = bitcast double* %fjzxi to i8*
  call void @llvm.lifetime.end.p0i8(i64 8, i8* %300) #3
  %301 = bitcast double* %fjyze to i8*
  call void @llvm.lifetime.end.p0i8(i64 8, i8* %301) #3
  %302 = bitcast double* %fjyet to i8*
  call void @llvm.lifetime.end.p0i8(i64 8, i8* %302) #3
  %303 = bitcast double* %fjyxi to i8*
  call void @llvm.lifetime.end.p0i8(i64 8, i8* %303) #3
  %304 = bitcast double* %fjxze to i8*
  call void @llvm.lifetime.end.p0i8(i64 8, i8* %304) #3
  %305 = bitcast double* %fjxet to i8*
  call void @llvm.lifetime.end.p0i8(i64 8, i8* %305) #3
  %306 = bitcast double* %fjxxi to i8*
  call void @llvm.lifetime.end.p0i8(i64 8, i8* %306) #3
  %307 = bitcast double* %z7 to i8*
  call void @llvm.lifetime.end.p0i8(i64 8, i8* %307) #3
  %308 = bitcast double* %z6 to i8*
  call void @llvm.lifetime.end.p0i8(i64 8, i8* %308) #3
  %309 = bitcast double* %z5 to i8*
  call void @llvm.lifetime.end.p0i8(i64 8, i8* %309) #3
  %310 = bitcast double* %z4 to i8*
  call void @llvm.lifetime.end.p0i8(i64 8, i8* %310) #3
  %311 = bitcast double* %z3 to i8*
  call void @llvm.lifetime.end.p0i8(i64 8, i8* %311) #3
  %312 = bitcast double* %z2 to i8*
  call void @llvm.lifetime.end.p0i8(i64 8, i8* %312) #3
  %313 = bitcast double* %z1 to i8*
  call void @llvm.lifetime.end.p0i8(i64 8, i8* %313) #3
  %314 = bitcast double* %z0 to i8*
  call void @llvm.lifetime.end.p0i8(i64 8, i8* %314) #3
  %315 = bitcast double* %y7 to i8*
  call void @llvm.lifetime.end.p0i8(i64 8, i8* %315) #3
  %316 = bitcast double* %y6 to i8*
  call void @llvm.lifetime.end.p0i8(i64 8, i8* %316) #3
  %317 = bitcast double* %y5 to i8*
  call void @llvm.lifetime.end.p0i8(i64 8, i8* %317) #3
  %318 = bitcast double* %y4 to i8*
  call void @llvm.lifetime.end.p0i8(i64 8, i8* %318) #3
  %319 = bitcast double* %y3 to i8*
  call void @llvm.lifetime.end.p0i8(i64 8, i8* %319) #3
  %320 = bitcast double* %y2 to i8*
  call void @llvm.lifetime.end.p0i8(i64 8, i8* %320) #3
  %321 = bitcast double* %y1 to i8*
  call void @llvm.lifetime.end.p0i8(i64 8, i8* %321) #3
  %322 = bitcast double* %y0 to i8*
  call void @llvm.lifetime.end.p0i8(i64 8, i8* %322) #3
  %323 = bitcast double* %x7 to i8*
  call void @llvm.lifetime.end.p0i8(i64 8, i8* %323) #3
  %324 = bitcast double* %x6 to i8*
  call void @llvm.lifetime.end.p0i8(i64 8, i8* %324) #3
  %325 = bitcast double* %x5 to i8*
  call void @llvm.lifetime.end.p0i8(i64 8, i8* %325) #3
  %326 = bitcast double* %x4 to i8*
  call void @llvm.lifetime.end.p0i8(i64 8, i8* %326) #3
  %327 = bitcast double* %x3 to i8*
  call void @llvm.lifetime.end.p0i8(i64 8, i8* %327) #3
  %328 = bitcast double* %x2 to i8*
  call void @llvm.lifetime.end.p0i8(i64 8, i8* %328) #3
  %329 = bitcast double* %x1 to i8*
  call void @llvm.lifetime.end.p0i8(i64 8, i8* %329) #3
  %330 = bitcast double* %x0 to i8*
  call void @llvm.lifetime.end.p0i8(i64 8, i8* %330) #3
  ret void
}

; Function Attrs: inlinehint nounwind uwtable
define internal void @_ZL24CalcElemVelocityGradientPKdS0_S0_PA8_S_dPd(double* %xvel, double* %yvel, double* %zvel, [8 x double]* %b, double %detJ, double* %d) #4 {
entry:
  %xvel.addr = alloca double*, align 8
  %yvel.addr = alloca double*, align 8
  %zvel.addr = alloca double*, align 8
  %b.addr = alloca [8 x double]*, align 8
  %detJ.addr = alloca double, align 8
  %d.addr = alloca double*, align 8
  %inv_detJ = alloca double, align 8
  %dyddx = alloca double, align 8
  %dxddy = alloca double, align 8
  %dzddx = alloca double, align 8
  %dxddz = alloca double, align 8
  %dzddy = alloca double, align 8
  %dyddz = alloca double, align 8
  %pfx = alloca double*, align 8
  %pfy = alloca double*, align 8
  %pfz = alloca double*, align 8
  store double* %xvel, double** %xvel.addr, align 8, !tbaa !2
  store double* %yvel, double** %yvel.addr, align 8, !tbaa !2
  store double* %zvel, double** %zvel.addr, align 8, !tbaa !2
  store [8 x double]* %b, [8 x double]** %b.addr, align 8, !tbaa !2
  store double %detJ, double* %detJ.addr, align 8, !tbaa !6
  store double* %d, double** %d.addr, align 8, !tbaa !2
  %0 = bitcast double* %inv_detJ to i8*
  call void @llvm.lifetime.start.p0i8(i64 8, i8* %0) #3
  %1 = load double, double* %detJ.addr, align 8, !tbaa !6
  %div = fdiv double 1.000000e+00, %1
  store double %div, double* %inv_detJ, align 8, !tbaa !6
  %2 = bitcast double* %dyddx to i8*
  call void @llvm.lifetime.start.p0i8(i64 8, i8* %2) #3
  %3 = bitcast double* %dxddy to i8*
  call void @llvm.lifetime.start.p0i8(i64 8, i8* %3) #3
  %4 = bitcast double* %dzddx to i8*
  call void @llvm.lifetime.start.p0i8(i64 8, i8* %4) #3
  %5 = bitcast double* %dxddz to i8*
  call void @llvm.lifetime.start.p0i8(i64 8, i8* %5) #3
  %6 = bitcast double* %dzddy to i8*
  call void @llvm.lifetime.start.p0i8(i64 8, i8* %6) #3
  %7 = bitcast double* %dyddz to i8*
  call void @llvm.lifetime.start.p0i8(i64 8, i8* %7) #3
  %8 = bitcast double** %pfx to i8*
  call void @llvm.lifetime.start.p0i8(i64 8, i8* %8) #3
  %9 = load [8 x double]*, [8 x double]** %b.addr, align 8, !tbaa !2
  %arrayidx = getelementptr inbounds [8 x double], [8 x double]* %9, i64 0
  %arraydecay = getelementptr inbounds [8 x double], [8 x double]* %arrayidx, i64 0, i64 0
  store double* %arraydecay, double** %pfx, align 8, !tbaa !2
  %10 = bitcast double** %pfy to i8*
  call void @llvm.lifetime.start.p0i8(i64 8, i8* %10) #3
  %11 = load [8 x double]*, [8 x double]** %b.addr, align 8, !tbaa !2
  %arrayidx1 = getelementptr inbounds [8 x double], [8 x double]* %11, i64 1
  %arraydecay2 = getelementptr inbounds [8 x double], [8 x double]* %arrayidx1, i64 0, i64 0
  store double* %arraydecay2, double** %pfy, align 8, !tbaa !2
  %12 = bitcast double** %pfz to i8*
  call void @llvm.lifetime.start.p0i8(i64 8, i8* %12) #3
  %13 = load [8 x double]*, [8 x double]** %b.addr, align 8, !tbaa !2
  %arrayidx3 = getelementptr inbounds [8 x double], [8 x double]* %13, i64 2
  %arraydecay4 = getelementptr inbounds [8 x double], [8 x double]* %arrayidx3, i64 0, i64 0
  store double* %arraydecay4, double** %pfz, align 8, !tbaa !2
  %14 = load double, double* %inv_detJ, align 8, !tbaa !6
  %15 = load double*, double** %pfx, align 8, !tbaa !2
  %arrayidx5 = getelementptr inbounds double, double* %15, i64 0
  %16 = load double, double* %arrayidx5, align 8, !tbaa !6
  %17 = load double*, double** %xvel.addr, align 8, !tbaa !2
  %arrayidx6 = getelementptr inbounds double, double* %17, i64 0
  %18 = load double, double* %arrayidx6, align 8, !tbaa !6
  %19 = load double*, double** %xvel.addr, align 8, !tbaa !2
  %arrayidx7 = getelementptr inbounds double, double* %19, i64 6
  %20 = load double, double* %arrayidx7, align 8, !tbaa !6
  %sub = fsub double %18, %20
  %mul = fmul double %16, %sub
  %21 = load double*, double** %pfx, align 8, !tbaa !2
  %arrayidx8 = getelementptr inbounds double, double* %21, i64 1
  %22 = load double, double* %arrayidx8, align 8, !tbaa !6
  %23 = load double*, double** %xvel.addr, align 8, !tbaa !2
  %arrayidx9 = getelementptr inbounds double, double* %23, i64 1
  %24 = load double, double* %arrayidx9, align 8, !tbaa !6
  %25 = load double*, double** %xvel.addr, align 8, !tbaa !2
  %arrayidx10 = getelementptr inbounds double, double* %25, i64 7
  %26 = load double, double* %arrayidx10, align 8, !tbaa !6
  %sub11 = fsub double %24, %26
  %mul12 = fmul double %22, %sub11
  %add = fadd double %mul, %mul12
  %27 = load double*, double** %pfx, align 8, !tbaa !2
  %arrayidx13 = getelementptr inbounds double, double* %27, i64 2
  %28 = load double, double* %arrayidx13, align 8, !tbaa !6
  %29 = load double*, double** %xvel.addr, align 8, !tbaa !2
  %arrayidx14 = getelementptr inbounds double, double* %29, i64 2
  %30 = load double, double* %arrayidx14, align 8, !tbaa !6
  %31 = load double*, double** %xvel.addr, align 8, !tbaa !2
  %arrayidx15 = getelementptr inbounds double, double* %31, i64 4
  %32 = load double, double* %arrayidx15, align 8, !tbaa !6
  %sub16 = fsub double %30, %32
  %mul17 = fmul double %28, %sub16
  %add18 = fadd double %add, %mul17
  %33 = load double*, double** %pfx, align 8, !tbaa !2
  %arrayidx19 = getelementptr inbounds double, double* %33, i64 3
  %34 = load double, double* %arrayidx19, align 8, !tbaa !6
  %35 = load double*, double** %xvel.addr, align 8, !tbaa !2
  %arrayidx20 = getelementptr inbounds double, double* %35, i64 3
  %36 = load double, double* %arrayidx20, align 8, !tbaa !6
  %37 = load double*, double** %xvel.addr, align 8, !tbaa !2
  %arrayidx21 = getelementptr inbounds double, double* %37, i64 5
  %38 = load double, double* %arrayidx21, align 8, !tbaa !6
  %sub22 = fsub double %36, %38
  %mul23 = fmul double %34, %sub22
  %add24 = fadd double %add18, %mul23
  %mul25 = fmul double %14, %add24
  %39 = load double*, double** %d.addr, align 8, !tbaa !2
  %arrayidx26 = getelementptr inbounds double, double* %39, i64 0
  store double %mul25, double* %arrayidx26, align 8, !tbaa !6
  %40 = load double, double* %inv_detJ, align 8, !tbaa !6
  %41 = load double*, double** %pfy, align 8, !tbaa !2
  %arrayidx27 = getelementptr inbounds double, double* %41, i64 0
  %42 = load double, double* %arrayidx27, align 8, !tbaa !6
  %43 = load double*, double** %yvel.addr, align 8, !tbaa !2
  %arrayidx28 = getelementptr inbounds double, double* %43, i64 0
  %44 = load double, double* %arrayidx28, align 8, !tbaa !6
  %45 = load double*, double** %yvel.addr, align 8, !tbaa !2
  %arrayidx29 = getelementptr inbounds double, double* %45, i64 6
  %46 = load double, double* %arrayidx29, align 8, !tbaa !6
  %sub30 = fsub double %44, %46
  %mul31 = fmul double %42, %sub30
  %47 = load double*, double** %pfy, align 8, !tbaa !2
  %arrayidx32 = getelementptr inbounds double, double* %47, i64 1
  %48 = load double, double* %arrayidx32, align 8, !tbaa !6
  %49 = load double*, double** %yvel.addr, align 8, !tbaa !2
  %arrayidx33 = getelementptr inbounds double, double* %49, i64 1
  %50 = load double, double* %arrayidx33, align 8, !tbaa !6
  %51 = load double*, double** %yvel.addr, align 8, !tbaa !2
  %arrayidx34 = getelementptr inbounds double, double* %51, i64 7
  %52 = load double, double* %arrayidx34, align 8, !tbaa !6
  %sub35 = fsub double %50, %52
  %mul36 = fmul double %48, %sub35
  %add37 = fadd double %mul31, %mul36
  %53 = load double*, double** %pfy, align 8, !tbaa !2
  %arrayidx38 = getelementptr inbounds double, double* %53, i64 2
  %54 = load double, double* %arrayidx38, align 8, !tbaa !6
  %55 = load double*, double** %yvel.addr, align 8, !tbaa !2
  %arrayidx39 = getelementptr inbounds double, double* %55, i64 2
  %56 = load double, double* %arrayidx39, align 8, !tbaa !6
  %57 = load double*, double** %yvel.addr, align 8, !tbaa !2
  %arrayidx40 = getelementptr inbounds double, double* %57, i64 4
  %58 = load double, double* %arrayidx40, align 8, !tbaa !6
  %sub41 = fsub double %56, %58
  %mul42 = fmul double %54, %sub41
  %add43 = fadd double %add37, %mul42
  %59 = load double*, double** %pfy, align 8, !tbaa !2
  %arrayidx44 = getelementptr inbounds double, double* %59, i64 3
  %60 = load double, double* %arrayidx44, align 8, !tbaa !6
  %61 = load double*, double** %yvel.addr, align 8, !tbaa !2
  %arrayidx45 = getelementptr inbounds double, double* %61, i64 3
  %62 = load double, double* %arrayidx45, align 8, !tbaa !6
  %63 = load double*, double** %yvel.addr, align 8, !tbaa !2
  %arrayidx46 = getelementptr inbounds double, double* %63, i64 5
  %64 = load double, double* %arrayidx46, align 8, !tbaa !6
  %sub47 = fsub double %62, %64
  %mul48 = fmul double %60, %sub47
  %add49 = fadd double %add43, %mul48
  %mul50 = fmul double %40, %add49
  %65 = load double*, double** %d.addr, align 8, !tbaa !2
  %arrayidx51 = getelementptr inbounds double, double* %65, i64 1
  store double %mul50, double* %arrayidx51, align 8, !tbaa !6
  %66 = load double, double* %inv_detJ, align 8, !tbaa !6
  %67 = load double*, double** %pfz, align 8, !tbaa !2
  %arrayidx52 = getelementptr inbounds double, double* %67, i64 0
  %68 = load double, double* %arrayidx52, align 8, !tbaa !6
  %69 = load double*, double** %zvel.addr, align 8, !tbaa !2
  %arrayidx53 = getelementptr inbounds double, double* %69, i64 0
  %70 = load double, double* %arrayidx53, align 8, !tbaa !6
  %71 = load double*, double** %zvel.addr, align 8, !tbaa !2
  %arrayidx54 = getelementptr inbounds double, double* %71, i64 6
  %72 = load double, double* %arrayidx54, align 8, !tbaa !6
  %sub55 = fsub double %70, %72
  %mul56 = fmul double %68, %sub55
  %73 = load double*, double** %pfz, align 8, !tbaa !2
  %arrayidx57 = getelementptr inbounds double, double* %73, i64 1
  %74 = load double, double* %arrayidx57, align 8, !tbaa !6
  %75 = load double*, double** %zvel.addr, align 8, !tbaa !2
  %arrayidx58 = getelementptr inbounds double, double* %75, i64 1
  %76 = load double, double* %arrayidx58, align 8, !tbaa !6
  %77 = load double*, double** %zvel.addr, align 8, !tbaa !2
  %arrayidx59 = getelementptr inbounds double, double* %77, i64 7
  %78 = load double, double* %arrayidx59, align 8, !tbaa !6
  %sub60 = fsub double %76, %78
  %mul61 = fmul double %74, %sub60
  %add62 = fadd double %mul56, %mul61
  %79 = load double*, double** %pfz, align 8, !tbaa !2
  %arrayidx63 = getelementptr inbounds double, double* %79, i64 2
  %80 = load double, double* %arrayidx63, align 8, !tbaa !6
  %81 = load double*, double** %zvel.addr, align 8, !tbaa !2
  %arrayidx64 = getelementptr inbounds double, double* %81, i64 2
  %82 = load double, double* %arrayidx64, align 8, !tbaa !6
  %83 = load double*, double** %zvel.addr, align 8, !tbaa !2
  %arrayidx65 = getelementptr inbounds double, double* %83, i64 4
  %84 = load double, double* %arrayidx65, align 8, !tbaa !6
  %sub66 = fsub double %82, %84
  %mul67 = fmul double %80, %sub66
  %add68 = fadd double %add62, %mul67
  %85 = load double*, double** %pfz, align 8, !tbaa !2
  %arrayidx69 = getelementptr inbounds double, double* %85, i64 3
  %86 = load double, double* %arrayidx69, align 8, !tbaa !6
  %87 = load double*, double** %zvel.addr, align 8, !tbaa !2
  %arrayidx70 = getelementptr inbounds double, double* %87, i64 3
  %88 = load double, double* %arrayidx70, align 8, !tbaa !6
  %89 = load double*, double** %zvel.addr, align 8, !tbaa !2
  %arrayidx71 = getelementptr inbounds double, double* %89, i64 5
  %90 = load double, double* %arrayidx71, align 8, !tbaa !6
  %sub72 = fsub double %88, %90
  %mul73 = fmul double %86, %sub72
  %add74 = fadd double %add68, %mul73
  %mul75 = fmul double %66, %add74
  %91 = load double*, double** %d.addr, align 8, !tbaa !2
  %arrayidx76 = getelementptr inbounds double, double* %91, i64 2
  store double %mul75, double* %arrayidx76, align 8, !tbaa !6
  %92 = load double, double* %inv_detJ, align 8, !tbaa !6
  %93 = load double*, double** %pfx, align 8, !tbaa !2
  %arrayidx77 = getelementptr inbounds double, double* %93, i64 0
  %94 = load double, double* %arrayidx77, align 8, !tbaa !6
  %95 = load double*, double** %yvel.addr, align 8, !tbaa !2
  %arrayidx78 = getelementptr inbounds double, double* %95, i64 0
  %96 = load double, double* %arrayidx78, align 8, !tbaa !6
  %97 = load double*, double** %yvel.addr, align 8, !tbaa !2
  %arrayidx79 = getelementptr inbounds double, double* %97, i64 6
  %98 = load double, double* %arrayidx79, align 8, !tbaa !6
  %sub80 = fsub double %96, %98
  %mul81 = fmul double %94, %sub80
  %99 = load double*, double** %pfx, align 8, !tbaa !2
  %arrayidx82 = getelementptr inbounds double, double* %99, i64 1
  %100 = load double, double* %arrayidx82, align 8, !tbaa !6
  %101 = load double*, double** %yvel.addr, align 8, !tbaa !2
  %arrayidx83 = getelementptr inbounds double, double* %101, i64 1
  %102 = load double, double* %arrayidx83, align 8, !tbaa !6
  %103 = load double*, double** %yvel.addr, align 8, !tbaa !2
  %arrayidx84 = getelementptr inbounds double, double* %103, i64 7
  %104 = load double, double* %arrayidx84, align 8, !tbaa !6
  %sub85 = fsub double %102, %104
  %mul86 = fmul double %100, %sub85
  %add87 = fadd double %mul81, %mul86
  %105 = load double*, double** %pfx, align 8, !tbaa !2
  %arrayidx88 = getelementptr inbounds double, double* %105, i64 2
  %106 = load double, double* %arrayidx88, align 8, !tbaa !6
  %107 = load double*, double** %yvel.addr, align 8, !tbaa !2
  %arrayidx89 = getelementptr inbounds double, double* %107, i64 2
  %108 = load double, double* %arrayidx89, align 8, !tbaa !6
  %109 = load double*, double** %yvel.addr, align 8, !tbaa !2
  %arrayidx90 = getelementptr inbounds double, double* %109, i64 4
  %110 = load double, double* %arrayidx90, align 8, !tbaa !6
  %sub91 = fsub double %108, %110
  %mul92 = fmul double %106, %sub91
  %add93 = fadd double %add87, %mul92
  %111 = load double*, double** %pfx, align 8, !tbaa !2
  %arrayidx94 = getelementptr inbounds double, double* %111, i64 3
  %112 = load double, double* %arrayidx94, align 8, !tbaa !6
  %113 = load double*, double** %yvel.addr, align 8, !tbaa !2
  %arrayidx95 = getelementptr inbounds double, double* %113, i64 3
  %114 = load double, double* %arrayidx95, align 8, !tbaa !6
  %115 = load double*, double** %yvel.addr, align 8, !tbaa !2
  %arrayidx96 = getelementptr inbounds double, double* %115, i64 5
  %116 = load double, double* %arrayidx96, align 8, !tbaa !6
  %sub97 = fsub double %114, %116
  %mul98 = fmul double %112, %sub97
  %add99 = fadd double %add93, %mul98
  %mul100 = fmul double %92, %add99
  store double %mul100, double* %dyddx, align 8, !tbaa !6
  %117 = load double, double* %inv_detJ, align 8, !tbaa !6
  %118 = load double*, double** %pfy, align 8, !tbaa !2
  %arrayidx101 = getelementptr inbounds double, double* %118, i64 0
  %119 = load double, double* %arrayidx101, align 8, !tbaa !6
  %120 = load double*, double** %xvel.addr, align 8, !tbaa !2
  %arrayidx102 = getelementptr inbounds double, double* %120, i64 0
  %121 = load double, double* %arrayidx102, align 8, !tbaa !6
  %122 = load double*, double** %xvel.addr, align 8, !tbaa !2
  %arrayidx103 = getelementptr inbounds double, double* %122, i64 6
  %123 = load double, double* %arrayidx103, align 8, !tbaa !6
  %sub104 = fsub double %121, %123
  %mul105 = fmul double %119, %sub104
  %124 = load double*, double** %pfy, align 8, !tbaa !2
  %arrayidx106 = getelementptr inbounds double, double* %124, i64 1
  %125 = load double, double* %arrayidx106, align 8, !tbaa !6
  %126 = load double*, double** %xvel.addr, align 8, !tbaa !2
  %arrayidx107 = getelementptr inbounds double, double* %126, i64 1
  %127 = load double, double* %arrayidx107, align 8, !tbaa !6
  %128 = load double*, double** %xvel.addr, align 8, !tbaa !2
  %arrayidx108 = getelementptr inbounds double, double* %128, i64 7
  %129 = load double, double* %arrayidx108, align 8, !tbaa !6
  %sub109 = fsub double %127, %129
  %mul110 = fmul double %125, %sub109
  %add111 = fadd double %mul105, %mul110
  %130 = load double*, double** %pfy, align 8, !tbaa !2
  %arrayidx112 = getelementptr inbounds double, double* %130, i64 2
  %131 = load double, double* %arrayidx112, align 8, !tbaa !6
  %132 = load double*, double** %xvel.addr, align 8, !tbaa !2
  %arrayidx113 = getelementptr inbounds double, double* %132, i64 2
  %133 = load double, double* %arrayidx113, align 8, !tbaa !6
  %134 = load double*, double** %xvel.addr, align 8, !tbaa !2
  %arrayidx114 = getelementptr inbounds double, double* %134, i64 4
  %135 = load double, double* %arrayidx114, align 8, !tbaa !6
  %sub115 = fsub double %133, %135
  %mul116 = fmul double %131, %sub115
  %add117 = fadd double %add111, %mul116
  %136 = load double*, double** %pfy, align 8, !tbaa !2
  %arrayidx118 = getelementptr inbounds double, double* %136, i64 3
  %137 = load double, double* %arrayidx118, align 8, !tbaa !6
  %138 = load double*, double** %xvel.addr, align 8, !tbaa !2
  %arrayidx119 = getelementptr inbounds double, double* %138, i64 3
  %139 = load double, double* %arrayidx119, align 8, !tbaa !6
  %140 = load double*, double** %xvel.addr, align 8, !tbaa !2
  %arrayidx120 = getelementptr inbounds double, double* %140, i64 5
  %141 = load double, double* %arrayidx120, align 8, !tbaa !6
  %sub121 = fsub double %139, %141
  %mul122 = fmul double %137, %sub121
  %add123 = fadd double %add117, %mul122
  %mul124 = fmul double %117, %add123
  store double %mul124, double* %dxddy, align 8, !tbaa !6
  %142 = load double, double* %inv_detJ, align 8, !tbaa !6
  %143 = load double*, double** %pfx, align 8, !tbaa !2
  %arrayidx125 = getelementptr inbounds double, double* %143, i64 0
  %144 = load double, double* %arrayidx125, align 8, !tbaa !6
  %145 = load double*, double** %zvel.addr, align 8, !tbaa !2
  %arrayidx126 = getelementptr inbounds double, double* %145, i64 0
  %146 = load double, double* %arrayidx126, align 8, !tbaa !6
  %147 = load double*, double** %zvel.addr, align 8, !tbaa !2
  %arrayidx127 = getelementptr inbounds double, double* %147, i64 6
  %148 = load double, double* %arrayidx127, align 8, !tbaa !6
  %sub128 = fsub double %146, %148
  %mul129 = fmul double %144, %sub128
  %149 = load double*, double** %pfx, align 8, !tbaa !2
  %arrayidx130 = getelementptr inbounds double, double* %149, i64 1
  %150 = load double, double* %arrayidx130, align 8, !tbaa !6
  %151 = load double*, double** %zvel.addr, align 8, !tbaa !2
  %arrayidx131 = getelementptr inbounds double, double* %151, i64 1
  %152 = load double, double* %arrayidx131, align 8, !tbaa !6
  %153 = load double*, double** %zvel.addr, align 8, !tbaa !2
  %arrayidx132 = getelementptr inbounds double, double* %153, i64 7
  %154 = load double, double* %arrayidx132, align 8, !tbaa !6
  %sub133 = fsub double %152, %154
  %mul134 = fmul double %150, %sub133
  %add135 = fadd double %mul129, %mul134
  %155 = load double*, double** %pfx, align 8, !tbaa !2
  %arrayidx136 = getelementptr inbounds double, double* %155, i64 2
  %156 = load double, double* %arrayidx136, align 8, !tbaa !6
  %157 = load double*, double** %zvel.addr, align 8, !tbaa !2
  %arrayidx137 = getelementptr inbounds double, double* %157, i64 2
  %158 = load double, double* %arrayidx137, align 8, !tbaa !6
  %159 = load double*, double** %zvel.addr, align 8, !tbaa !2
  %arrayidx138 = getelementptr inbounds double, double* %159, i64 4
  %160 = load double, double* %arrayidx138, align 8, !tbaa !6
  %sub139 = fsub double %158, %160
  %mul140 = fmul double %156, %sub139
  %add141 = fadd double %add135, %mul140
  %161 = load double*, double** %pfx, align 8, !tbaa !2
  %arrayidx142 = getelementptr inbounds double, double* %161, i64 3
  %162 = load double, double* %arrayidx142, align 8, !tbaa !6
  %163 = load double*, double** %zvel.addr, align 8, !tbaa !2
  %arrayidx143 = getelementptr inbounds double, double* %163, i64 3
  %164 = load double, double* %arrayidx143, align 8, !tbaa !6
  %165 = load double*, double** %zvel.addr, align 8, !tbaa !2
  %arrayidx144 = getelementptr inbounds double, double* %165, i64 5
  %166 = load double, double* %arrayidx144, align 8, !tbaa !6
  %sub145 = fsub double %164, %166
  %mul146 = fmul double %162, %sub145
  %add147 = fadd double %add141, %mul146
  %mul148 = fmul double %142, %add147
  store double %mul148, double* %dzddx, align 8, !tbaa !6
  %167 = load double, double* %inv_detJ, align 8, !tbaa !6
  %168 = load double*, double** %pfz, align 8, !tbaa !2
  %arrayidx149 = getelementptr inbounds double, double* %168, i64 0
  %169 = load double, double* %arrayidx149, align 8, !tbaa !6
  %170 = load double*, double** %xvel.addr, align 8, !tbaa !2
  %arrayidx150 = getelementptr inbounds double, double* %170, i64 0
  %171 = load double, double* %arrayidx150, align 8, !tbaa !6
  %172 = load double*, double** %xvel.addr, align 8, !tbaa !2
  %arrayidx151 = getelementptr inbounds double, double* %172, i64 6
  %173 = load double, double* %arrayidx151, align 8, !tbaa !6
  %sub152 = fsub double %171, %173
  %mul153 = fmul double %169, %sub152
  %174 = load double*, double** %pfz, align 8, !tbaa !2
  %arrayidx154 = getelementptr inbounds double, double* %174, i64 1
  %175 = load double, double* %arrayidx154, align 8, !tbaa !6
  %176 = load double*, double** %xvel.addr, align 8, !tbaa !2
  %arrayidx155 = getelementptr inbounds double, double* %176, i64 1
  %177 = load double, double* %arrayidx155, align 8, !tbaa !6
  %178 = load double*, double** %xvel.addr, align 8, !tbaa !2
  %arrayidx156 = getelementptr inbounds double, double* %178, i64 7
  %179 = load double, double* %arrayidx156, align 8, !tbaa !6
  %sub157 = fsub double %177, %179
  %mul158 = fmul double %175, %sub157
  %add159 = fadd double %mul153, %mul158
  %180 = load double*, double** %pfz, align 8, !tbaa !2
  %arrayidx160 = getelementptr inbounds double, double* %180, i64 2
  %181 = load double, double* %arrayidx160, align 8, !tbaa !6
  %182 = load double*, double** %xvel.addr, align 8, !tbaa !2
  %arrayidx161 = getelementptr inbounds double, double* %182, i64 2
  %183 = load double, double* %arrayidx161, align 8, !tbaa !6
  %184 = load double*, double** %xvel.addr, align 8, !tbaa !2
  %arrayidx162 = getelementptr inbounds double, double* %184, i64 4
  %185 = load double, double* %arrayidx162, align 8, !tbaa !6
  %sub163 = fsub double %183, %185
  %mul164 = fmul double %181, %sub163
  %add165 = fadd double %add159, %mul164
  %186 = load double*, double** %pfz, align 8, !tbaa !2
  %arrayidx166 = getelementptr inbounds double, double* %186, i64 3
  %187 = load double, double* %arrayidx166, align 8, !tbaa !6
  %188 = load double*, double** %xvel.addr, align 8, !tbaa !2
  %arrayidx167 = getelementptr inbounds double, double* %188, i64 3
  %189 = load double, double* %arrayidx167, align 8, !tbaa !6
  %190 = load double*, double** %xvel.addr, align 8, !tbaa !2
  %arrayidx168 = getelementptr inbounds double, double* %190, i64 5
  %191 = load double, double* %arrayidx168, align 8, !tbaa !6
  %sub169 = fsub double %189, %191
  %mul170 = fmul double %187, %sub169
  %add171 = fadd double %add165, %mul170
  %mul172 = fmul double %167, %add171
  store double %mul172, double* %dxddz, align 8, !tbaa !6
  %192 = load double, double* %inv_detJ, align 8, !tbaa !6
  %193 = load double*, double** %pfy, align 8, !tbaa !2
  %arrayidx173 = getelementptr inbounds double, double* %193, i64 0
  %194 = load double, double* %arrayidx173, align 8, !tbaa !6
  %195 = load double*, double** %zvel.addr, align 8, !tbaa !2
  %arrayidx174 = getelementptr inbounds double, double* %195, i64 0
  %196 = load double, double* %arrayidx174, align 8, !tbaa !6
  %197 = load double*, double** %zvel.addr, align 8, !tbaa !2
  %arrayidx175 = getelementptr inbounds double, double* %197, i64 6
  %198 = load double, double* %arrayidx175, align 8, !tbaa !6
  %sub176 = fsub double %196, %198
  %mul177 = fmul double %194, %sub176
  %199 = load double*, double** %pfy, align 8, !tbaa !2
  %arrayidx178 = getelementptr inbounds double, double* %199, i64 1
  %200 = load double, double* %arrayidx178, align 8, !tbaa !6
  %201 = load double*, double** %zvel.addr, align 8, !tbaa !2
  %arrayidx179 = getelementptr inbounds double, double* %201, i64 1
  %202 = load double, double* %arrayidx179, align 8, !tbaa !6
  %203 = load double*, double** %zvel.addr, align 8, !tbaa !2
  %arrayidx180 = getelementptr inbounds double, double* %203, i64 7
  %204 = load double, double* %arrayidx180, align 8, !tbaa !6
  %sub181 = fsub double %202, %204
  %mul182 = fmul double %200, %sub181
  %add183 = fadd double %mul177, %mul182
  %205 = load double*, double** %pfy, align 8, !tbaa !2
  %arrayidx184 = getelementptr inbounds double, double* %205, i64 2
  %206 = load double, double* %arrayidx184, align 8, !tbaa !6
  %207 = load double*, double** %zvel.addr, align 8, !tbaa !2
  %arrayidx185 = getelementptr inbounds double, double* %207, i64 2
  %208 = load double, double* %arrayidx185, align 8, !tbaa !6
  %209 = load double*, double** %zvel.addr, align 8, !tbaa !2
  %arrayidx186 = getelementptr inbounds double, double* %209, i64 4
  %210 = load double, double* %arrayidx186, align 8, !tbaa !6
  %sub187 = fsub double %208, %210
  %mul188 = fmul double %206, %sub187
  %add189 = fadd double %add183, %mul188
  %211 = load double*, double** %pfy, align 8, !tbaa !2
  %arrayidx190 = getelementptr inbounds double, double* %211, i64 3
  %212 = load double, double* %arrayidx190, align 8, !tbaa !6
  %213 = load double*, double** %zvel.addr, align 8, !tbaa !2
  %arrayidx191 = getelementptr inbounds double, double* %213, i64 3
  %214 = load double, double* %arrayidx191, align 8, !tbaa !6
  %215 = load double*, double** %zvel.addr, align 8, !tbaa !2
  %arrayidx192 = getelementptr inbounds double, double* %215, i64 5
  %216 = load double, double* %arrayidx192, align 8, !tbaa !6
  %sub193 = fsub double %214, %216
  %mul194 = fmul double %212, %sub193
  %add195 = fadd double %add189, %mul194
  %mul196 = fmul double %192, %add195
  store double %mul196, double* %dzddy, align 8, !tbaa !6
  %217 = load double, double* %inv_detJ, align 8, !tbaa !6
  %218 = load double*, double** %pfz, align 8, !tbaa !2
  %arrayidx197 = getelementptr inbounds double, double* %218, i64 0
  %219 = load double, double* %arrayidx197, align 8, !tbaa !6
  %220 = load double*, double** %yvel.addr, align 8, !tbaa !2
  %arrayidx198 = getelementptr inbounds double, double* %220, i64 0
  %221 = load double, double* %arrayidx198, align 8, !tbaa !6
  %222 = load double*, double** %yvel.addr, align 8, !tbaa !2
  %arrayidx199 = getelementptr inbounds double, double* %222, i64 6
  %223 = load double, double* %arrayidx199, align 8, !tbaa !6
  %sub200 = fsub double %221, %223
  %mul201 = fmul double %219, %sub200
  %224 = load double*, double** %pfz, align 8, !tbaa !2
  %arrayidx202 = getelementptr inbounds double, double* %224, i64 1
  %225 = load double, double* %arrayidx202, align 8, !tbaa !6
  %226 = load double*, double** %yvel.addr, align 8, !tbaa !2
  %arrayidx203 = getelementptr inbounds double, double* %226, i64 1
  %227 = load double, double* %arrayidx203, align 8, !tbaa !6
  %228 = load double*, double** %yvel.addr, align 8, !tbaa !2
  %arrayidx204 = getelementptr inbounds double, double* %228, i64 7
  %229 = load double, double* %arrayidx204, align 8, !tbaa !6
  %sub205 = fsub double %227, %229
  %mul206 = fmul double %225, %sub205
  %add207 = fadd double %mul201, %mul206
  %230 = load double*, double** %pfz, align 8, !tbaa !2
  %arrayidx208 = getelementptr inbounds double, double* %230, i64 2
  %231 = load double, double* %arrayidx208, align 8, !tbaa !6
  %232 = load double*, double** %yvel.addr, align 8, !tbaa !2
  %arrayidx209 = getelementptr inbounds double, double* %232, i64 2
  %233 = load double, double* %arrayidx209, align 8, !tbaa !6
  %234 = load double*, double** %yvel.addr, align 8, !tbaa !2
  %arrayidx210 = getelementptr inbounds double, double* %234, i64 4
  %235 = load double, double* %arrayidx210, align 8, !tbaa !6
  %sub211 = fsub double %233, %235
  %mul212 = fmul double %231, %sub211
  %add213 = fadd double %add207, %mul212
  %236 = load double*, double** %pfz, align 8, !tbaa !2
  %arrayidx214 = getelementptr inbounds double, double* %236, i64 3
  %237 = load double, double* %arrayidx214, align 8, !tbaa !6
  %238 = load double*, double** %yvel.addr, align 8, !tbaa !2
  %arrayidx215 = getelementptr inbounds double, double* %238, i64 3
  %239 = load double, double* %arrayidx215, align 8, !tbaa !6
  %240 = load double*, double** %yvel.addr, align 8, !tbaa !2
  %arrayidx216 = getelementptr inbounds double, double* %240, i64 5
  %241 = load double, double* %arrayidx216, align 8, !tbaa !6
  %sub217 = fsub double %239, %241
  %mul218 = fmul double %237, %sub217
  %add219 = fadd double %add213, %mul218
  %mul220 = fmul double %217, %add219
  store double %mul220, double* %dyddz, align 8, !tbaa !6
  %242 = load double, double* %dxddy, align 8, !tbaa !6
  %243 = load double, double* %dyddx, align 8, !tbaa !6
  %add221 = fadd double %242, %243
  %mul222 = fmul double 5.000000e-01, %add221
  %244 = load double*, double** %d.addr, align 8, !tbaa !2
  %arrayidx223 = getelementptr inbounds double, double* %244, i64 5
  store double %mul222, double* %arrayidx223, align 8, !tbaa !6
  %245 = load double, double* %dxddz, align 8, !tbaa !6
  %246 = load double, double* %dzddx, align 8, !tbaa !6
  %add224 = fadd double %245, %246
  %mul225 = fmul double 5.000000e-01, %add224
  %247 = load double*, double** %d.addr, align 8, !tbaa !2
  %arrayidx226 = getelementptr inbounds double, double* %247, i64 4
  store double %mul225, double* %arrayidx226, align 8, !tbaa !6
  %248 = load double, double* %dzddy, align 8, !tbaa !6
  %249 = load double, double* %dyddz, align 8, !tbaa !6
  %add227 = fadd double %248, %249
  %mul228 = fmul double 5.000000e-01, %add227
  %250 = load double*, double** %d.addr, align 8, !tbaa !2
  %arrayidx229 = getelementptr inbounds double, double* %250, i64 3
  store double %mul228, double* %arrayidx229, align 8, !tbaa !6
  %251 = bitcast double** %pfz to i8*
  call void @llvm.lifetime.end.p0i8(i64 8, i8* %251) #3
  %252 = bitcast double** %pfy to i8*
  call void @llvm.lifetime.end.p0i8(i64 8, i8* %252) #3
  %253 = bitcast double** %pfx to i8*
  call void @llvm.lifetime.end.p0i8(i64 8, i8* %253) #3
  %254 = bitcast double* %dyddz to i8*
  call void @llvm.lifetime.end.p0i8(i64 8, i8* %254) #3
  %255 = bitcast double* %dzddy to i8*
  call void @llvm.lifetime.end.p0i8(i64 8, i8* %255) #3
  %256 = bitcast double* %dxddz to i8*
  call void @llvm.lifetime.end.p0i8(i64 8, i8* %256) #3
  %257 = bitcast double* %dzddx to i8*
  call void @llvm.lifetime.end.p0i8(i64 8, i8* %257) #3
  %258 = bitcast double* %dxddy to i8*
  call void @llvm.lifetime.end.p0i8(i64 8, i8* %258) #3
  %259 = bitcast double* %dyddx to i8*
  call void @llvm.lifetime.end.p0i8(i64 8, i8* %259) #3
  %260 = bitcast double* %inv_detJ to i8*
  call void @llvm.lifetime.end.p0i8(i64 8, i8* %260) #3
  ret void
}

; Function Attrs: nounwind uwtable
define linkonce_odr dso_local nonnull align 8 dereferenceable(8) double* @_ZN6Domain3dxxEi(%class.Domain* %this, i32 %idx) #6 comdat align 2 {
entry:
  %this.addr = alloca %class.Domain*, align 8
  %idx.addr = alloca i32, align 4
  store %class.Domain* %this, %class.Domain** %this.addr, align 8, !tbaa !2
  store i32 %idx, i32* %idx.addr, align 4, !tbaa !8
  %this1 = load %class.Domain*, %class.Domain** %this.addr, align 8
  %m_dxx = getelementptr inbounds %class.Domain, %class.Domain* %this1, i32 0, i32 29
  %0 = load double*, double** %m_dxx, align 8, !tbaa !14
  %1 = load i32, i32* %idx.addr, align 4, !tbaa !8
  %idxprom = sext i32 %1 to i64
  %arrayidx = getelementptr inbounds double, double* %0, i64 %idxprom
  ret double* %arrayidx
}

; Function Attrs: nounwind uwtable
define linkonce_odr dso_local nonnull align 8 dereferenceable(8) double* @_ZN6Domain3dyyEi(%class.Domain* %this, i32 %idx) #6 comdat align 2 {
entry:
  %this.addr = alloca %class.Domain*, align 8
  %idx.addr = alloca i32, align 4
  store %class.Domain* %this, %class.Domain** %this.addr, align 8, !tbaa !2
  store i32 %idx, i32* %idx.addr, align 4, !tbaa !8
  %this1 = load %class.Domain*, %class.Domain** %this.addr, align 8
  %m_dyy = getelementptr inbounds %class.Domain, %class.Domain* %this1, i32 0, i32 30
  %0 = load double*, double** %m_dyy, align 8, !tbaa !18
  %1 = load i32, i32* %idx.addr, align 4, !tbaa !8
  %idxprom = sext i32 %1 to i64
  %arrayidx = getelementptr inbounds double, double* %0, i64 %idxprom
  ret double* %arrayidx
}

; Function Attrs: nounwind uwtable
define linkonce_odr dso_local nonnull align 8 dereferenceable(8) double* @_ZN6Domain3dzzEi(%class.Domain* %this, i32 %idx) #6 comdat align 2 {
entry:
  %this.addr = alloca %class.Domain*, align 8
  %idx.addr = alloca i32, align 4
  store %class.Domain* %this, %class.Domain** %this.addr, align 8, !tbaa !2
  store i32 %idx, i32* %idx.addr, align 4, !tbaa !8
  %this1 = load %class.Domain*, %class.Domain** %this.addr, align 8
  %m_dzz = getelementptr inbounds %class.Domain, %class.Domain* %this1, i32 0, i32 31
  %0 = load double*, double** %m_dzz, align 8, !tbaa !19
  %1 = load i32, i32* %idx.addr, align 4, !tbaa !8
  %idxprom = sext i32 %1 to i64
  %arrayidx = getelementptr inbounds double, double* %0, i64 %idxprom
  ret double* %arrayidx
}

; Function Attrs: norecurse uwtable
define dso_local i32 @main(i32 %argc, i8** %argv) #8 personality i8* bitcast (i32 (...)* @__gxx_personality_v0 to i8*) {
entry:
  %retval = alloca i32, align 4
  %argc.addr = alloca i32, align 4
  %argv.addr = alloca i8**, align 8
  %locDom = alloca %class.Domain*, align 8
  %numRanks = alloca i32, align 4
  %myRank = alloca i32, align 4
  %opts = alloca %struct.cmdLineOpts, align 4
  %col = alloca i32, align 4
  %row = alloca i32, align 4
  %plane = alloca i32, align 4
  %side = alloca i32, align 4
  %exn.slot = alloca i8*, align 8
  %ehselector.slot = alloca i32, align 4
  %start = alloca %struct.timeval, align 8
  %elapsed_time = alloca double, align 8
  %end = alloca %struct.timeval, align 8
  %elapsed_timeG = alloca double, align 8
  store i32 0, i32* %retval, align 4
  store i32 %argc, i32* %argc.addr, align 4, !tbaa !8
  store i8** %argv, i8*** %argv.addr, align 8, !tbaa !2
  %0 = bitcast %class.Domain** %locDom to i8*
  call void @llvm.lifetime.start.p0i8(i64 8, i8* %0) #3
  %1 = bitcast i32* %numRanks to i8*
  call void @llvm.lifetime.start.p0i8(i64 4, i8* %1) #3
  %2 = bitcast i32* %myRank to i8*
  call void @llvm.lifetime.start.p0i8(i64 4, i8* %2) #3
  %3 = bitcast %struct.cmdLineOpts* %opts to i8*
  call void @llvm.lifetime.start.p0i8(i64 36, i8* %3) #3
  store i32 1, i32* %numRanks, align 4, !tbaa !8
  store i32 0, i32* %myRank, align 4, !tbaa !8
  %its = getelementptr inbounds %struct.cmdLineOpts, %struct.cmdLineOpts* %opts, i32 0, i32 0
  store i32 9999999, i32* %its, align 4, !tbaa !20
  %nx = getelementptr inbounds %struct.cmdLineOpts, %struct.cmdLineOpts* %opts, i32 0, i32 1
  store i32 30, i32* %nx, align 4, !tbaa !22
  %numReg = getelementptr inbounds %struct.cmdLineOpts, %struct.cmdLineOpts* %opts, i32 0, i32 2
  store i32 11, i32* %numReg, align 4, !tbaa !23
  %4 = load i32, i32* %numRanks, align 4, !tbaa !8
  %add = add nsw i32 %4, 10
  %div = sdiv i32 %add, 9
  %numFiles = getelementptr inbounds %struct.cmdLineOpts, %struct.cmdLineOpts* %opts, i32 0, i32 3
  store i32 %div, i32* %numFiles, align 4, !tbaa !24
  %showProg = getelementptr inbounds %struct.cmdLineOpts, %struct.cmdLineOpts* %opts, i32 0, i32 4
  store i32 0, i32* %showProg, align 4, !tbaa !25
  %quiet = getelementptr inbounds %struct.cmdLineOpts, %struct.cmdLineOpts* %opts, i32 0, i32 5
  store i32 0, i32* %quiet, align 4, !tbaa !26
  %viz = getelementptr inbounds %struct.cmdLineOpts, %struct.cmdLineOpts* %opts, i32 0, i32 6
  store i32 0, i32* %viz, align 4, !tbaa !27
  %balance = getelementptr inbounds %struct.cmdLineOpts, %struct.cmdLineOpts* %opts, i32 0, i32 8
  store i32 1, i32* %balance, align 4, !tbaa !28
  %cost = getelementptr inbounds %struct.cmdLineOpts, %struct.cmdLineOpts* %opts, i32 0, i32 7
  store i32 1, i32* %cost, align 4, !tbaa !29
  %5 = load i32, i32* %argc.addr, align 4, !tbaa !8
  %6 = load i8**, i8*** %argv.addr, align 8, !tbaa !2
  %7 = load i32, i32* %myRank, align 4, !tbaa !8
  call void @_Z23ParseCommandLineOptionsiPPciP11cmdLineOpts(i32 %5, i8** %6, i32 %7, %struct.cmdLineOpts* %opts)
  %8 = load i32, i32* %myRank, align 4, !tbaa !8
  %cmp = icmp eq i32 %8, 0
  br i1 %cmp, label %land.lhs.true, label %if.end

land.lhs.true:                                    ; preds = %entry
  %quiet1 = getelementptr inbounds %struct.cmdLineOpts, %struct.cmdLineOpts* %opts, i32 0, i32 5
  %9 = load i32, i32* %quiet1, align 4, !tbaa !26
  %cmp2 = icmp eq i32 %9, 0
  br i1 %cmp2, label %if.then, label %if.end

if.then:                                          ; preds = %land.lhs.true
  %call = call nonnull align 8 dereferenceable(8) %"class.std::basic_ostream"* @_ZStlsISt11char_traitsIcEERSt13basic_ostreamIcT_ES5_PKc(%"class.std::basic_ostream"* nonnull align 8 dereferenceable(8) @_ZSt4cout, i8* getelementptr inbounds ([22 x i8], [22 x i8]* @.str, i64 0, i64 0))
  %nx3 = getelementptr inbounds %struct.cmdLineOpts, %struct.cmdLineOpts* %opts, i32 0, i32 1
  %10 = load i32, i32* %nx3, align 4, !tbaa !22
  %call4 = call nonnull align 8 dereferenceable(8) %"class.std::basic_ostream"* @_ZNSolsEi(%"class.std::basic_ostream"* %call, i32 %10)
  %call5 = call nonnull align 8 dereferenceable(8) %"class.std::basic_ostream"* @_ZStlsISt11char_traitsIcEERSt13basic_ostreamIcT_ES5_PKc(%"class.std::basic_ostream"* nonnull align 8 dereferenceable(8) %call4, i8* getelementptr inbounds ([32 x i8], [32 x i8]* @.str.1, i64 0, i64 0))
  %call6 = call nonnull align 8 dereferenceable(8) %"class.std::basic_ostream"* @_ZStlsISt11char_traitsIcEERSt13basic_ostreamIcT_ES5_PKc(%"class.std::basic_ostream"* nonnull align 8 dereferenceable(8) @_ZSt4cout, i8* getelementptr inbounds ([17 x i8], [17 x i8]* @.str.2, i64 0, i64 0))
  %11 = load i32, i32* %numRanks, align 4, !tbaa !8
  %call7 = call nonnull align 8 dereferenceable(8) %"class.std::basic_ostream"* @_ZNSolsEi(%"class.std::basic_ostream"* %call6, i32 %11)
  %call8 = call nonnull align 8 dereferenceable(8) %"class.std::basic_ostream"* @_ZStlsISt11char_traitsIcEERSt13basic_ostreamIcT_ES5_PKc(%"class.std::basic_ostream"* nonnull align 8 dereferenceable(8) %call7, i8* getelementptr inbounds ([2 x i8], [2 x i8]* @.str.3, i64 0, i64 0))
  %call9 = call nonnull align 8 dereferenceable(8) %"class.std::basic_ostream"* @_ZStlsISt11char_traitsIcEERSt13basic_ostreamIcT_ES5_PKc(%"class.std::basic_ostream"* nonnull align 8 dereferenceable(8) @_ZSt4cout, i8* getelementptr inbounds ([27 x i8], [27 x i8]* @.str.4, i64 0, i64 0))
  %12 = load i32, i32* %numRanks, align 4, !tbaa !8
  %conv = sext i32 %12 to i64
  %nx10 = getelementptr inbounds %struct.cmdLineOpts, %struct.cmdLineOpts* %opts, i32 0, i32 1
  %13 = load i32, i32* %nx10, align 4, !tbaa !22
  %conv11 = sext i32 %13 to i64
  %mul = mul nsw i64 %conv, %conv11
  %nx12 = getelementptr inbounds %struct.cmdLineOpts, %struct.cmdLineOpts* %opts, i32 0, i32 1
  %14 = load i32, i32* %nx12, align 4, !tbaa !22
  %conv13 = sext i32 %14 to i64
  %mul14 = mul nsw i64 %mul, %conv13
  %nx15 = getelementptr inbounds %struct.cmdLineOpts, %struct.cmdLineOpts* %opts, i32 0, i32 1
  %15 = load i32, i32* %nx15, align 4, !tbaa !22
  %conv16 = sext i32 %15 to i64
  %mul17 = mul nsw i64 %mul14, %conv16
  %call18 = call nonnull align 8 dereferenceable(8) %"class.std::basic_ostream"* @_ZNSolsEl(%"class.std::basic_ostream"* %call9, i64 %mul17)
  %call19 = call nonnull align 8 dereferenceable(8) %"class.std::basic_ostream"* @_ZStlsISt11char_traitsIcEERSt13basic_ostreamIcT_ES5_PKc(%"class.std::basic_ostream"* nonnull align 8 dereferenceable(8) %call18, i8* getelementptr inbounds ([4 x i8], [4 x i8]* @.str.5, i64 0, i64 0))
  %call20 = call nonnull align 8 dereferenceable(8) %"class.std::basic_ostream"* @_ZStlsISt11char_traitsIcEERSt13basic_ostreamIcT_ES5_PKc(%"class.std::basic_ostream"* nonnull align 8 dereferenceable(8) @_ZSt4cout, i8* getelementptr inbounds ([39 x i8], [39 x i8]* @.str.6, i64 0, i64 0))
  %call21 = call nonnull align 8 dereferenceable(8) %"class.std::basic_ostream"* @_ZStlsISt11char_traitsIcEERSt13basic_ostreamIcT_ES5_PKc(%"class.std::basic_ostream"* nonnull align 8 dereferenceable(8) @_ZSt4cout, i8* getelementptr inbounds ([56 x i8], [56 x i8]* @.str.7, i64 0, i64 0))
  %call22 = call nonnull align 8 dereferenceable(8) %"class.std::basic_ostream"* @_ZStlsISt11char_traitsIcEERSt13basic_ostreamIcT_ES5_PKc(%"class.std::basic_ostream"* nonnull align 8 dereferenceable(8) @_ZSt4cout, i8* getelementptr inbounds ([62 x i8], [62 x i8]* @.str.8, i64 0, i64 0))
  %call23 = call nonnull align 8 dereferenceable(8) %"class.std::basic_ostream"* @_ZStlsISt11char_traitsIcEERSt13basic_ostreamIcT_ES5_PKc(%"class.std::basic_ostream"* nonnull align 8 dereferenceable(8) @_ZSt4cout, i8* getelementptr inbounds ([60 x i8], [60 x i8]* @.str.9, i64 0, i64 0))
  %call24 = call nonnull align 8 dereferenceable(8) %"class.std::basic_ostream"* @_ZStlsISt11char_traitsIcEERSt13basic_ostreamIcT_ES5_PKc(%"class.std::basic_ostream"* nonnull align 8 dereferenceable(8) @_ZSt4cout, i8* getelementptr inbounds ([31 x i8], [31 x i8]* @.str.10, i64 0, i64 0))
  %call25 = call nonnull align 8 dereferenceable(8) %"class.std::basic_ostream"* @_ZStlsISt11char_traitsIcEERSt13basic_ostreamIcT_ES5_PKc(%"class.std::basic_ostream"* nonnull align 8 dereferenceable(8) @_ZSt4cout, i8* getelementptr inbounds ([43 x i8], [43 x i8]* @.str.11, i64 0, i64 0))
  %call26 = call nonnull align 8 dereferenceable(8) %"class.std::basic_ostream"* @_ZStlsISt11char_traitsIcEERSt13basic_ostreamIcT_ES5_PKc(%"class.std::basic_ostream"* nonnull align 8 dereferenceable(8) @_ZSt4cout, i8* getelementptr inbounds ([33 x i8], [33 x i8]* @.str.12, i64 0, i64 0))
  br label %if.end

if.end:                                           ; preds = %if.then, %land.lhs.true, %entry
  %16 = bitcast i32* %col to i8*
  call void @llvm.lifetime.start.p0i8(i64 4, i8* %16) #3
  %17 = bitcast i32* %row to i8*
  call void @llvm.lifetime.start.p0i8(i64 4, i8* %17) #3
  %18 = bitcast i32* %plane to i8*
  call void @llvm.lifetime.start.p0i8(i64 4, i8* %18) #3
  %19 = bitcast i32* %side to i8*
  call void @llvm.lifetime.start.p0i8(i64 4, i8* %19) #3
  %20 = load i32, i32* %numRanks, align 4, !tbaa !8
  %21 = load i32, i32* %myRank, align 4, !tbaa !8
  call void @_Z14InitMeshDecompiiPiS_S_S_(i32 %20, i32 %21, i32* %col, i32* %row, i32* %plane, i32* %side)
  %call27 = call noalias nonnull i8* @_Znwm(i64 1312) #14
  %22 = bitcast i8* %call27 to %class.Domain*
  %23 = load i32, i32* %numRanks, align 4, !tbaa !8
  %24 = load i32, i32* %col, align 4, !tbaa !8
  %25 = load i32, i32* %row, align 4, !tbaa !8
  %26 = load i32, i32* %plane, align 4, !tbaa !8
  %nx28 = getelementptr inbounds %struct.cmdLineOpts, %struct.cmdLineOpts* %opts, i32 0, i32 1
  %27 = load i32, i32* %nx28, align 4, !tbaa !22
  %28 = load i32, i32* %side, align 4, !tbaa !8
  %numReg29 = getelementptr inbounds %struct.cmdLineOpts, %struct.cmdLineOpts* %opts, i32 0, i32 2
  %29 = load i32, i32* %numReg29, align 4, !tbaa !23
  %balance30 = getelementptr inbounds %struct.cmdLineOpts, %struct.cmdLineOpts* %opts, i32 0, i32 8
  %30 = load i32, i32* %balance30, align 4, !tbaa !28
  %cost31 = getelementptr inbounds %struct.cmdLineOpts, %struct.cmdLineOpts* %opts, i32 0, i32 7
  %31 = load i32, i32* %cost31, align 4, !tbaa !29
  invoke void @_ZN6DomainC1Eiiiiiiiii(%class.Domain* %22, i32 %23, i32 %24, i32 %25, i32 %26, i32 %27, i32 %28, i32 %29, i32 %30, i32 %31)
          to label %invoke.cont unwind label %lpad

invoke.cont:                                      ; preds = %if.end
  store %class.Domain* %22, %class.Domain** %locDom, align 8, !tbaa !2
  %32 = bitcast %struct.timeval* %start to i8*
  call void @llvm.lifetime.start.p0i8(i64 16, i8* %32) #3
  %call32 = call i32 @gettimeofday(%struct.timeval* %start, %struct.timezone* null) #3
  br label %while.cond

while.cond:                                       ; preds = %if.end60, %invoke.cont
  %33 = load %class.Domain*, %class.Domain** %locDom, align 8, !tbaa !2
  %call33 = call nonnull align 8 dereferenceable(8) double* @_ZN6Domain4timeEv(%class.Domain* %33)
  %34 = load double, double* %call33, align 8, !tbaa !6
  %35 = load %class.Domain*, %class.Domain** %locDom, align 8, !tbaa !2
  %call34 = call nonnull align 8 dereferenceable(8) double* @_ZN6Domain8stoptimeEv(%class.Domain* %35)
  %36 = load double, double* %call34, align 8, !tbaa !6
  %cmp35 = fcmp olt double %34, %36
  br i1 %cmp35, label %land.rhs, label %land.end

land.rhs:                                         ; preds = %while.cond
  %37 = load %class.Domain*, %class.Domain** %locDom, align 8, !tbaa !2
  %call36 = call nonnull align 4 dereferenceable(4) i32* @_ZN6Domain5cycleEv(%class.Domain* %37)
  %38 = load i32, i32* %call36, align 4, !tbaa !8
  %its37 = getelementptr inbounds %struct.cmdLineOpts, %struct.cmdLineOpts* %opts, i32 0, i32 0
  %39 = load i32, i32* %its37, align 4, !tbaa !20
  %cmp38 = icmp slt i32 %38, %39
  br label %land.end

land.end:                                         ; preds = %land.rhs, %while.cond
  %40 = phi i1 [ false, %while.cond ], [ %cmp38, %land.rhs ]
  br i1 %40, label %while.body, label %while.end

while.body:                                       ; preds = %land.end
  %41 = load %class.Domain*, %class.Domain** %locDom, align 8, !tbaa !2
  call void @_ZL13TimeIncrementR6Domain(%class.Domain* nonnull align 8 dereferenceable(1312) %41)
  %42 = load %class.Domain*, %class.Domain** %locDom, align 8, !tbaa !2
  call void @_ZL16LagrangeLeapFrogR6Domain(%class.Domain* nonnull align 8 dereferenceable(1312) %42)
  %showProg39 = getelementptr inbounds %struct.cmdLineOpts, %struct.cmdLineOpts* %opts, i32 0, i32 4
  %43 = load i32, i32* %showProg39, align 4, !tbaa !25
  %cmp40 = icmp ne i32 %43, 0
  br i1 %cmp40, label %land.lhs.true41, label %if.end60

land.lhs.true41:                                  ; preds = %while.body
  %quiet42 = getelementptr inbounds %struct.cmdLineOpts, %struct.cmdLineOpts* %opts, i32 0, i32 5
  %44 = load i32, i32* %quiet42, align 4, !tbaa !26
  %cmp43 = icmp eq i32 %44, 0
  br i1 %cmp43, label %land.lhs.true44, label %if.end60

land.lhs.true44:                                  ; preds = %land.lhs.true41
  %45 = load i32, i32* %myRank, align 4, !tbaa !8
  %cmp45 = icmp eq i32 %45, 0
  br i1 %cmp45, label %if.then46, label %if.end60

if.then46:                                        ; preds = %land.lhs.true44
  %call47 = call nonnull align 8 dereferenceable(8) %"class.std::basic_ostream"* @_ZStlsISt11char_traitsIcEERSt13basic_ostreamIcT_ES5_PKc(%"class.std::basic_ostream"* nonnull align 8 dereferenceable(8) @_ZSt4cout, i8* getelementptr inbounds ([9 x i8], [9 x i8]* @.str.13, i64 0, i64 0))
  %46 = load %class.Domain*, %class.Domain** %locDom, align 8, !tbaa !2
  %call48 = call nonnull align 4 dereferenceable(4) i32* @_ZN6Domain5cycleEv(%class.Domain* %46)
  %47 = load i32, i32* %call48, align 4, !tbaa !8
  %call49 = call nonnull align 8 dereferenceable(8) %"class.std::basic_ostream"* @_ZNSolsEi(%"class.std::basic_ostream"* %call47, i32 %47)
  %call50 = call nonnull align 8 dereferenceable(8) %"class.std::basic_ostream"* @_ZStlsISt11char_traitsIcEERSt13basic_ostreamIcT_ES5_PKc(%"class.std::basic_ostream"* nonnull align 8 dereferenceable(8) %call49, i8* getelementptr inbounds ([3 x i8], [3 x i8]* @.str.14, i64 0, i64 0))
  %call51 = call nonnull align 8 dereferenceable(8) %"class.std::basic_ostream"* @_ZNSolsEPFRSt8ios_baseS0_E(%"class.std::basic_ostream"* %call50, %"class.std::ios_base"* (%"class.std::ios_base"*)* @_ZSt10scientificRSt8ios_base)
  %call52 = call nonnull align 8 dereferenceable(8) %"class.std::basic_ostream"* @_ZStlsISt11char_traitsIcEERSt13basic_ostreamIcT_ES5_PKc(%"class.std::basic_ostream"* nonnull align 8 dereferenceable(8) %call51, i8* getelementptr inbounds ([8 x i8], [8 x i8]* @.str.15, i64 0, i64 0))
  %48 = load %class.Domain*, %class.Domain** %locDom, align 8, !tbaa !2
  %call53 = call nonnull align 8 dereferenceable(8) double* @_ZN6Domain4timeEv(%class.Domain* %48)
  %49 = load double, double* %call53, align 8, !tbaa !6
  %call54 = call nonnull align 8 dereferenceable(8) %"class.std::basic_ostream"* @_ZNSolsEd(%"class.std::basic_ostream"* %call52, double %49)
  %call55 = call nonnull align 8 dereferenceable(8) %"class.std::basic_ostream"* @_ZStlsISt11char_traitsIcEERSt13basic_ostreamIcT_ES5_PKc(%"class.std::basic_ostream"* nonnull align 8 dereferenceable(8) %call54, i8* getelementptr inbounds ([3 x i8], [3 x i8]* @.str.14, i64 0, i64 0))
  %call56 = call nonnull align 8 dereferenceable(8) %"class.std::basic_ostream"* @_ZStlsISt11char_traitsIcEERSt13basic_ostreamIcT_ES5_PKc(%"class.std::basic_ostream"* nonnull align 8 dereferenceable(8) %call55, i8* getelementptr inbounds ([4 x i8], [4 x i8]* @.str.16, i64 0, i64 0))
  %50 = load %class.Domain*, %class.Domain** %locDom, align 8, !tbaa !2
  %call57 = call nonnull align 8 dereferenceable(8) double* @_ZN6Domain9deltatimeEv(%class.Domain* %50)
  %51 = load double, double* %call57, align 8, !tbaa !6
  %call58 = call nonnull align 8 dereferenceable(8) %"class.std::basic_ostream"* @_ZNSolsEd(%"class.std::basic_ostream"* %call56, double %51)
  %call59 = call nonnull align 8 dereferenceable(8) %"class.std::basic_ostream"* @_ZStlsISt11char_traitsIcEERSt13basic_ostreamIcT_ES5_PKc(%"class.std::basic_ostream"* nonnull align 8 dereferenceable(8) %call58, i8* getelementptr inbounds ([2 x i8], [2 x i8]* @.str.3, i64 0, i64 0))
  %vtable = load i8*, i8** bitcast (%"class.std::basic_ostream"* @_ZSt4cout to i8**), align 8, !tbaa !30
  %vbase.offset.ptr = getelementptr i8, i8* %vtable, i64 -24
  %52 = bitcast i8* %vbase.offset.ptr to i64*
  %vbase.offset = load i64, i64* %52, align 8
  %add.ptr = getelementptr inbounds i8, i8* bitcast (%"class.std::basic_ostream"* @_ZSt4cout to i8*), i64 %vbase.offset
  %53 = bitcast i8* %add.ptr to %"class.std::ios_base"*
  call void @_ZNSt8ios_base6unsetfESt13_Ios_Fmtflags(%"class.std::ios_base"* %53, i32 260)
  br label %if.end60

lpad:                                             ; preds = %if.end
  %54 = landingpad { i8*, i32 }
          cleanup
  %55 = extractvalue { i8*, i32 } %54, 0
  store i8* %55, i8** %exn.slot, align 8
  %56 = extractvalue { i8*, i32 } %54, 1
  store i32 %56, i32* %ehselector.slot, align 4
  call void @_ZdlPv(i8* %call27) #15
  %57 = bitcast i32* %side to i8*
  call void @llvm.lifetime.end.p0i8(i64 4, i8* %57) #3
  %58 = bitcast i32* %plane to i8*
  call void @llvm.lifetime.end.p0i8(i64 4, i8* %58) #3
  %59 = bitcast i32* %row to i8*
  call void @llvm.lifetime.end.p0i8(i64 4, i8* %59) #3
  %60 = bitcast i32* %col to i8*
  call void @llvm.lifetime.end.p0i8(i64 4, i8* %60) #3
  %61 = bitcast %struct.cmdLineOpts* %opts to i8*
  call void @llvm.lifetime.end.p0i8(i64 36, i8* %61) #3
  %62 = bitcast i32* %myRank to i8*
  call void @llvm.lifetime.end.p0i8(i64 4, i8* %62) #3
  %63 = bitcast i32* %numRanks to i8*
  call void @llvm.lifetime.end.p0i8(i64 4, i8* %63) #3
  %64 = bitcast %class.Domain** %locDom to i8*
  call void @llvm.lifetime.end.p0i8(i64 8, i8* %64) #3
  br label %eh.resume

if.end60:                                         ; preds = %if.then46, %land.lhs.true44, %land.lhs.true41, %while.body
  br label %while.cond, !llvm.loop !32

while.end:                                        ; preds = %land.end
  %65 = bitcast double* %elapsed_time to i8*
  call void @llvm.lifetime.start.p0i8(i64 8, i8* %65) #3
  %66 = bitcast %struct.timeval* %end to i8*
  call void @llvm.lifetime.start.p0i8(i64 16, i8* %66) #3
  %call61 = call i32 @gettimeofday(%struct.timeval* %end, %struct.timezone* null) #3
  %tv_sec = getelementptr inbounds %struct.timeval, %struct.timeval* %end, i32 0, i32 0
  %67 = load i64, i64* %tv_sec, align 8, !tbaa !33
  %tv_sec62 = getelementptr inbounds %struct.timeval, %struct.timeval* %start, i32 0, i32 0
  %68 = load i64, i64* %tv_sec62, align 8, !tbaa !33
  %sub = sub nsw i64 %67, %68
  %conv63 = sitofp i64 %sub to double
  %tv_usec = getelementptr inbounds %struct.timeval, %struct.timeval* %end, i32 0, i32 1
  %69 = load i64, i64* %tv_usec, align 8, !tbaa !36
  %tv_usec64 = getelementptr inbounds %struct.timeval, %struct.timeval* %start, i32 0, i32 1
  %70 = load i64, i64* %tv_usec64, align 8, !tbaa !36
  %sub65 = sub nsw i64 %69, %70
  %conv66 = sitofp i64 %sub65 to double
  %div67 = fdiv double %conv66, 1.000000e+06
  %add68 = fadd double %conv63, %div67
  store double %add68, double* %elapsed_time, align 8, !tbaa !6
  %71 = bitcast double* %elapsed_timeG to i8*
  call void @llvm.lifetime.start.p0i8(i64 8, i8* %71) #3
  %72 = load double, double* %elapsed_time, align 8, !tbaa !6
  store double %72, double* %elapsed_timeG, align 8, !tbaa !6
  %viz69 = getelementptr inbounds %struct.cmdLineOpts, %struct.cmdLineOpts* %opts, i32 0, i32 6
  %73 = load i32, i32* %viz69, align 4, !tbaa !27
  %tobool = icmp ne i32 %73, 0
  br i1 %tobool, label %if.then70, label %if.end72

if.then70:                                        ; preds = %while.end
  %74 = load %class.Domain*, %class.Domain** %locDom, align 8, !tbaa !2
  %numFiles71 = getelementptr inbounds %struct.cmdLineOpts, %struct.cmdLineOpts* %opts, i32 0, i32 3
  %75 = load i32, i32* %numFiles71, align 4, !tbaa !24
  %76 = load i32, i32* %myRank, align 4, !tbaa !8
  %77 = load i32, i32* %numRanks, align 4, !tbaa !8
  call void @_Z11DumpToVisitR6Domainiii(%class.Domain* nonnull align 8 dereferenceable(1312) %74, i32 %75, i32 %76, i32 %77)
  br label %if.end72

if.end72:                                         ; preds = %if.then70, %while.end
  %78 = load i32, i32* %myRank, align 4, !tbaa !8
  %cmp73 = icmp eq i32 %78, 0
  br i1 %cmp73, label %land.lhs.true74, label %if.end79

land.lhs.true74:                                  ; preds = %if.end72
  %quiet75 = getelementptr inbounds %struct.cmdLineOpts, %struct.cmdLineOpts* %opts, i32 0, i32 5
  %79 = load i32, i32* %quiet75, align 4, !tbaa !26
  %cmp76 = icmp eq i32 %79, 0
  br i1 %cmp76, label %if.then77, label %if.end79

if.then77:                                        ; preds = %land.lhs.true74
  %80 = load double, double* %elapsed_timeG, align 8, !tbaa !6
  %81 = load %class.Domain*, %class.Domain** %locDom, align 8, !tbaa !2
  %nx78 = getelementptr inbounds %struct.cmdLineOpts, %struct.cmdLineOpts* %opts, i32 0, i32 1
  %82 = load i32, i32* %nx78, align 4, !tbaa !22
  %83 = load i32, i32* %numRanks, align 4, !tbaa !8
  call void @_Z25VerifyAndWriteFinalOutputdR6Domainii(double %80, %class.Domain* nonnull align 8 dereferenceable(1312) %81, i32 %82, i32 %83)
  br label %if.end79

if.end79:                                         ; preds = %if.then77, %land.lhs.true74, %if.end72
  %84 = load %class.Domain*, %class.Domain** %locDom, align 8, !tbaa !2
  %isnull = icmp eq %class.Domain* %84, null
  br i1 %isnull, label %delete.end, label %delete.notnull

delete.notnull:                                   ; preds = %if.end79
  call void @_ZN6DomainD1Ev(%class.Domain* %84) #3
  %85 = bitcast %class.Domain* %84 to i8*
  call void @_ZdlPv(i8* %85) #15
  br label %delete.end

delete.end:                                       ; preds = %delete.notnull, %if.end79
  %86 = bitcast double* %elapsed_timeG to i8*
  call void @llvm.lifetime.end.p0i8(i64 8, i8* %86) #3
  %87 = bitcast %struct.timeval* %end to i8*
  call void @llvm.lifetime.end.p0i8(i64 16, i8* %87) #3
  %88 = bitcast double* %elapsed_time to i8*
  call void @llvm.lifetime.end.p0i8(i64 8, i8* %88) #3
  %89 = bitcast %struct.timeval* %start to i8*
  call void @llvm.lifetime.end.p0i8(i64 16, i8* %89) #3
  %90 = bitcast i32* %side to i8*
  call void @llvm.lifetime.end.p0i8(i64 4, i8* %90) #3
  %91 = bitcast i32* %plane to i8*
  call void @llvm.lifetime.end.p0i8(i64 4, i8* %91) #3
  %92 = bitcast i32* %row to i8*
  call void @llvm.lifetime.end.p0i8(i64 4, i8* %92) #3
  %93 = bitcast i32* %col to i8*
  call void @llvm.lifetime.end.p0i8(i64 4, i8* %93) #3
  %94 = bitcast %struct.cmdLineOpts* %opts to i8*
  call void @llvm.lifetime.end.p0i8(i64 36, i8* %94) #3
  %95 = bitcast i32* %myRank to i8*
  call void @llvm.lifetime.end.p0i8(i64 4, i8* %95) #3
  %96 = bitcast i32* %numRanks to i8*
  call void @llvm.lifetime.end.p0i8(i64 4, i8* %96) #3
  %97 = bitcast %class.Domain** %locDom to i8*
  call void @llvm.lifetime.end.p0i8(i64 8, i8* %97) #3
  ret i32 0

eh.resume:                                        ; preds = %lpad
  %exn = load i8*, i8** %exn.slot, align 8
  %sel = load i32, i32* %ehselector.slot, align 4
  %lpad.val = insertvalue { i8*, i32 } undef, i8* %exn, 0
  %lpad.val80 = insertvalue { i8*, i32 } %lpad.val, i32 %sel, 1
  resume { i8*, i32 } %lpad.val80
}

declare dso_local void @_Z23ParseCommandLineOptionsiPPciP11cmdLineOpts(i32, i8**, i32, %struct.cmdLineOpts*) #1

; Function Attrs: inlinehint uwtable
define available_externally dso_local nonnull align 8 dereferenceable(8) %"class.std::basic_ostream"* @_ZStlsISt11char_traitsIcEERSt13basic_ostreamIcT_ES5_PKc(%"class.std::basic_ostream"* nonnull align 8 dereferenceable(8) %__out, i8* %__s) #7 {
entry:
  %__out.addr = alloca %"class.std::basic_ostream"*, align 8
  %__s.addr = alloca i8*, align 8
  store %"class.std::basic_ostream"* %__out, %"class.std::basic_ostream"** %__out.addr, align 8, !tbaa !2
  store i8* %__s, i8** %__s.addr, align 8, !tbaa !2
  %0 = load i8*, i8** %__s.addr, align 8, !tbaa !2
  %tobool = icmp ne i8* %0, null
  br i1 %tobool, label %if.else, label %if.then

if.then:                                          ; preds = %entry
  %1 = load %"class.std::basic_ostream"*, %"class.std::basic_ostream"** %__out.addr, align 8, !tbaa !2
  %2 = bitcast %"class.std::basic_ostream"* %1 to i8**
  %vtable = load i8*, i8** %2, align 8, !tbaa !30
  %vbase.offset.ptr = getelementptr i8, i8* %vtable, i64 -24
  %3 = bitcast i8* %vbase.offset.ptr to i64*
  %vbase.offset = load i64, i64* %3, align 8
  %4 = bitcast %"class.std::basic_ostream"* %1 to i8*
  %add.ptr = getelementptr inbounds i8, i8* %4, i64 %vbase.offset
  %5 = bitcast i8* %add.ptr to %"class.std::basic_ios"*
  call void @_ZNSt9basic_iosIcSt11char_traitsIcEE8setstateESt12_Ios_Iostate(%"class.std::basic_ios"* %5, i32 1)
  br label %if.end

if.else:                                          ; preds = %entry
  %6 = load %"class.std::basic_ostream"*, %"class.std::basic_ostream"** %__out.addr, align 8, !tbaa !2
  %7 = load i8*, i8** %__s.addr, align 8, !tbaa !2
  %8 = load i8*, i8** %__s.addr, align 8, !tbaa !2
  %call = call i64 @_ZNSt11char_traitsIcE6lengthEPKc(i8* %8)
  %call1 = call nonnull align 8 dereferenceable(8) %"class.std::basic_ostream"* @_ZSt16__ostream_insertIcSt11char_traitsIcEERSt13basic_ostreamIT_T0_ES6_PKS3_l(%"class.std::basic_ostream"* nonnull align 8 dereferenceable(8) %6, i8* %7, i64 %call)
  br label %if.end

if.end:                                           ; preds = %if.else, %if.then
  %9 = load %"class.std::basic_ostream"*, %"class.std::basic_ostream"** %__out.addr, align 8, !tbaa !2
  ret %"class.std::basic_ostream"* %9
}

declare dso_local nonnull align 8 dereferenceable(8) %"class.std::basic_ostream"* @_ZNSolsEi(%"class.std::basic_ostream"*, i32) #1

; Function Attrs: uwtable
define available_externally dso_local nonnull align 8 dereferenceable(8) %"class.std::basic_ostream"* @_ZNSolsEl(%"class.std::basic_ostream"* %this, i64 %__n) #0 align 2 {
entry:
  %this.addr = alloca %"class.std::basic_ostream"*, align 8
  %__n.addr = alloca i64, align 8
  store %"class.std::basic_ostream"* %this, %"class.std::basic_ostream"** %this.addr, align 8, !tbaa !2
  store i64 %__n, i64* %__n.addr, align 8, !tbaa !37
  %this1 = load %"class.std::basic_ostream"*, %"class.std::basic_ostream"** %this.addr, align 8
  %0 = load i64, i64* %__n.addr, align 8, !tbaa !37
  %call = call nonnull align 8 dereferenceable(8) %"class.std::basic_ostream"* @_ZNSo9_M_insertIlEERSoT_(%"class.std::basic_ostream"* %this1, i64 %0)
  ret %"class.std::basic_ostream"* %call
}

declare dso_local void @_Z14InitMeshDecompiiPiS_S_S_(i32, i32, i32*, i32*, i32*, i32*) #1

; Function Attrs: nobuiltin allocsize(0)
declare dso_local nonnull i8* @_Znwm(i64) #9

declare dso_local void @_ZN6DomainC1Eiiiiiiiii(%class.Domain*, i32, i32, i32, i32, i32, i32, i32, i32, i32) unnamed_addr #1

declare dso_local i32 @__gxx_personality_v0(...)

; Function Attrs: nobuiltin nounwind
declare dso_local void @_ZdlPv(i8*) #10

; Function Attrs: nounwind
declare dso_local i32 @gettimeofday(%struct.timeval*, %struct.timezone*) #2

; Function Attrs: nounwind uwtable
define linkonce_odr dso_local nonnull align 8 dereferenceable(8) double* @_ZN6Domain4timeEv(%class.Domain* %this) #6 comdat align 2 {
entry:
  %this.addr = alloca %class.Domain*, align 8
  store %class.Domain* %this, %class.Domain** %this.addr, align 8, !tbaa !2
  %this1 = load %class.Domain*, %class.Domain** %this.addr, align 8
  %m_time = getelementptr inbounds %class.Domain, %class.Domain* %this1, i32 0, i32 74
  ret double* %m_time
}

; Function Attrs: nounwind uwtable
define linkonce_odr dso_local nonnull align 8 dereferenceable(8) double* @_ZN6Domain8stoptimeEv(%class.Domain* %this) #6 comdat align 2 {
entry:
  %this.addr = alloca %class.Domain*, align 8
  store %class.Domain* %this, %class.Domain** %this.addr, align 8, !tbaa !2
  %this1 = load %class.Domain*, %class.Domain** %this.addr, align 8
  %m_stoptime = getelementptr inbounds %class.Domain, %class.Domain* %this1, i32 0, i32 79
  ret double* %m_stoptime
}

; Function Attrs: nounwind uwtable
define linkonce_odr dso_local nonnull align 4 dereferenceable(4) i32* @_ZN6Domain5cycleEv(%class.Domain* %this) #6 comdat align 2 {
entry:
  %this.addr = alloca %class.Domain*, align 8
  store %class.Domain* %this, %class.Domain** %this.addr, align 8, !tbaa !2
  %this1 = load %class.Domain*, %class.Domain** %this.addr, align 8
  %m_cycle = getelementptr inbounds %class.Domain, %class.Domain* %this1, i32 0, i32 72
  ret i32* %m_cycle
}

; Function Attrs: inlinehint uwtable
define internal void @_ZL13TimeIncrementR6Domain(%class.Domain* nonnull align 8 dereferenceable(1312) %domain) #7 {
entry:
  %domain.addr = alloca %class.Domain*, align 8
  %targetdt = alloca double, align 8
  %ratio = alloca double, align 8
  %olddt = alloca double, align 8
  %gnewdt = alloca double, align 8
  %newdt = alloca double, align 8
  store %class.Domain* %domain, %class.Domain** %domain.addr, align 8, !tbaa !2
  %0 = bitcast double* %targetdt to i8*
  call void @llvm.lifetime.start.p0i8(i64 8, i8* %0) #3
  %1 = load %class.Domain*, %class.Domain** %domain.addr, align 8, !tbaa !2
  %call = call nonnull align 8 dereferenceable(8) double* @_ZN6Domain8stoptimeEv(%class.Domain* %1)
  %2 = load double, double* %call, align 8, !tbaa !6
  %3 = load %class.Domain*, %class.Domain** %domain.addr, align 8, !tbaa !2
  %call1 = call nonnull align 8 dereferenceable(8) double* @_ZN6Domain4timeEv(%class.Domain* %3)
  %4 = load double, double* %call1, align 8, !tbaa !6
  %sub = fsub double %2, %4
  store double %sub, double* %targetdt, align 8, !tbaa !6
  %5 = load %class.Domain*, %class.Domain** %domain.addr, align 8, !tbaa !2
  %call2 = call nonnull align 8 dereferenceable(8) double* @_ZN6Domain7dtfixedEv(%class.Domain* %5)
  %6 = load double, double* %call2, align 8, !tbaa !6
  %cmp = fcmp ole double %6, 0.000000e+00
  br i1 %cmp, label %land.lhs.true, label %if.end36

land.lhs.true:                                    ; preds = %entry
  %7 = load %class.Domain*, %class.Domain** %domain.addr, align 8, !tbaa !2
  %call3 = call nonnull align 4 dereferenceable(4) i32* @_ZN6Domain5cycleEv(%class.Domain* %7)
  %8 = load i32, i32* %call3, align 4, !tbaa !8
  %cmp4 = icmp ne i32 %8, 0
  br i1 %cmp4, label %if.then, label %if.end36

if.then:                                          ; preds = %land.lhs.true
  %9 = bitcast double* %ratio to i8*
  call void @llvm.lifetime.start.p0i8(i64 8, i8* %9) #3
  %10 = bitcast double* %olddt to i8*
  call void @llvm.lifetime.start.p0i8(i64 8, i8* %10) #3
  %11 = load %class.Domain*, %class.Domain** %domain.addr, align 8, !tbaa !2
  %call5 = call nonnull align 8 dereferenceable(8) double* @_ZN6Domain9deltatimeEv(%class.Domain* %11)
  %12 = load double, double* %call5, align 8, !tbaa !6
  store double %12, double* %olddt, align 8, !tbaa !6
  %13 = bitcast double* %gnewdt to i8*
  call void @llvm.lifetime.start.p0i8(i64 8, i8* %13) #3
  store double 1.000000e+20, double* %gnewdt, align 8, !tbaa !6
  %14 = bitcast double* %newdt to i8*
  call void @llvm.lifetime.start.p0i8(i64 8, i8* %14) #3
  %15 = load %class.Domain*, %class.Domain** %domain.addr, align 8, !tbaa !2
  %call6 = call nonnull align 8 dereferenceable(8) double* @_ZN6Domain9dtcourantEv(%class.Domain* %15)
  %16 = load double, double* %call6, align 8, !tbaa !6
  %17 = load double, double* %gnewdt, align 8, !tbaa !6
  %cmp7 = fcmp olt double %16, %17
  br i1 %cmp7, label %if.then8, label %if.end

if.then8:                                         ; preds = %if.then
  %18 = load %class.Domain*, %class.Domain** %domain.addr, align 8, !tbaa !2
  %call9 = call nonnull align 8 dereferenceable(8) double* @_ZN6Domain9dtcourantEv(%class.Domain* %18)
  %19 = load double, double* %call9, align 8, !tbaa !6
  %div = fdiv double %19, 2.000000e+00
  store double %div, double* %gnewdt, align 8, !tbaa !6
  br label %if.end

if.end:                                           ; preds = %if.then8, %if.then
  %20 = load %class.Domain*, %class.Domain** %domain.addr, align 8, !tbaa !2
  %call10 = call nonnull align 8 dereferenceable(8) double* @_ZN6Domain7dthydroEv(%class.Domain* %20)
  %21 = load double, double* %call10, align 8, !tbaa !6
  %22 = load double, double* %gnewdt, align 8, !tbaa !6
  %cmp11 = fcmp olt double %21, %22
  br i1 %cmp11, label %if.then12, label %if.end15

if.then12:                                        ; preds = %if.end
  %23 = load %class.Domain*, %class.Domain** %domain.addr, align 8, !tbaa !2
  %call13 = call nonnull align 8 dereferenceable(8) double* @_ZN6Domain7dthydroEv(%class.Domain* %23)
  %24 = load double, double* %call13, align 8, !tbaa !6
  %mul = fmul double %24, 2.000000e+00
  %div14 = fdiv double %mul, 3.000000e+00
  store double %div14, double* %gnewdt, align 8, !tbaa !6
  br label %if.end15

if.end15:                                         ; preds = %if.then12, %if.end
  %25 = load double, double* %gnewdt, align 8, !tbaa !6
  store double %25, double* %newdt, align 8, !tbaa !6
  %26 = load double, double* %newdt, align 8, !tbaa !6
  %27 = load double, double* %olddt, align 8, !tbaa !6
  %div16 = fdiv double %26, %27
  store double %div16, double* %ratio, align 8, !tbaa !6
  %28 = load double, double* %ratio, align 8, !tbaa !6
  %cmp17 = fcmp oge double %28, 1.000000e+00
  br i1 %cmp17, label %if.then18, label %if.end29

if.then18:                                        ; preds = %if.end15
  %29 = load double, double* %ratio, align 8, !tbaa !6
  %30 = load %class.Domain*, %class.Domain** %domain.addr, align 8, !tbaa !2
  %call19 = call nonnull align 8 dereferenceable(8) double* @_ZN6Domain15deltatimemultlbEv(%class.Domain* %30)
  %31 = load double, double* %call19, align 8, !tbaa !6
  %cmp20 = fcmp olt double %29, %31
  br i1 %cmp20, label %if.then21, label %if.else

if.then21:                                        ; preds = %if.then18
  %32 = load double, double* %olddt, align 8, !tbaa !6
  store double %32, double* %newdt, align 8, !tbaa !6
  br label %if.end28

if.else:                                          ; preds = %if.then18
  %33 = load double, double* %ratio, align 8, !tbaa !6
  %34 = load %class.Domain*, %class.Domain** %domain.addr, align 8, !tbaa !2
  %call22 = call nonnull align 8 dereferenceable(8) double* @_ZN6Domain15deltatimemultubEv(%class.Domain* %34)
  %35 = load double, double* %call22, align 8, !tbaa !6
  %cmp23 = fcmp ogt double %33, %35
  br i1 %cmp23, label %if.then24, label %if.end27

if.then24:                                        ; preds = %if.else
  %36 = load double, double* %olddt, align 8, !tbaa !6
  %37 = load %class.Domain*, %class.Domain** %domain.addr, align 8, !tbaa !2
  %call25 = call nonnull align 8 dereferenceable(8) double* @_ZN6Domain15deltatimemultubEv(%class.Domain* %37)
  %38 = load double, double* %call25, align 8, !tbaa !6
  %mul26 = fmul double %36, %38
  store double %mul26, double* %newdt, align 8, !tbaa !6
  br label %if.end27

if.end27:                                         ; preds = %if.then24, %if.else
  br label %if.end28

if.end28:                                         ; preds = %if.end27, %if.then21
  br label %if.end29

if.end29:                                         ; preds = %if.end28, %if.end15
  %39 = load double, double* %newdt, align 8, !tbaa !6
  %40 = load %class.Domain*, %class.Domain** %domain.addr, align 8, !tbaa !2
  %call30 = call nonnull align 8 dereferenceable(8) double* @_ZN6Domain5dtmaxEv(%class.Domain* %40)
  %41 = load double, double* %call30, align 8, !tbaa !6
  %cmp31 = fcmp ogt double %39, %41
  br i1 %cmp31, label %if.then32, label %if.end34

if.then32:                                        ; preds = %if.end29
  %42 = load %class.Domain*, %class.Domain** %domain.addr, align 8, !tbaa !2
  %call33 = call nonnull align 8 dereferenceable(8) double* @_ZN6Domain5dtmaxEv(%class.Domain* %42)
  %43 = load double, double* %call33, align 8, !tbaa !6
  store double %43, double* %newdt, align 8, !tbaa !6
  br label %if.end34

if.end34:                                         ; preds = %if.then32, %if.end29
  %44 = load double, double* %newdt, align 8, !tbaa !6
  %45 = load %class.Domain*, %class.Domain** %domain.addr, align 8, !tbaa !2
  %call35 = call nonnull align 8 dereferenceable(8) double* @_ZN6Domain9deltatimeEv(%class.Domain* %45)
  store double %44, double* %call35, align 8, !tbaa !6
  %46 = bitcast double* %newdt to i8*
  call void @llvm.lifetime.end.p0i8(i64 8, i8* %46) #3
  %47 = bitcast double* %gnewdt to i8*
  call void @llvm.lifetime.end.p0i8(i64 8, i8* %47) #3
  %48 = bitcast double* %olddt to i8*
  call void @llvm.lifetime.end.p0i8(i64 8, i8* %48) #3
  %49 = bitcast double* %ratio to i8*
  call void @llvm.lifetime.end.p0i8(i64 8, i8* %49) #3
  br label %if.end36

if.end36:                                         ; preds = %if.end34, %land.lhs.true, %entry
  %50 = load double, double* %targetdt, align 8, !tbaa !6
  %51 = load %class.Domain*, %class.Domain** %domain.addr, align 8, !tbaa !2
  %call37 = call nonnull align 8 dereferenceable(8) double* @_ZN6Domain9deltatimeEv(%class.Domain* %51)
  %52 = load double, double* %call37, align 8, !tbaa !6
  %cmp38 = fcmp ogt double %50, %52
  br i1 %cmp38, label %land.lhs.true39, label %if.end48

land.lhs.true39:                                  ; preds = %if.end36
  %53 = load double, double* %targetdt, align 8, !tbaa !6
  %54 = load %class.Domain*, %class.Domain** %domain.addr, align 8, !tbaa !2
  %call40 = call nonnull align 8 dereferenceable(8) double* @_ZN6Domain9deltatimeEv(%class.Domain* %54)
  %55 = load double, double* %call40, align 8, !tbaa !6
  %mul41 = fmul double 4.000000e+00, %55
  %div42 = fdiv double %mul41, 3.000000e+00
  %cmp43 = fcmp olt double %53, %div42
  br i1 %cmp43, label %if.then44, label %if.end48

if.then44:                                        ; preds = %land.lhs.true39
  %56 = load %class.Domain*, %class.Domain** %domain.addr, align 8, !tbaa !2
  %call45 = call nonnull align 8 dereferenceable(8) double* @_ZN6Domain9deltatimeEv(%class.Domain* %56)
  %57 = load double, double* %call45, align 8, !tbaa !6
  %mul46 = fmul double 2.000000e+00, %57
  %div47 = fdiv double %mul46, 3.000000e+00
  store double %div47, double* %targetdt, align 8, !tbaa !6
  br label %if.end48

if.end48:                                         ; preds = %if.then44, %land.lhs.true39, %if.end36
  %58 = load double, double* %targetdt, align 8, !tbaa !6
  %59 = load %class.Domain*, %class.Domain** %domain.addr, align 8, !tbaa !2
  %call49 = call nonnull align 8 dereferenceable(8) double* @_ZN6Domain9deltatimeEv(%class.Domain* %59)
  %60 = load double, double* %call49, align 8, !tbaa !6
  %cmp50 = fcmp olt double %58, %60
  br i1 %cmp50, label %if.then51, label %if.end53

if.then51:                                        ; preds = %if.end48
  %61 = load double, double* %targetdt, align 8, !tbaa !6
  %62 = load %class.Domain*, %class.Domain** %domain.addr, align 8, !tbaa !2
  %call52 = call nonnull align 8 dereferenceable(8) double* @_ZN6Domain9deltatimeEv(%class.Domain* %62)
  store double %61, double* %call52, align 8, !tbaa !6
  br label %if.end53

if.end53:                                         ; preds = %if.then51, %if.end48
  %63 = load %class.Domain*, %class.Domain** %domain.addr, align 8, !tbaa !2
  %call54 = call nonnull align 8 dereferenceable(8) double* @_ZN6Domain9deltatimeEv(%class.Domain* %63)
  %64 = load double, double* %call54, align 8, !tbaa !6
  %65 = load %class.Domain*, %class.Domain** %domain.addr, align 8, !tbaa !2
  %call55 = call nonnull align 8 dereferenceable(8) double* @_ZN6Domain4timeEv(%class.Domain* %65)
  %66 = load double, double* %call55, align 8, !tbaa !6
  %add = fadd double %66, %64
  store double %add, double* %call55, align 8, !tbaa !6
  %67 = load %class.Domain*, %class.Domain** %domain.addr, align 8, !tbaa !2
  %call56 = call nonnull align 4 dereferenceable(4) i32* @_ZN6Domain5cycleEv(%class.Domain* %67)
  %68 = load i32, i32* %call56, align 4, !tbaa !8
  %inc = add nsw i32 %68, 1
  store i32 %inc, i32* %call56, align 4, !tbaa !8
  %69 = bitcast double* %targetdt to i8*
  call void @llvm.lifetime.end.p0i8(i64 8, i8* %69) #3
  ret void
}

; Function Attrs: inlinehint uwtable
define internal void @_ZL16LagrangeLeapFrogR6Domain(%class.Domain* nonnull align 8 dereferenceable(1312) %domain) #7 {
entry:
  %domain.addr = alloca %class.Domain*, align 8
  store %class.Domain* %domain, %class.Domain** %domain.addr, align 8, !tbaa !2
  %0 = load %class.Domain*, %class.Domain** %domain.addr, align 8, !tbaa !2
  call void @_ZL13LagrangeNodalR6Domain(%class.Domain* nonnull align 8 dereferenceable(1312) %0)
  %1 = load %class.Domain*, %class.Domain** %domain.addr, align 8, !tbaa !2
  %2 = load %class.Domain*, %class.Domain** %domain.addr, align 8, !tbaa !2
  %call = call nonnull align 4 dereferenceable(4) i32* @_ZN6Domain7numElemEv(%class.Domain* %2)
  %3 = load i32, i32* %call, align 4, !tbaa !8
  call void @_ZL16LagrangeElementsR6Domaini(%class.Domain* nonnull align 8 dereferenceable(1312) %1, i32 %3)
  %4 = load %class.Domain*, %class.Domain** %domain.addr, align 8, !tbaa !2
  call void @_ZL27CalcTimeConstraintsForElemsR6Domain(%class.Domain* nonnull align 8 dereferenceable(1312) %4)
  ret void
}

; Function Attrs: uwtable
define available_externally dso_local nonnull align 8 dereferenceable(8) %"class.std::basic_ostream"* @_ZNSolsEPFRSt8ios_baseS0_E(%"class.std::basic_ostream"* %this, %"class.std::ios_base"* (%"class.std::ios_base"*)* %__pf) #0 align 2 {
entry:
  %this.addr = alloca %"class.std::basic_ostream"*, align 8
  %__pf.addr = alloca %"class.std::ios_base"* (%"class.std::ios_base"*)*, align 8
  store %"class.std::basic_ostream"* %this, %"class.std::basic_ostream"** %this.addr, align 8, !tbaa !2
  store %"class.std::ios_base"* (%"class.std::ios_base"*)* %__pf, %"class.std::ios_base"* (%"class.std::ios_base"*)** %__pf.addr, align 8, !tbaa !2
  %this1 = load %"class.std::basic_ostream"*, %"class.std::basic_ostream"** %this.addr, align 8
  %0 = load %"class.std::ios_base"* (%"class.std::ios_base"*)*, %"class.std::ios_base"* (%"class.std::ios_base"*)** %__pf.addr, align 8, !tbaa !2
  %1 = bitcast %"class.std::basic_ostream"* %this1 to i8**
  %vtable = load i8*, i8** %1, align 8, !tbaa !30
  %vbase.offset.ptr = getelementptr i8, i8* %vtable, i64 -24
  %2 = bitcast i8* %vbase.offset.ptr to i64*
  %vbase.offset = load i64, i64* %2, align 8
  %3 = bitcast %"class.std::basic_ostream"* %this1 to i8*
  %add.ptr = getelementptr inbounds i8, i8* %3, i64 %vbase.offset
  %4 = bitcast i8* %add.ptr to %"class.std::ios_base"*
  %call = call nonnull align 8 dereferenceable(216) %"class.std::ios_base"* %0(%"class.std::ios_base"* nonnull align 8 dereferenceable(216) %4)
  ret %"class.std::basic_ostream"* %this1
}

; Function Attrs: inlinehint uwtable
define linkonce_odr dso_local nonnull align 8 dereferenceable(216) %"class.std::ios_base"* @_ZSt10scientificRSt8ios_base(%"class.std::ios_base"* nonnull align 8 dereferenceable(216) %__base) #7 comdat {
entry:
  %__base.addr = alloca %"class.std::ios_base"*, align 8
  store %"class.std::ios_base"* %__base, %"class.std::ios_base"** %__base.addr, align 8, !tbaa !2
  %0 = load %"class.std::ios_base"*, %"class.std::ios_base"** %__base.addr, align 8, !tbaa !2
  %call = call i32 @_ZNSt8ios_base4setfESt13_Ios_FmtflagsS0_(%"class.std::ios_base"* %0, i32 256, i32 260)
  %1 = load %"class.std::ios_base"*, %"class.std::ios_base"** %__base.addr, align 8, !tbaa !2
  ret %"class.std::ios_base"* %1
}

; Function Attrs: uwtable
define available_externally dso_local nonnull align 8 dereferenceable(8) %"class.std::basic_ostream"* @_ZNSolsEd(%"class.std::basic_ostream"* %this, double %__f) #0 align 2 {
entry:
  %this.addr = alloca %"class.std::basic_ostream"*, align 8
  %__f.addr = alloca double, align 8
  store %"class.std::basic_ostream"* %this, %"class.std::basic_ostream"** %this.addr, align 8, !tbaa !2
  store double %__f, double* %__f.addr, align 8, !tbaa !6
  %this1 = load %"class.std::basic_ostream"*, %"class.std::basic_ostream"** %this.addr, align 8
  %0 = load double, double* %__f.addr, align 8, !tbaa !6
  %call = call nonnull align 8 dereferenceable(8) %"class.std::basic_ostream"* @_ZNSo9_M_insertIdEERSoT_(%"class.std::basic_ostream"* %this1, double %0)
  ret %"class.std::basic_ostream"* %call
}

; Function Attrs: nounwind uwtable
define linkonce_odr dso_local nonnull align 8 dereferenceable(8) double* @_ZN6Domain9deltatimeEv(%class.Domain* %this) #6 comdat align 2 {
entry:
  %this.addr = alloca %class.Domain*, align 8
  store %class.Domain* %this, %class.Domain** %this.addr, align 8, !tbaa !2
  %this1 = load %class.Domain*, %class.Domain** %this.addr, align 8
  %m_deltatime = getelementptr inbounds %class.Domain, %class.Domain* %this1, i32 0, i32 75
  ret double* %m_deltatime
}

; Function Attrs: uwtable
define linkonce_odr dso_local void @_ZNSt8ios_base6unsetfESt13_Ios_Fmtflags(%"class.std::ios_base"* %this, i32 %__mask) #0 comdat align 2 {
entry:
  %this.addr = alloca %"class.std::ios_base"*, align 8
  %__mask.addr = alloca i32, align 4
  store %"class.std::ios_base"* %this, %"class.std::ios_base"** %this.addr, align 8, !tbaa !2
  store i32 %__mask, i32* %__mask.addr, align 4, !tbaa !38
  %this1 = load %"class.std::ios_base"*, %"class.std::ios_base"** %this.addr, align 8
  %0 = load i32, i32* %__mask.addr, align 4, !tbaa !38
  %call = call i32 @_ZStcoSt13_Ios_Fmtflags(i32 %0)
  %_M_flags = getelementptr inbounds %"class.std::ios_base", %"class.std::ios_base"* %this1, i32 0, i32 3
  %call2 = call nonnull align 4 dereferenceable(4) i32* @_ZStaNRSt13_Ios_FmtflagsS_(i32* nonnull align 4 dereferenceable(4) %_M_flags, i32 %call)
  ret void
}

declare dso_local void @_Z11DumpToVisitR6Domainiii(%class.Domain* nonnull align 8 dereferenceable(1312), i32, i32, i32) #1

declare dso_local void @_Z25VerifyAndWriteFinalOutputdR6Domainii(double, %class.Domain* nonnull align 8 dereferenceable(1312), i32, i32) #1

; Function Attrs: nounwind
declare dso_local void @_ZN6DomainD1Ev(%class.Domain*) unnamed_addr #2

; Function Attrs: nounwind uwtable
define linkonce_odr dso_local nonnull align 4 dereferenceable(4) i32* @_ZNSt6vectorIiSaIiEEixEm(%"class.std::vector.0"* %this, i64 %__n) #6 comdat align 2 {
entry:
  %this.addr = alloca %"class.std::vector.0"*, align 8
  %__n.addr = alloca i64, align 8
  store %"class.std::vector.0"* %this, %"class.std::vector.0"** %this.addr, align 8, !tbaa !2
  store i64 %__n, i64* %__n.addr, align 8, !tbaa !37
  %this1 = load %"class.std::vector.0"*, %"class.std::vector.0"** %this.addr, align 8
  %0 = bitcast %"class.std::vector.0"* %this1 to %"struct.std::_Vector_base.1"*
  %_M_impl = getelementptr inbounds %"struct.std::_Vector_base.1", %"struct.std::_Vector_base.1"* %0, i32 0, i32 0
  %_M_start = getelementptr inbounds %"struct.std::_Vector_base<int, std::allocator<int>>::_Vector_impl", %"struct.std::_Vector_base<int, std::allocator<int>>::_Vector_impl"* %_M_impl, i32 0, i32 0
  %1 = load i32*, i32** %_M_start, align 8, !tbaa !40
  %2 = load i64, i64* %__n.addr, align 8, !tbaa !37
  %add.ptr = getelementptr inbounds i32, i32* %1, i64 %2
  ret i32* %add.ptr
}

; Function Attrs: nounwind uwtable
define linkonce_odr dso_local nonnull align 8 dereferenceable(8) double* @_ZN6Domain1xEi(%class.Domain* %this, i32 %idx) #6 comdat align 2 {
entry:
  %this.addr = alloca %class.Domain*, align 8
  %idx.addr = alloca i32, align 4
  store %class.Domain* %this, %class.Domain** %this.addr, align 8, !tbaa !2
  store i32 %idx, i32* %idx.addr, align 4, !tbaa !8
  %this1 = load %class.Domain*, %class.Domain** %this.addr, align 8
  %m_x = getelementptr inbounds %class.Domain, %class.Domain* %this1, i32 0, i32 0
  %0 = load i32, i32* %idx.addr, align 4, !tbaa !8
  %conv = sext i32 %0 to i64
  %call = call nonnull align 8 dereferenceable(8) double* @_ZNSt6vectorIdSaIdEEixEm(%"class.std::vector"* %m_x, i64 %conv) #3
  ret double* %call
}

; Function Attrs: nounwind uwtable
define linkonce_odr dso_local nonnull align 8 dereferenceable(8) double* @_ZN6Domain1yEi(%class.Domain* %this, i32 %idx) #6 comdat align 2 {
entry:
  %this.addr = alloca %class.Domain*, align 8
  %idx.addr = alloca i32, align 4
  store %class.Domain* %this, %class.Domain** %this.addr, align 8, !tbaa !2
  store i32 %idx, i32* %idx.addr, align 4, !tbaa !8
  %this1 = load %class.Domain*, %class.Domain** %this.addr, align 8
  %m_y = getelementptr inbounds %class.Domain, %class.Domain* %this1, i32 0, i32 1
  %0 = load i32, i32* %idx.addr, align 4, !tbaa !8
  %conv = sext i32 %0 to i64
  %call = call nonnull align 8 dereferenceable(8) double* @_ZNSt6vectorIdSaIdEEixEm(%"class.std::vector"* %m_y, i64 %conv) #3
  ret double* %call
}

; Function Attrs: nounwind uwtable
define linkonce_odr dso_local nonnull align 8 dereferenceable(8) double* @_ZN6Domain1zEi(%class.Domain* %this, i32 %idx) #6 comdat align 2 {
entry:
  %this.addr = alloca %class.Domain*, align 8
  %idx.addr = alloca i32, align 4
  store %class.Domain* %this, %class.Domain** %this.addr, align 8, !tbaa !2
  store i32 %idx, i32* %idx.addr, align 4, !tbaa !8
  %this1 = load %class.Domain*, %class.Domain** %this.addr, align 8
  %m_z = getelementptr inbounds %class.Domain, %class.Domain* %this1, i32 0, i32 2
  %0 = load i32, i32* %idx.addr, align 4, !tbaa !8
  %conv = sext i32 %0 to i64
  %call = call nonnull align 8 dereferenceable(8) double* @_ZNSt6vectorIdSaIdEEixEm(%"class.std::vector"* %m_z, i64 %conv) #3
  ret double* %call
}

; Function Attrs: nounwind uwtable
define linkonce_odr dso_local nonnull align 8 dereferenceable(8) double* @_ZNSt6vectorIdSaIdEEixEm(%"class.std::vector"* %this, i64 %__n) #6 comdat align 2 {
entry:
  %this.addr = alloca %"class.std::vector"*, align 8
  %__n.addr = alloca i64, align 8
  store %"class.std::vector"* %this, %"class.std::vector"** %this.addr, align 8, !tbaa !2
  store i64 %__n, i64* %__n.addr, align 8, !tbaa !37
  %this1 = load %"class.std::vector"*, %"class.std::vector"** %this.addr, align 8
  %0 = bitcast %"class.std::vector"* %this1 to %"struct.std::_Vector_base"*
  %_M_impl = getelementptr inbounds %"struct.std::_Vector_base", %"struct.std::_Vector_base"* %0, i32 0, i32 0
  %_M_start = getelementptr inbounds %"struct.std::_Vector_base<double, std::allocator<double>>::_Vector_impl", %"struct.std::_Vector_base<double, std::allocator<double>>::_Vector_impl"* %_M_impl, i32 0, i32 0
  %1 = load double*, double** %_M_start, align 8, !tbaa !43
  %2 = load i64, i64* %__n.addr, align 8, !tbaa !37
  %add.ptr = getelementptr inbounds double, double* %1, i64 %2
  ret double* %add.ptr
}

; Function Attrs: inlinehint nounwind uwtable
define internal double @_ZL8AreaFacedddddddddddd(double %x0, double %x1, double %x2, double %x3, double %y0, double %y1, double %y2, double %y3, double %z0, double %z1, double %z2, double %z3) #4 {
entry:
  %x0.addr = alloca double, align 8
  %x1.addr = alloca double, align 8
  %x2.addr = alloca double, align 8
  %x3.addr = alloca double, align 8
  %y0.addr = alloca double, align 8
  %y1.addr = alloca double, align 8
  %y2.addr = alloca double, align 8
  %y3.addr = alloca double, align 8
  %z0.addr = alloca double, align 8
  %z1.addr = alloca double, align 8
  %z2.addr = alloca double, align 8
  %z3.addr = alloca double, align 8
  %fx = alloca double, align 8
  %fy = alloca double, align 8
  %fz = alloca double, align 8
  %gx = alloca double, align 8
  %gy = alloca double, align 8
  %gz = alloca double, align 8
  %area = alloca double, align 8
  store double %x0, double* %x0.addr, align 8, !tbaa !6
  store double %x1, double* %x1.addr, align 8, !tbaa !6
  store double %x2, double* %x2.addr, align 8, !tbaa !6
  store double %x3, double* %x3.addr, align 8, !tbaa !6
  store double %y0, double* %y0.addr, align 8, !tbaa !6
  store double %y1, double* %y1.addr, align 8, !tbaa !6
  store double %y2, double* %y2.addr, align 8, !tbaa !6
  store double %y3, double* %y3.addr, align 8, !tbaa !6
  store double %z0, double* %z0.addr, align 8, !tbaa !6
  store double %z1, double* %z1.addr, align 8, !tbaa !6
  store double %z2, double* %z2.addr, align 8, !tbaa !6
  store double %z3, double* %z3.addr, align 8, !tbaa !6
  %0 = bitcast double* %fx to i8*
  call void @llvm.lifetime.start.p0i8(i64 8, i8* %0) #3
  %1 = load double, double* %x2.addr, align 8, !tbaa !6
  %2 = load double, double* %x0.addr, align 8, !tbaa !6
  %sub = fsub double %1, %2
  %3 = load double, double* %x3.addr, align 8, !tbaa !6
  %4 = load double, double* %x1.addr, align 8, !tbaa !6
  %sub1 = fsub double %3, %4
  %sub2 = fsub double %sub, %sub1
  store double %sub2, double* %fx, align 8, !tbaa !6
  %5 = bitcast double* %fy to i8*
  call void @llvm.lifetime.start.p0i8(i64 8, i8* %5) #3
  %6 = load double, double* %y2.addr, align 8, !tbaa !6
  %7 = load double, double* %y0.addr, align 8, !tbaa !6
  %sub3 = fsub double %6, %7
  %8 = load double, double* %y3.addr, align 8, !tbaa !6
  %9 = load double, double* %y1.addr, align 8, !tbaa !6
  %sub4 = fsub double %8, %9
  %sub5 = fsub double %sub3, %sub4
  store double %sub5, double* %fy, align 8, !tbaa !6
  %10 = bitcast double* %fz to i8*
  call void @llvm.lifetime.start.p0i8(i64 8, i8* %10) #3
  %11 = load double, double* %z2.addr, align 8, !tbaa !6
  %12 = load double, double* %z0.addr, align 8, !tbaa !6
  %sub6 = fsub double %11, %12
  %13 = load double, double* %z3.addr, align 8, !tbaa !6
  %14 = load double, double* %z1.addr, align 8, !tbaa !6
  %sub7 = fsub double %13, %14
  %sub8 = fsub double %sub6, %sub7
  store double %sub8, double* %fz, align 8, !tbaa !6
  %15 = bitcast double* %gx to i8*
  call void @llvm.lifetime.start.p0i8(i64 8, i8* %15) #3
  %16 = load double, double* %x2.addr, align 8, !tbaa !6
  %17 = load double, double* %x0.addr, align 8, !tbaa !6
  %sub9 = fsub double %16, %17
  %18 = load double, double* %x3.addr, align 8, !tbaa !6
  %19 = load double, double* %x1.addr, align 8, !tbaa !6
  %sub10 = fsub double %18, %19
  %add = fadd double %sub9, %sub10
  store double %add, double* %gx, align 8, !tbaa !6
  %20 = bitcast double* %gy to i8*
  call void @llvm.lifetime.start.p0i8(i64 8, i8* %20) #3
  %21 = load double, double* %y2.addr, align 8, !tbaa !6
  %22 = load double, double* %y0.addr, align 8, !tbaa !6
  %sub11 = fsub double %21, %22
  %23 = load double, double* %y3.addr, align 8, !tbaa !6
  %24 = load double, double* %y1.addr, align 8, !tbaa !6
  %sub12 = fsub double %23, %24
  %add13 = fadd double %sub11, %sub12
  store double %add13, double* %gy, align 8, !tbaa !6
  %25 = bitcast double* %gz to i8*
  call void @llvm.lifetime.start.p0i8(i64 8, i8* %25) #3
  %26 = load double, double* %z2.addr, align 8, !tbaa !6
  %27 = load double, double* %z0.addr, align 8, !tbaa !6
  %sub14 = fsub double %26, %27
  %28 = load double, double* %z3.addr, align 8, !tbaa !6
  %29 = load double, double* %z1.addr, align 8, !tbaa !6
  %sub15 = fsub double %28, %29
  %add16 = fadd double %sub14, %sub15
  store double %add16, double* %gz, align 8, !tbaa !6
  %30 = bitcast double* %area to i8*
  call void @llvm.lifetime.start.p0i8(i64 8, i8* %30) #3
  %31 = load double, double* %fx, align 8, !tbaa !6
  %32 = load double, double* %fx, align 8, !tbaa !6
  %mul = fmul double %31, %32
  %33 = load double, double* %fy, align 8, !tbaa !6
  %34 = load double, double* %fy, align 8, !tbaa !6
  %mul17 = fmul double %33, %34
  %add18 = fadd double %mul, %mul17
  %35 = load double, double* %fz, align 8, !tbaa !6
  %36 = load double, double* %fz, align 8, !tbaa !6
  %mul19 = fmul double %35, %36
  %add20 = fadd double %add18, %mul19
  %37 = load double, double* %gx, align 8, !tbaa !6
  %38 = load double, double* %gx, align 8, !tbaa !6
  %mul21 = fmul double %37, %38
  %39 = load double, double* %gy, align 8, !tbaa !6
  %40 = load double, double* %gy, align 8, !tbaa !6
  %mul22 = fmul double %39, %40
  %add23 = fadd double %mul21, %mul22
  %41 = load double, double* %gz, align 8, !tbaa !6
  %42 = load double, double* %gz, align 8, !tbaa !6
  %mul24 = fmul double %41, %42
  %add25 = fadd double %add23, %mul24
  %mul26 = fmul double %add20, %add25
  %43 = load double, double* %fx, align 8, !tbaa !6
  %44 = load double, double* %gx, align 8, !tbaa !6
  %mul27 = fmul double %43, %44
  %45 = load double, double* %fy, align 8, !tbaa !6
  %46 = load double, double* %gy, align 8, !tbaa !6
  %mul28 = fmul double %45, %46
  %add29 = fadd double %mul27, %mul28
  %47 = load double, double* %fz, align 8, !tbaa !6
  %48 = load double, double* %gz, align 8, !tbaa !6
  %mul30 = fmul double %47, %48
  %add31 = fadd double %add29, %mul30
  %49 = load double, double* %fx, align 8, !tbaa !6
  %50 = load double, double* %gx, align 8, !tbaa !6
  %mul32 = fmul double %49, %50
  %51 = load double, double* %fy, align 8, !tbaa !6
  %52 = load double, double* %gy, align 8, !tbaa !6
  %mul33 = fmul double %51, %52
  %add34 = fadd double %mul32, %mul33
  %53 = load double, double* %fz, align 8, !tbaa !6
  %54 = load double, double* %gz, align 8, !tbaa !6
  %mul35 = fmul double %53, %54
  %add36 = fadd double %add34, %mul35
  %mul37 = fmul double %add31, %add36
  %sub38 = fsub double %mul26, %mul37
  store double %sub38, double* %area, align 8, !tbaa !6
  %55 = load double, double* %area, align 8, !tbaa !6
  %56 = bitcast double* %area to i8*
  call void @llvm.lifetime.end.p0i8(i64 8, i8* %56) #3
  %57 = bitcast double* %gz to i8*
  call void @llvm.lifetime.end.p0i8(i64 8, i8* %57) #3
  %58 = bitcast double* %gy to i8*
  call void @llvm.lifetime.end.p0i8(i64 8, i8* %58) #3
  %59 = bitcast double* %gx to i8*
  call void @llvm.lifetime.end.p0i8(i64 8, i8* %59) #3
  %60 = bitcast double* %fz to i8*
  call void @llvm.lifetime.end.p0i8(i64 8, i8* %60) #3
  %61 = bitcast double* %fy to i8*
  call void @llvm.lifetime.end.p0i8(i64 8, i8* %61) #3
  %62 = bitcast double* %fx to i8*
  call void @llvm.lifetime.end.p0i8(i64 8, i8* %62) #3
  ret double %55
}

; Function Attrs: inlinehint nounwind uwtable
define linkonce_odr dso_local nonnull align 8 dereferenceable(8) double* @_ZSt3maxIdERKT_S2_S2_(double* nonnull align 8 dereferenceable(8) %__a, double* nonnull align 8 dereferenceable(8) %__b) #4 comdat {
entry:
  %retval = alloca double*, align 8
  %__a.addr = alloca double*, align 8
  %__b.addr = alloca double*, align 8
  store double* %__a, double** %__a.addr, align 8, !tbaa !2
  store double* %__b, double** %__b.addr, align 8, !tbaa !2
  %0 = load double*, double** %__a.addr, align 8, !tbaa !2
  %1 = load double, double* %0, align 8, !tbaa !6
  %2 = load double*, double** %__b.addr, align 8, !tbaa !2
  %3 = load double, double* %2, align 8, !tbaa !6
  %cmp = fcmp olt double %1, %3
  br i1 %cmp, label %if.then, label %if.end

if.then:                                          ; preds = %entry
  %4 = load double*, double** %__b.addr, align 8, !tbaa !2
  store double* %4, double** %retval, align 8
  br label %return

if.end:                                           ; preds = %entry
  %5 = load double*, double** %__a.addr, align 8, !tbaa !2
  store double* %5, double** %retval, align 8
  br label %return

return:                                           ; preds = %if.end, %if.then
  %6 = load double*, double** %retval, align 8
  ret double* %6
}

; Function Attrs: inlinehint nounwind uwtable
define linkonce_odr dso_local double @_Z4SQRTd(double %arg) #4 comdat {
entry:
  %arg.addr = alloca double, align 8
  store double %arg, double* %arg.addr, align 8, !tbaa !6
  %0 = load double, double* %arg.addr, align 8, !tbaa !6
  %call = call double @sqrt(double %0) #3
  ret double %call
}

; Function Attrs: nounwind
declare dso_local double @sqrt(double) #2

; Function Attrs: nounwind uwtable
define linkonce_odr dso_local nonnull align 8 dereferenceable(8) double* @_ZN6Domain7dtfixedEv(%class.Domain* %this) #6 comdat align 2 {
entry:
  %this.addr = alloca %class.Domain*, align 8
  store %class.Domain* %this, %class.Domain** %this.addr, align 8, !tbaa !2
  %this1 = load %class.Domain*, %class.Domain** %this.addr, align 8
  %m_dtfixed = getelementptr inbounds %class.Domain, %class.Domain* %this1, i32 0, i32 73
  ret double* %m_dtfixed
}

; Function Attrs: nounwind uwtable
define linkonce_odr dso_local nonnull align 8 dereferenceable(8) double* @_ZN6Domain9dtcourantEv(%class.Domain* %this) #6 comdat align 2 {
entry:
  %this.addr = alloca %class.Domain*, align 8
  store %class.Domain* %this, %class.Domain** %this.addr, align 8, !tbaa !2
  %this1 = load %class.Domain*, %class.Domain** %this.addr, align 8
  %m_dtcourant = getelementptr inbounds %class.Domain, %class.Domain* %this1, i32 0, i32 70
  ret double* %m_dtcourant
}

; Function Attrs: nounwind uwtable
define linkonce_odr dso_local nonnull align 8 dereferenceable(8) double* @_ZN6Domain7dthydroEv(%class.Domain* %this) #6 comdat align 2 {
entry:
  %this.addr = alloca %class.Domain*, align 8
  store %class.Domain* %this, %class.Domain** %this.addr, align 8, !tbaa !2
  %this1 = load %class.Domain*, %class.Domain** %this.addr, align 8
  %m_dthydro = getelementptr inbounds %class.Domain, %class.Domain* %this1, i32 0, i32 71
  ret double* %m_dthydro
}

; Function Attrs: nounwind uwtable
define linkonce_odr dso_local nonnull align 8 dereferenceable(8) double* @_ZN6Domain15deltatimemultlbEv(%class.Domain* %this) #6 comdat align 2 {
entry:
  %this.addr = alloca %class.Domain*, align 8
  store %class.Domain* %this, %class.Domain** %this.addr, align 8, !tbaa !2
  %this1 = load %class.Domain*, %class.Domain** %this.addr, align 8
  %m_deltatimemultlb = getelementptr inbounds %class.Domain, %class.Domain* %this1, i32 0, i32 76
  ret double* %m_deltatimemultlb
}

; Function Attrs: nounwind uwtable
define linkonce_odr dso_local nonnull align 8 dereferenceable(8) double* @_ZN6Domain15deltatimemultubEv(%class.Domain* %this) #6 comdat align 2 {
entry:
  %this.addr = alloca %class.Domain*, align 8
  store %class.Domain* %this, %class.Domain** %this.addr, align 8, !tbaa !2
  %this1 = load %class.Domain*, %class.Domain** %this.addr, align 8
  %m_deltatimemultub = getelementptr inbounds %class.Domain, %class.Domain* %this1, i32 0, i32 77
  ret double* %m_deltatimemultub
}

; Function Attrs: nounwind uwtable
define linkonce_odr dso_local nonnull align 8 dereferenceable(8) double* @_ZN6Domain5dtmaxEv(%class.Domain* %this) #6 comdat align 2 {
entry:
  %this.addr = alloca %class.Domain*, align 8
  store %class.Domain* %this, %class.Domain** %this.addr, align 8, !tbaa !2
  %this1 = load %class.Domain*, %class.Domain** %this.addr, align 8
  %m_dtmax = getelementptr inbounds %class.Domain, %class.Domain* %this1, i32 0, i32 78
  ret double* %m_dtmax
}

; Function Attrs: inlinehint uwtable
define internal void @_ZL13LagrangeNodalR6Domain(%class.Domain* nonnull align 8 dereferenceable(1312) %domain) #7 {
entry:
  %domain.addr = alloca %class.Domain*, align 8
  %delt = alloca double, align 8
  %u_cut = alloca double, align 8
  store %class.Domain* %domain, %class.Domain** %domain.addr, align 8, !tbaa !2
  %0 = bitcast double* %delt to i8*
  call void @llvm.lifetime.start.p0i8(i64 8, i8* %0) #3
  %1 = load %class.Domain*, %class.Domain** %domain.addr, align 8, !tbaa !2
  %call = call nonnull align 8 dereferenceable(8) double* @_ZN6Domain9deltatimeEv(%class.Domain* %1)
  %2 = load double, double* %call, align 8, !tbaa !6
  store double %2, double* %delt, align 8, !tbaa !6
  %3 = bitcast double* %u_cut to i8*
  call void @llvm.lifetime.start.p0i8(i64 8, i8* %3) #3
  %4 = load %class.Domain*, %class.Domain** %domain.addr, align 8, !tbaa !2
  %call1 = call double @_ZNK6Domain5u_cutEv(%class.Domain* %4)
  store double %call1, double* %u_cut, align 8, !tbaa !6
  %5 = load %class.Domain*, %class.Domain** %domain.addr, align 8, !tbaa !2
  call void @_ZL17CalcForceForNodesR6Domain(%class.Domain* nonnull align 8 dereferenceable(1312) %5)
  %6 = load %class.Domain*, %class.Domain** %domain.addr, align 8, !tbaa !2
  %7 = load %class.Domain*, %class.Domain** %domain.addr, align 8, !tbaa !2
  %call2 = call nonnull align 4 dereferenceable(4) i32* @_ZN6Domain7numNodeEv(%class.Domain* %7)
  %8 = load i32, i32* %call2, align 4, !tbaa !8
  call void @_ZL24CalcAccelerationForNodesR6Domaini(%class.Domain* nonnull align 8 dereferenceable(1312) %6, i32 %8)
  %9 = load %class.Domain*, %class.Domain** %domain.addr, align 8, !tbaa !2
  call void @_ZL43ApplyAccelerationBoundaryConditionsForNodesR6Domain(%class.Domain* nonnull align 8 dereferenceable(1312) %9)
  %10 = load %class.Domain*, %class.Domain** %domain.addr, align 8, !tbaa !2
  %11 = load double, double* %delt, align 8, !tbaa !6
  %12 = load double, double* %u_cut, align 8, !tbaa !6
  %13 = load %class.Domain*, %class.Domain** %domain.addr, align 8, !tbaa !2
  %call3 = call nonnull align 4 dereferenceable(4) i32* @_ZN6Domain7numNodeEv(%class.Domain* %13)
  %14 = load i32, i32* %call3, align 4, !tbaa !8
  call void @_ZL20CalcVelocityForNodesR6Domainddi(%class.Domain* nonnull align 8 dereferenceable(1312) %10, double %11, double %12, i32 %14)
  %15 = load %class.Domain*, %class.Domain** %domain.addr, align 8, !tbaa !2
  %16 = load double, double* %delt, align 8, !tbaa !6
  %17 = load %class.Domain*, %class.Domain** %domain.addr, align 8, !tbaa !2
  %call4 = call nonnull align 4 dereferenceable(4) i32* @_ZN6Domain7numNodeEv(%class.Domain* %17)
  %18 = load i32, i32* %call4, align 4, !tbaa !8
  call void @_ZL20CalcPositionForNodesR6Domaindi(%class.Domain* nonnull align 8 dereferenceable(1312) %15, double %16, i32 %18)
  %19 = bitcast double* %u_cut to i8*
  call void @llvm.lifetime.end.p0i8(i64 8, i8* %19) #3
  %20 = bitcast double* %delt to i8*
  call void @llvm.lifetime.end.p0i8(i64 8, i8* %20) #3
  ret void
}

; Function Attrs: inlinehint uwtable
define internal void @_ZL16LagrangeElementsR6Domaini(%class.Domain* nonnull align 8 dereferenceable(1312) %domain, i32 %numElem) #7 {
entry:
  %domain.addr = alloca %class.Domain*, align 8
  %numElem.addr = alloca i32, align 4
  store %class.Domain* %domain, %class.Domain** %domain.addr, align 8, !tbaa !2
  store i32 %numElem, i32* %numElem.addr, align 4, !tbaa !8
  %0 = load %class.Domain*, %class.Domain** %domain.addr, align 8, !tbaa !2
  call void @_ZL20CalcLagrangeElementsR6Domain(%class.Domain* nonnull align 8 dereferenceable(1312) %0)
  %1 = load %class.Domain*, %class.Domain** %domain.addr, align 8, !tbaa !2
  call void @_ZL13CalcQForElemsR6Domain(%class.Domain* nonnull align 8 dereferenceable(1312) %1)
  %2 = load %class.Domain*, %class.Domain** %domain.addr, align 8, !tbaa !2
  call void @_ZL31ApplyMaterialPropertiesForElemsR6Domain(%class.Domain* nonnull align 8 dereferenceable(1312) %2)
  %3 = load %class.Domain*, %class.Domain** %domain.addr, align 8, !tbaa !2
  %4 = load %class.Domain*, %class.Domain** %domain.addr, align 8, !tbaa !2
  %call = call double @_ZNK6Domain5v_cutEv(%class.Domain* %4)
  %5 = load i32, i32* %numElem.addr, align 4, !tbaa !8
  call void @_ZL21UpdateVolumesForElemsR6Domaindi(%class.Domain* nonnull align 8 dereferenceable(1312) %3, double %call, i32 %5)
  ret void
}

; Function Attrs: nounwind uwtable
define linkonce_odr dso_local nonnull align 4 dereferenceable(4) i32* @_ZN6Domain7numElemEv(%class.Domain* %this) #6 comdat align 2 {
entry:
  %this.addr = alloca %class.Domain*, align 8
  store %class.Domain* %this, %class.Domain** %this.addr, align 8, !tbaa !2
  %this1 = load %class.Domain*, %class.Domain** %this.addr, align 8
  %m_numElem = getelementptr inbounds %class.Domain, %class.Domain* %this1, i32 0, i32 88
  ret i32* %m_numElem
}

; Function Attrs: inlinehint uwtable
define internal void @_ZL27CalcTimeConstraintsForElemsR6Domain(%class.Domain* nonnull align 8 dereferenceable(1312) %domain) #7 {
entry:
  %domain.addr = alloca %class.Domain*, align 8
  %r = alloca i32, align 4
  store %class.Domain* %domain, %class.Domain** %domain.addr, align 8, !tbaa !2
  %0 = load %class.Domain*, %class.Domain** %domain.addr, align 8, !tbaa !2
  %call = call nonnull align 8 dereferenceable(8) double* @_ZN6Domain9dtcourantEv(%class.Domain* %0)
  store double 1.000000e+20, double* %call, align 8, !tbaa !6
  %1 = load %class.Domain*, %class.Domain** %domain.addr, align 8, !tbaa !2
  %call1 = call nonnull align 8 dereferenceable(8) double* @_ZN6Domain7dthydroEv(%class.Domain* %1)
  store double 1.000000e+20, double* %call1, align 8, !tbaa !6
  %2 = bitcast i32* %r to i8*
  call void @llvm.lifetime.start.p0i8(i64 4, i8* %2) #3
  store i32 0, i32* %r, align 4, !tbaa !8
  br label %for.cond

for.cond:                                         ; preds = %for.inc, %entry
  %3 = load i32, i32* %r, align 4, !tbaa !8
  %4 = load %class.Domain*, %class.Domain** %domain.addr, align 8, !tbaa !2
  %call2 = call nonnull align 4 dereferenceable(4) i32* @_ZN6Domain6numRegEv(%class.Domain* %4)
  %5 = load i32, i32* %call2, align 4, !tbaa !8
  %cmp = icmp slt i32 %3, %5
  br i1 %cmp, label %for.body, label %for.cond.cleanup

for.cond.cleanup:                                 ; preds = %for.cond
  %6 = bitcast i32* %r to i8*
  call void @llvm.lifetime.end.p0i8(i64 4, i8* %6) #3
  br label %for.end

for.body:                                         ; preds = %for.cond
  %7 = load %class.Domain*, %class.Domain** %domain.addr, align 8, !tbaa !2
  %8 = load %class.Domain*, %class.Domain** %domain.addr, align 8, !tbaa !2
  %9 = load i32, i32* %r, align 4, !tbaa !8
  %call3 = call nonnull align 4 dereferenceable(4) i32* @_ZN6Domain11regElemSizeEi(%class.Domain* %8, i32 %9)
  %10 = load i32, i32* %call3, align 4, !tbaa !8
  %11 = load %class.Domain*, %class.Domain** %domain.addr, align 8, !tbaa !2
  %12 = load i32, i32* %r, align 4, !tbaa !8
  %call4 = call i32* @_ZN6Domain11regElemlistEi(%class.Domain* %11, i32 %12)
  %13 = load %class.Domain*, %class.Domain** %domain.addr, align 8, !tbaa !2
  %call5 = call double @_ZNK6Domain3qqcEv(%class.Domain* %13)
  %14 = load %class.Domain*, %class.Domain** %domain.addr, align 8, !tbaa !2
  %call6 = call nonnull align 8 dereferenceable(8) double* @_ZN6Domain9dtcourantEv(%class.Domain* %14)
  call void @_ZL29CalcCourantConstraintForElemsR6DomainiPidRd(%class.Domain* nonnull align 8 dereferenceable(1312) %7, i32 %10, i32* %call4, double %call5, double* nonnull align 8 dereferenceable(8) %call6)
  %15 = load %class.Domain*, %class.Domain** %domain.addr, align 8, !tbaa !2
  %16 = load %class.Domain*, %class.Domain** %domain.addr, align 8, !tbaa !2
  %17 = load i32, i32* %r, align 4, !tbaa !8
  %call7 = call nonnull align 4 dereferenceable(4) i32* @_ZN6Domain11regElemSizeEi(%class.Domain* %16, i32 %17)
  %18 = load i32, i32* %call7, align 4, !tbaa !8
  %19 = load %class.Domain*, %class.Domain** %domain.addr, align 8, !tbaa !2
  %20 = load i32, i32* %r, align 4, !tbaa !8
  %call8 = call i32* @_ZN6Domain11regElemlistEi(%class.Domain* %19, i32 %20)
  %21 = load %class.Domain*, %class.Domain** %domain.addr, align 8, !tbaa !2
  %call9 = call double @_ZNK6Domain7dvovmaxEv(%class.Domain* %21)
  %22 = load %class.Domain*, %class.Domain** %domain.addr, align 8, !tbaa !2
  %call10 = call nonnull align 8 dereferenceable(8) double* @_ZN6Domain7dthydroEv(%class.Domain* %22)
  call void @_ZL27CalcHydroConstraintForElemsR6DomainiPidRd(%class.Domain* nonnull align 8 dereferenceable(1312) %15, i32 %18, i32* %call8, double %call9, double* nonnull align 8 dereferenceable(8) %call10)
  br label %for.inc

for.inc:                                          ; preds = %for.body
  %23 = load i32, i32* %r, align 4, !tbaa !8
  %inc = add nsw i32 %23, 1
  store i32 %inc, i32* %r, align 4, !tbaa !8
  br label %for.cond, !llvm.loop !46

for.end:                                          ; preds = %for.cond.cleanup
  ret void
}

; Function Attrs: nounwind uwtable
define linkonce_odr dso_local double @_ZNK6Domain5u_cutEv(%class.Domain* %this) #6 comdat align 2 {
entry:
  %this.addr = alloca %class.Domain*, align 8
  store %class.Domain* %this, %class.Domain** %this.addr, align 8, !tbaa !2
  %this1 = load %class.Domain*, %class.Domain** %this.addr, align 8
  %m_u_cut = getelementptr inbounds %class.Domain, %class.Domain* %this1, i32 0, i32 55
  %0 = load double, double* %m_u_cut, align 8, !tbaa !47
  ret double %0
}

; Function Attrs: inlinehint uwtable
define internal void @_ZL17CalcForceForNodesR6Domain(%class.Domain* nonnull align 8 dereferenceable(1312) %domain) #7 {
entry:
  %domain.addr = alloca %class.Domain*, align 8
  %numNode = alloca i32, align 4
  %i = alloca i32, align 4
  store %class.Domain* %domain, %class.Domain** %domain.addr, align 8, !tbaa !2
  %0 = bitcast i32* %numNode to i8*
  call void @llvm.lifetime.start.p0i8(i64 4, i8* %0) #3
  %1 = load %class.Domain*, %class.Domain** %domain.addr, align 8, !tbaa !2
  %call = call nonnull align 4 dereferenceable(4) i32* @_ZN6Domain7numNodeEv(%class.Domain* %1)
  %2 = load i32, i32* %call, align 4, !tbaa !8
  store i32 %2, i32* %numNode, align 4, !tbaa !8
  %3 = bitcast i32* %i to i8*
  call void @llvm.lifetime.start.p0i8(i64 4, i8* %3) #3
  store i32 0, i32* %i, align 4, !tbaa !8
  br label %for.cond

for.cond:                                         ; preds = %for.inc, %entry
  %4 = load i32, i32* %i, align 4, !tbaa !8
  %5 = load i32, i32* %numNode, align 4, !tbaa !8
  %cmp = icmp slt i32 %4, %5
  br i1 %cmp, label %for.body, label %for.cond.cleanup

for.cond.cleanup:                                 ; preds = %for.cond
  %6 = bitcast i32* %i to i8*
  call void @llvm.lifetime.end.p0i8(i64 4, i8* %6) #3
  br label %for.end

for.body:                                         ; preds = %for.cond
  %7 = load %class.Domain*, %class.Domain** %domain.addr, align 8, !tbaa !2
  %8 = load i32, i32* %i, align 4, !tbaa !8
  %call1 = call nonnull align 8 dereferenceable(8) double* @_ZN6Domain2fxEi(%class.Domain* %7, i32 %8)
  store double 0.000000e+00, double* %call1, align 8, !tbaa !6
  %9 = load %class.Domain*, %class.Domain** %domain.addr, align 8, !tbaa !2
  %10 = load i32, i32* %i, align 4, !tbaa !8
  %call2 = call nonnull align 8 dereferenceable(8) double* @_ZN6Domain2fyEi(%class.Domain* %9, i32 %10)
  store double 0.000000e+00, double* %call2, align 8, !tbaa !6
  %11 = load %class.Domain*, %class.Domain** %domain.addr, align 8, !tbaa !2
  %12 = load i32, i32* %i, align 4, !tbaa !8
  %call3 = call nonnull align 8 dereferenceable(8) double* @_ZN6Domain2fzEi(%class.Domain* %11, i32 %12)
  store double 0.000000e+00, double* %call3, align 8, !tbaa !6
  br label %for.inc

for.inc:                                          ; preds = %for.body
  %13 = load i32, i32* %i, align 4, !tbaa !8
  %inc = add nsw i32 %13, 1
  store i32 %inc, i32* %i, align 4, !tbaa !8
  br label %for.cond, !llvm.loop !48

for.end:                                          ; preds = %for.cond.cleanup
  %14 = load %class.Domain*, %class.Domain** %domain.addr, align 8, !tbaa !2
  call void @_ZL23CalcVolumeForceForElemsR6Domain(%class.Domain* nonnull align 8 dereferenceable(1312) %14)
  %15 = bitcast i32* %numNode to i8*
  call void @llvm.lifetime.end.p0i8(i64 4, i8* %15) #3
  ret void
}

; Function Attrs: inlinehint uwtable
define internal void @_ZL24CalcAccelerationForNodesR6Domaini(%class.Domain* nonnull align 8 dereferenceable(1312) %domain, i32 %numNode) #7 {
entry:
  %domain.addr = alloca %class.Domain*, align 8
  %numNode.addr = alloca i32, align 4
  %i = alloca i32, align 4
  store %class.Domain* %domain, %class.Domain** %domain.addr, align 8, !tbaa !2
  store i32 %numNode, i32* %numNode.addr, align 4, !tbaa !8
  %0 = bitcast i32* %i to i8*
  call void @llvm.lifetime.start.p0i8(i64 4, i8* %0) #3
  store i32 0, i32* %i, align 4, !tbaa !8
  br label %for.cond

for.cond:                                         ; preds = %for.inc, %entry
  %1 = load i32, i32* %i, align 4, !tbaa !8
  %2 = load i32, i32* %numNode.addr, align 4, !tbaa !8
  %cmp = icmp slt i32 %1, %2
  br i1 %cmp, label %for.body, label %for.cond.cleanup

for.cond.cleanup:                                 ; preds = %for.cond
  %3 = bitcast i32* %i to i8*
  call void @llvm.lifetime.end.p0i8(i64 4, i8* %3) #3
  br label %for.end

for.body:                                         ; preds = %for.cond
  %4 = load %class.Domain*, %class.Domain** %domain.addr, align 8, !tbaa !2
  %5 = load i32, i32* %i, align 4, !tbaa !8
  %call = call nonnull align 8 dereferenceable(8) double* @_ZN6Domain2fxEi(%class.Domain* %4, i32 %5)
  %6 = load double, double* %call, align 8, !tbaa !6
  %7 = load %class.Domain*, %class.Domain** %domain.addr, align 8, !tbaa !2
  %8 = load i32, i32* %i, align 4, !tbaa !8
