; ModuleID = '../llvm/lib/Transforms/SplitMerge/test/ir/lulesh-ssa-sccp.ll'
source_filename = "llvm-link"
target datalayout = "e-m:e-p270:32:32-p271:32:32-p272:64:64-i64:64-f80:128-n8:16:32:64-S128"
target triple = "x86_64-unknown-linux-gnu"

%struct._IO_FILE = type { i32, i8*, i8*, i8*, i8*, i8*, i8*, i8*, i8*, i8*, i8*, i8*, %struct._IO_marker*, %struct._IO_FILE*, i32, i32, i64, i16, i8, [1 x i8], i8*, i64, i8*, i8*, i8*, i8*, i64, i32, [20 x i8] }
%struct._IO_marker = type { %struct._IO_marker*, %struct._IO_FILE*, i32 }
%"class.std::allocator.2" = type { i8 }
%"class.std::basic_ostream" = type { i32 (...)**, %"class.std::basic_ios" }
%"class.std::basic_ios" = type { %"class.std::ios_base", %"class.std::basic_ostream"*, i8, i8, %"class.std::basic_streambuf"*, %"class.std::ctype"*, %"class.std::num_put"*, %"class.std::num_put"* }
%"class.std::ios_base" = type { i32 (...)**, i64, i64, i32, i32, i32, %"struct.std::ios_base::_Callback_list"*, %"struct.std::ios_base::_Words", [8 x %"struct.std::ios_base::_Words"], i32, %"struct.std::ios_base::_Words"*, %"class.std::locale" }
%"struct.std::ios_base::_Callback_list" = type { %"struct.std::ios_base::_Callback_list"*, void (i32, %"class.std::ios_base"*, i32)*, i32, i32 }
%"struct.std::ios_base::_Words" = type { i8*, i64 }
%"class.std::locale" = type { %"class.std::locale::_Impl"* }
%"class.std::locale::_Impl" = type { i32, %"class.std::locale::facet"**, i64, %"class.std::locale::facet"**, i8** }
%"class.std::locale::facet" = type <{ i32 (...)**, i32, [4 x i8] }>
%"class.std::basic_streambuf" = type { i32 (...)**, i8*, i8*, i8*, i8*, i8*, i8*, %"class.std::locale" }
%"class.std::ctype" = type <{ %"class.std::locale::facet.base", [4 x i8], %struct.__locale_struct*, i8, [7 x i8], i32*, i32*, i16*, i8, [256 x i8], [256 x i8], i8, [6 x i8] }>
%"class.std::locale::facet.base" = type <{ i32 (...)**, i32 }>
%struct.__locale_struct = type { [13 x %struct.__locale_data*], i16*, i32*, i32*, [13 x i8*] }
%struct.__locale_data = type opaque
%"class.std::num_put" = type { %"class.std::locale::facet.base", [4 x i8] }
%class.Domain = type { %"class.std::vector", %"class.std::vector", %"class.std::vector", %"class.std::vector", %"class.std::vector", %"class.std::vector", %"class.std::vector", %"class.std::vector", %"class.std::vector", %"class.std::vector", %"class.std::vector", %"class.std::vector", %"class.std::vector", %"class.std::vector.0", %"class.std::vector.0", %"class.std::vector.0", i32, i32, i32*, i32*, i32**, %"class.std::vector.0", %"class.std::vector.0", %"class.std::vector.0", %"class.std::vector.0", %"class.std::vector.0", %"class.std::vector.0", %"class.std::vector.0", %"class.std::vector.0", double*, double*, double*, double*, double*, double*, double*, double*, double*, %"class.std::vector", %"class.std::vector", %"class.std::vector", %"class.std::vector", %"class.std::vector", %"class.std::vector", %"class.std::vector", %"class.std::vector", %"class.std::vector", %"class.std::vector", %"class.std::vector", %"class.std::vector", %"class.std::vector", double, double, double, double, double, double, double, double, double, double, double, double, double, double, double, double, double, double, double, double, double, i32, double, double, double, double, double, double, double, i32, i32, i32, i32, i32, i32, i32, i32, i32, i32, i32, i32, i32*, i32*, i32, i32, i32, i32, i32, i32 }
%"class.std::vector.0" = type { %"struct.std::_Vector_base.1" }
%"struct.std::_Vector_base.1" = type { %"struct.std::_Vector_base<int, std::allocator<int>>::_Vector_impl" }
%"struct.std::_Vector_base<int, std::allocator<int>>::_Vector_impl" = type { i32*, i32*, i32* }
%"class.std::vector" = type { %"struct.std::_Vector_base" }
%"struct.std::_Vector_base" = type { %"struct.std::_Vector_base<double, std::allocator<double>>::_Vector_impl" }
%"struct.std::_Vector_base<double, std::allocator<double>>::_Vector_impl" = type { double*, double*, double* }
%"class.std::move_iterator.5" = type { i32* }
%"class.std::move_iterator" = type { double* }
%struct.cmdLineOpts = type { i32, i32, i32, i32, i32, i32, i32, i32, i32 }
%struct.timeval = type { i64, i64 }
%struct.timezone = type { i32, i32 }
%"struct.std::_Setprecision" = type { i32 }

$_ZNSt6vectorIdSaIdEEC2Ev = comdat any

$_ZNSt6vectorIiSaIiEEC2Ev = comdat any

$_ZN6Domain4costEv = comdat any

$_ZN6Domain7numElemEv = comdat any

$_ZN6Domain22AllocateElemPersistentEi = comdat any

$_ZN6Domain7numNodeEv = comdat any

$_ZN6Domain22AllocateNodePersistentEi = comdat any

$_ZN6Domain1eEi = comdat any

$_ZN6Domain1pEi = comdat any

$_ZN6Domain1qEi = comdat any

$_ZN6Domain2ssEi = comdat any

$_ZN6Domain1vEi = comdat any

$_ZN6Domain2xdEi = comdat any

$_ZN6Domain2ydEi = comdat any

$_ZN6Domain2zdEi = comdat any

$_ZN6Domain3xddEi = comdat any

$_ZN6Domain3yddEi = comdat any

$_ZN6Domain3zddEi = comdat any

$_ZN6Domain9nodalMassEi = comdat any

$_ZN6Domain7dtfixedEv = comdat any

$_ZN6Domain8stoptimeEv = comdat any

$_ZN6Domain15deltatimemultlbEv = comdat any

$_ZN6Domain15deltatimemultubEv = comdat any

$_ZN6Domain9dtcourantEv = comdat any

$_ZN6Domain7dthydroEv = comdat any

$_ZN6Domain5dtmaxEv = comdat any

$_ZN6Domain4timeEv = comdat any

$_ZN6Domain5cycleEv = comdat any

$_ZN6Domain8nodelistEi = comdat any

$_ZN6Domain1xEi = comdat any

$_ZN6Domain1yEi = comdat any

$_ZN6Domain1zEi = comdat any

$_ZN6Domain4voloEi = comdat any

$_ZN6Domain8elemMassEi = comdat any

$_ZN6Domain9deltatimeEv = comdat any

$_ZNSt6vectorIdSaIdEED2Ev = comdat any

$_ZNSt6vectorIiSaIiEED2Ev = comdat any

$_ZNSt12_Vector_baseIiSaIiEE19_M_get_Tp_allocatorEv = comdat any

$_ZSt8_DestroyIPiiEvT_S1_RSaIT0_E = comdat any

$_ZNSt12_Vector_baseIiSaIiEED2Ev = comdat any

$__clang_call_terminate = comdat any

$_ZNSt12_Vector_baseIiSaIiEE13_M_deallocateEPim = comdat any

$_ZN9__gnu_cxx13new_allocatorIiED2Ev = comdat any

$_ZNSt16allocator_traitsISaIiEE10deallocateERS0_Pim = comdat any

$_ZN9__gnu_cxx13new_allocatorIiE10deallocateEPim = comdat any

$_ZSt8_DestroyIPiEvT_S1_ = comdat any

$_ZNSt12_Destroy_auxILb1EE9__destroyIPiEEvT_S3_ = comdat any

$_ZNSt12_Vector_baseIdSaIdEE19_M_get_Tp_allocatorEv = comdat any

$_ZSt8_DestroyIPddEvT_S1_RSaIT0_E = comdat any

$_ZNSt12_Vector_baseIdSaIdEED2Ev = comdat any

$_ZNSt12_Vector_baseIdSaIdEE13_M_deallocateEPdm = comdat any

$_ZN9__gnu_cxx13new_allocatorIdED2Ev = comdat any

$_ZNSt16allocator_traitsISaIdEE10deallocateERS0_Pdm = comdat any

$_ZN9__gnu_cxx13new_allocatorIdE10deallocateEPdm = comdat any

$_ZSt8_DestroyIPdEvT_S1_ = comdat any

$_ZNSt12_Destroy_auxILb1EE9__destroyIPdEEvT_S3_ = comdat any

$_ZNSt6vectorIdSaIdEEixEm = comdat any

$_ZNSt6vectorIiSaIiEEixEm = comdat any

$_ZN6Domain6elemBCEi = comdat any

$_ZN6Domain5sizeXEv = comdat any

$_ZN6Domain5sizeYEv = comdat any

$_ZN6Domain5sizeZEv = comdat any

$_ZN6Domain6lzetamEi = comdat any

$_ZN6Domain6lzetapEi = comdat any

$_ZN6Domain5letamEi = comdat any

$_ZN6Domain5letapEi = comdat any

$_ZN6Domain4lximEi = comdat any

$_ZN6Domain4lxipEi = comdat any

$_ZN6Domain6numRegEv = comdat any

$_ZN6Domain10regNumListEi = comdat any

$_ZN6Domain11regElemSizeEi = comdat any

$_ZSt3powIiiEN9__gnu_cxx11__promote_2IT_T0_NS0_9__promoteIS2_Xsr3std12__is_integerIS2_EE7__valueEE6__typeENS4_IS3_Xsr3std12__is_integerIS3_EE7__valueEE6__typeEE6__typeES2_S3_ = comdat any

$_ZN6Domain11regElemlistEii = comdat any

$_ZNSt6vectorIiSaIiEE6resizeEm = comdat any

$_ZNKSt6vectorIiSaIiEE4sizeEv = comdat any

$_ZNSt6vectorIiSaIiEE17_M_default_appendEm = comdat any

$_ZNSt6vectorIiSaIiEE15_M_erase_at_endEPi = comdat any

$_ZSt27__uninitialized_default_n_aIPimiET_S1_T0_RSaIT1_E = comdat any

$_ZNKSt6vectorIiSaIiEE12_M_check_lenEmPKc = comdat any

$_ZNSt12_Vector_baseIiSaIiEE11_M_allocateEm = comdat any

$_ZSt34__uninitialized_move_if_noexcept_aIPiS0_SaIiEET0_T_S3_S2_RT1_ = comdat any

$_ZSt32__make_move_if_noexcept_iteratorIiSt13move_iteratorIPiEET0_PT_ = comdat any

$_ZSt22__uninitialized_copy_aISt13move_iteratorIPiES1_iET0_T_S4_S3_RSaIT1_E = comdat any

$_ZSt18uninitialized_copyISt13move_iteratorIPiES1_ET0_T_S4_S3_ = comdat any

$_ZNSt20__uninitialized_copyILb1EE13__uninit_copyISt13move_iteratorIPiES3_EET0_T_S6_S5_ = comdat any

$_ZSt4copyISt13move_iteratorIPiES1_ET0_T_S4_S3_ = comdat any

$_ZSt12__miter_baseIPiEDTcl12__miter_basecldtfp_4baseEEESt13move_iteratorIT_E = comdat any

$_ZSt14__copy_move_a2ILb1EPiS0_ET1_T0_S2_S1_ = comdat any

$_ZSt12__niter_baseIPiET_S1_ = comdat any

$_ZSt13__copy_move_aILb1EPiS0_ET1_T0_S2_S1_ = comdat any

$_ZNSt11__copy_moveILb1ELb1ESt26random_access_iterator_tagE8__copy_mIiEEPT_PKS3_S6_S4_ = comdat any

$_ZNKSt13move_iteratorIPiE4baseEv = comdat any

$_ZSt12__miter_baseIPiET_S1_ = comdat any

$_ZNSt13move_iteratorIPiEC2ES0_ = comdat any

$_ZNSt16allocator_traitsISaIiEE8allocateERS0_m = comdat any

$_ZN9__gnu_cxx13new_allocatorIiE8allocateEmPKv = comdat any

$_ZNK9__gnu_cxx13new_allocatorIiE8max_sizeEv = comdat any

$_ZNKSt6vectorIiSaIiEE8max_sizeEv = comdat any

$_ZSt3maxImERKT_S2_S2_ = comdat any

$_ZNKSt12_Vector_baseIiSaIiEE19_M_get_Tp_allocatorEv = comdat any

$_ZNSt16allocator_traitsISaIiEE8max_sizeERKS0_ = comdat any

$_ZSt25__uninitialized_default_nIPimET_S1_T0_ = comdat any

$_ZNSt27__uninitialized_default_n_1ILb1EE18__uninit_default_nIPimEET_S3_T0_ = comdat any

$_ZSt6fill_nIPimiET_S1_T0_RKT1_ = comdat any

$_ZSt10__fill_n_aIPimiEN9__gnu_cxx11__enable_ifIXsr11__is_scalarIT1_EE7__valueET_E6__typeES4_T0_RKS3_ = comdat any

$_ZNSt6vectorIdSaIdEE6resizeEm = comdat any

$_ZNKSt6vectorIdSaIdEE4sizeEv = comdat any

$_ZNSt6vectorIdSaIdEE17_M_default_appendEm = comdat any

$_ZNSt6vectorIdSaIdEE15_M_erase_at_endEPd = comdat any

$_ZSt27__uninitialized_default_n_aIPdmdET_S1_T0_RSaIT1_E = comdat any

$_ZNKSt6vectorIdSaIdEE12_M_check_lenEmPKc = comdat any

$_ZNSt12_Vector_baseIdSaIdEE11_M_allocateEm = comdat any

$_ZSt34__uninitialized_move_if_noexcept_aIPdS0_SaIdEET0_T_S3_S2_RT1_ = comdat any

$_ZSt32__make_move_if_noexcept_iteratorIdSt13move_iteratorIPdEET0_PT_ = comdat any

$_ZSt22__uninitialized_copy_aISt13move_iteratorIPdES1_dET0_T_S4_S3_RSaIT1_E = comdat any

$_ZSt18uninitialized_copyISt13move_iteratorIPdES1_ET0_T_S4_S3_ = comdat any

$_ZNSt20__uninitialized_copyILb1EE13__uninit_copyISt13move_iteratorIPdES3_EET0_T_S6_S5_ = comdat any

$_ZSt4copyISt13move_iteratorIPdES1_ET0_T_S4_S3_ = comdat any

$_ZSt12__miter_baseIPdEDTcl12__miter_basecldtfp_4baseEEESt13move_iteratorIT_E = comdat any

$_ZSt14__copy_move_a2ILb1EPdS0_ET1_T0_S2_S1_ = comdat any

$_ZSt12__niter_baseIPdET_S1_ = comdat any

$_ZSt13__copy_move_aILb1EPdS0_ET1_T0_S2_S1_ = comdat any

$_ZNSt11__copy_moveILb1ELb1ESt26random_access_iterator_tagE8__copy_mIdEEPT_PKS3_S6_S4_ = comdat any

$_ZNKSt13move_iteratorIPdE4baseEv = comdat any

$_ZSt12__miter_baseIPdET_S1_ = comdat any

$_ZNSt13move_iteratorIPdEC2ES0_ = comdat any

$_ZNSt16allocator_traitsISaIdEE8allocateERS0_m = comdat any

$_ZN9__gnu_cxx13new_allocatorIdE8allocateEmPKv = comdat any

$_ZNK9__gnu_cxx13new_allocatorIdE8max_sizeEv = comdat any

$_ZNKSt6vectorIdSaIdEE8max_sizeEv = comdat any

$_ZNKSt12_Vector_baseIdSaIdEE19_M_get_Tp_allocatorEv = comdat any

$_ZNSt16allocator_traitsISaIdEE8max_sizeERKS0_ = comdat any

$_ZSt25__uninitialized_default_nIPdmET_S1_T0_ = comdat any

$_ZNSt27__uninitialized_default_n_1ILb1EE18__uninit_default_nIPdmEET_S3_T0_ = comdat any

$_ZSt6fill_nIPdmdET_S1_T0_RKT1_ = comdat any

$_ZSt10__fill_n_aIPdmdEN9__gnu_cxx11__enable_ifIXsr11__is_scalarIT1_EE7__valueET_E6__typeES4_T0_RKS3_ = comdat any

$_ZNSt12_Vector_baseIiSaIiEEC2Ev = comdat any

$_ZNSt12_Vector_baseIiSaIiEE12_Vector_implC2Ev = comdat any

$_ZNSaIiEC2Ev = comdat any

$_ZN9__gnu_cxx13new_allocatorIiEC2Ev = comdat any

$_ZNSt12_Vector_baseIdSaIdEEC2Ev = comdat any

$_ZNSt12_Vector_baseIdSaIdEE12_Vector_implC2Ev = comdat any

$_ZNSaIdEC2Ev = comdat any

$_ZN9__gnu_cxx13new_allocatorIdEC2Ev = comdat any

$_ZN6Domain4vnewEi = comdat any

$_ZN6Domain4delvEi = comdat any

$_ZN6Domain6arealgEi = comdat any

$_ZN6Domain3dxxEi = comdat any

$_ZN6Domain3dyyEi = comdat any

$_ZN6Domain3dzzEi = comdat any

$_ZSt3maxIdERKT_S2_S2_ = comdat any

$_Z4SQRTd = comdat any

$_ZSt10scientificRSt8ios_base = comdat any

$_ZNSt8ios_base6unsetfESt13_Ios_Fmtflags = comdat any

$_ZStcoSt13_Ios_Fmtflags = comdat any

$_ZStaNRSt13_Ios_FmtflagsS_ = comdat any

$_ZStanSt13_Ios_FmtflagsS_ = comdat any

$_ZNSt8ios_base4setfESt13_Ios_FmtflagsS0_ = comdat any

$_ZStoRRSt13_Ios_FmtflagsS_ = comdat any

$_ZStorSt13_Ios_FmtflagsS_ = comdat any

$_ZN6Domain11regElemlistEi = comdat any

$_ZNK6Domain3qqcEv = comdat any

$_ZNK6Domain7dvovmaxEv = comdat any

$_ZN6Domain4vdovEi = comdat any

$_Z4FABSd = comdat any

$_ZNK6Domain5v_cutEv = comdat any

$_ZNK6Domain7eosvminEv = comdat any

$_ZNK6Domain7eosvmaxEv = comdat any

$_Z8AllocateIdEPT_m = comdat any

$_Z7ReleaseIdEvPPT_ = comdat any

$_ZNK6Domain5e_cutEv = comdat any

$_ZNK6Domain5p_cutEv = comdat any

$_ZNK6Domain5ss4o3Ev = comdat any

$_ZNK6Domain5q_cutEv = comdat any

$_ZNK6Domain4pminEv = comdat any

$_ZNK6Domain4eminEv = comdat any

$_ZNK6Domain7refdensEv = comdat any

$_ZN6Domain2qqEi = comdat any

$_ZN6Domain2qlEi = comdat any

$_ZN6Domain17AllocateGradientsEii = comdat any

$_ZN6Domain19DeallocateGradientsEv = comdat any

$_ZNK6Domain5qstopEv = comdat any

$_ZNK6Domain18monoq_limiter_multEv = comdat any

$_ZNK6Domain15monoq_max_slopeEv = comdat any

$_ZNK6Domain9qlc_monoqEv = comdat any

$_ZNK6Domain9qqc_monoqEv = comdat any

$_ZN6Domain7delv_xiEi = comdat any

$_ZN6Domain8delv_etaEi = comdat any

$_ZN6Domain9delv_zetaEi = comdat any

$_ZN6Domain7delx_xiEi = comdat any

$_ZN6Domain8delx_etaEi = comdat any

$_ZN6Domain9delx_zetaEi = comdat any

$_ZN6Domain15AllocateStrainsEi = comdat any

$_ZN6Domain17DeallocateStrainsEv = comdat any

$_ZNK6Domain5u_cutEv = comdat any

$_ZN6Domain10symmXemptyEv = comdat any

$_ZN6Domain5symmXEi = comdat any

$_ZN6Domain10symmYemptyEv = comdat any

$_ZN6Domain5symmYEi = comdat any

$_ZN6Domain10symmZemptyEv = comdat any

$_ZN6Domain5symmZEi = comdat any

$_ZNKSt6vectorIiSaIiEE5emptyEv = comdat any

$_ZNKSt6vectorIiSaIiEE5beginEv = comdat any

$_ZNKSt6vectorIiSaIiEE3endEv = comdat any

$_ZN9__gnu_cxxeqIPKiSt6vectorIiSaIiEEEEbRKNS_17__normal_iteratorIT_T0_EESB_ = comdat any

$_ZNK9__gnu_cxx17__normal_iteratorIPKiSt6vectorIiSaIiEEE4baseEv = comdat any

$_ZN9__gnu_cxx17__normal_iteratorIPKiSt6vectorIiSaIiEEEC2ERKS2_ = comdat any

$_ZN6Domain2fxEi = comdat any

$_ZN6Domain2fyEi = comdat any

$_ZN6Domain2fzEi = comdat any

$_ZNK6Domain6hgcoefEv = comdat any

$_Z4CBRTd = comdat any

$_ZN6Domain13nodeElemCountEi = comdat any

$_ZN6Domain18nodeElemCornerListEi = comdat any

$_ZNSt11char_traitsIcE6lengthEPKc = comdat any

$_ZStorSt12_Ios_IostateS_ = comdat any

$_Z8StrToIntIiEiPKcPT_ = comdat any

$_ZSt12setprecisioni = comdat any

$_ZSt4setwi = comdat any

$_ZNSt8ios_base5widthEl = comdat any

$_ZNSt8ios_base9precisionEl = comdat any

@.str.3 = private unnamed_addr constant [26 x i8] c"vector::_M_default_append\00", align 1
@stderr = external dso_local global %struct._IO_FILE*, align 8
@.str = private unnamed_addr constant [67 x i8] c"AllocateNodeElemIndexes(): nodeElemCornerList entry out of range!\0A\00", align 1
@.str.1 = private unnamed_addr constant [61 x i8] c"Num processors must be a cube of an integer (1, 8, 27, ...)\0A\00", align 1
@.str.2 = private unnamed_addr constant [45 x i8] c"error -- must have as many domains as procs\0A\00", align 1
@llvm.global_ctors = appending global [2 x { i32, void ()*, i8* }] [{ i32, void ()*, i8* } { i32 65535, void ()* @_GLOBAL__sub_I_lulesh.cc, i8* null }, { i32, void ()*, i8* } { i32 65535, void ()* @_GLOBAL__sub_I_lulesh_util.cc, i8* null }]
@_ZStL8__ioinit = internal global %"class.std::allocator.2" zeroinitializer, align 1
@__dso_handle = external hidden global i8
@_ZSt4cout = external dso_local global %"class.std::basic_ostream", align 8
@.str.4 = private unnamed_addr constant [22 x i8] c"Running problem size \00", align 1
@.str.1.5 = private unnamed_addr constant [32 x i8] c"^3 per domain until completion\0A\00", align 1
@.str.2.6 = private unnamed_addr constant [17 x i8] c"Num processors: \00", align 1
@.str.3.7 = private unnamed_addr constant [2 x i8] c"\0A\00", align 1
@.str.4.8 = private unnamed_addr constant [27 x i8] c"Total number of elements: \00", align 1
@.str.5 = private unnamed_addr constant [4 x i8] c" \0A\0A\00", align 1
@.str.6 = private unnamed_addr constant [39 x i8] c"To run other sizes, use -s <integer>.\0A\00", align 1
@.str.7 = private unnamed_addr constant [56 x i8] c"To run a fixed number of iterations, use -i <integer>.\0A\00", align 1
@.str.8 = private unnamed_addr constant [62 x i8] c"To run a more or less balanced region set, use -b <integer>.\0A\00", align 1
@.str.9 = private unnamed_addr constant [60 x i8] c"To change the relative costs of regions, use -c <integer>.\0A\00", align 1
@.str.10 = private unnamed_addr constant [31 x i8] c"To print out progress, use -p\0A\00", align 1
@.str.11 = private unnamed_addr constant [43 x i8] c"To write an output file for VisIt, use -v\0A\00", align 1
@.str.12 = private unnamed_addr constant [33 x i8] c"See help (-h) for more options\0A\0A\00", align 1
@.str.13 = private unnamed_addr constant [9 x i8] c"cycle = \00", align 1
@.str.14 = private unnamed_addr constant [3 x i8] c", \00", align 1
@.str.15 = private unnamed_addr constant [8 x i8] c"time = \00", align 1
@.str.16 = private unnamed_addr constant [4 x i8] c"dt=\00", align 1
@.str.17 = private unnamed_addr constant [31 x i8] c"Error in switch at %s line %d\0A\00", align 1
@.str.18 = private unnamed_addr constant [10 x i8] c"lulesh.cc\00", align 1
@_ZStL8__ioinit.11 = internal global %"class.std::allocator.2" zeroinitializer, align 1
@.str.19 = private unnamed_addr constant [3 x i8] c"-i\00", align 1
@.str.1.20 = private unnamed_addr constant [31 x i8] c"Missing integer argument to -i\00", align 1
@.str.2.21 = private unnamed_addr constant [64 x i8] c"Parse Error on option -i integer value required after argument\0A\00", align 1
@.str.3.22 = private unnamed_addr constant [3 x i8] c"-s\00", align 1
@.str.4.23 = private unnamed_addr constant [32 x i8] c"Missing integer argument to -s\0A\00", align 1
@.str.5.24 = private unnamed_addr constant [64 x i8] c"Parse Error on option -s integer value required after argument\0A\00", align 1
@.str.6.25 = private unnamed_addr constant [3 x i8] c"-r\00", align 1
@.str.7.26 = private unnamed_addr constant [32 x i8] c"Missing integer argument to -r\0A\00", align 1
@.str.8.27 = private unnamed_addr constant [64 x i8] c"Parse Error on option -r integer value required after argument\0A\00", align 1
@.str.9.28 = private unnamed_addr constant [3 x i8] c"-f\00", align 1
@.str.10.29 = private unnamed_addr constant [32 x i8] c"Missing integer argument to -f\0A\00", align 1
@.str.11.30 = private unnamed_addr constant [64 x i8] c"Parse Error on option -f integer value required after argument\0A\00", align 1
@.str.12.31 = private unnamed_addr constant [3 x i8] c"-p\00", align 1
@.str.13.32 = private unnamed_addr constant [3 x i8] c"-q\00", align 1
@.str.14.33 = private unnamed_addr constant [3 x i8] c"-b\00", align 1
@.str.15.34 = private unnamed_addr constant [32 x i8] c"Missing integer argument to -b\0A\00", align 1
@.str.16.35 = private unnamed_addr constant [64 x i8] c"Parse Error on option -b integer value required after argument\0A\00", align 1
@.str.17.36 = private unnamed_addr constant [3 x i8] c"-c\00", align 1
@.str.18.37 = private unnamed_addr constant [32 x i8] c"Missing integer argument to -c\0A\00", align 1
@.str.19.38 = private unnamed_addr constant [64 x i8] c"Parse Error on option -c integer value required after argument\0A\00", align 1
@.str.20 = private unnamed_addr constant [3 x i8] c"-v\00", align 1
@.str.21 = private unnamed_addr constant [46 x i8] c"Use of -v requires compiling with -DVIZ_MESH\0A\00", align 1
@.str.22 = private unnamed_addr constant [3 x i8] c"-h\00", align 1
@.str.23 = private unnamed_addr constant [42 x i8] c"ERROR: Unknown command line argument: %s\0A\00", align 1
@.str.42 = private unnamed_addr constant [18 x i8] c"Usage: %s [opts]\0A\00", align 1
@.str.43 = private unnamed_addr constant [34 x i8] c" where [opts] is one or more of:\0A\00", align 1
@.str.44 = private unnamed_addr constant [53 x i8] c" -q              : quiet mode - suppress all stdout\0A\00", align 1
@.str.45 = private unnamed_addr constant [44 x i8] c" -i <iterations> : number of cycles to run\0A\00", align 1
@.str.46 = private unnamed_addr constant [51 x i8] c" -s <size>       : length of cube mesh along side\0A\00", align 1
@.str.47 = private unnamed_addr constant [57 x i8] c" -r <numregions> : Number of distinct regions (def: 11)\0A\00", align 1
@.str.48 = private unnamed_addr constant [70 x i8] c" -b <balance>    : Load balance between regions of a domain (def: 1)\0A\00", align 1
@.str.49 = private unnamed_addr constant [66 x i8] c" -c <cost>       : Extra cost of more expensive regions (def: 1)\0A\00", align 1
@.str.50 = private unnamed_addr constant [76 x i8] c" -f <numfiles>   : Number of files to split viz dump into (def: (np+10)/9)\0A\00", align 1
@.str.51 = private unnamed_addr constant [39 x i8] c" -p              : Print out progress\0A\00", align 1
@.str.52 = private unnamed_addr constant [72 x i8] c" -v              : Output viz file (requires compiling with -DVIZ_MESH\0A\00", align 1
@.str.53 = private unnamed_addr constant [33 x i8] c" -h              : This message\0A\00", align 1
@.str.54 = private unnamed_addr constant [3 x i8] c"\0A\0A\00", align 1
@.str.41 = private unnamed_addr constant [4 x i8] c"%s\0A\00", align 1
@.str.24 = private unnamed_addr constant [16 x i8] c"Run completed:\0A\00", align 1
@.str.25 = private unnamed_addr constant [27 x i8] c"   Problem size        =  \00", align 1
@.str.26 = private unnamed_addr constant [2 x i8] c"\0A\00", align 1
@.str.27 = private unnamed_addr constant [27 x i8] c"   MPI tasks           =  \00", align 1
@.str.28 = private unnamed_addr constant [27 x i8] c"   Iteration count     =  \00", align 1
@.str.29 = private unnamed_addr constant [27 x i8] c"   Final Origin Energy =  \00", align 1
@.str.30 = private unnamed_addr constant [47 x i8] c"   Testing Plane 0 of Energy Array on rank 0:\0A\00", align 1
@.str.31 = private unnamed_addr constant [24 x i8] c"        MaxAbsDiff   = \00", align 1
@.str.32 = private unnamed_addr constant [24 x i8] c"        TotalAbsDiff = \00", align 1
@.str.33 = private unnamed_addr constant [24 x i8] c"        MaxRelDiff   = \00", align 1
@.str.34 = private unnamed_addr constant [25 x i8] c"\0AElapsed time         = \00", align 1
@.str.35 = private unnamed_addr constant [6 x i8] c" (s)\0A\00", align 1
@.str.36 = private unnamed_addr constant [24 x i8] c"Grind time (us/z/c)  = \00", align 1
@.str.37 = private unnamed_addr constant [14 x i8] c" (per dom)  (\00", align 1
@.str.38 = private unnamed_addr constant [11 x i8] c" overall)\0A\00", align 1
@.str.39 = private unnamed_addr constant [24 x i8] c"FOM                  = \00", align 1
@.str.40 = private unnamed_addr constant [9 x i8] c" (z/s)\0A\0A\00", align 1
@.str.55 = private unnamed_addr constant [59 x i8] c"Must enable -DVIZ_MESH at compile time to call DumpDomain\0A\00", align 1

@_ZN6DomainC1Eiiiiiiiii = dso_local unnamed_addr alias void (%class.Domain*, i32, i32, i32, i32, i32, i32, i32, i32, i32), void (%class.Domain*, i32, i32, i32, i32, i32, i32, i32, i32, i32)* @_ZN6DomainC2Eiiiiiiiii
@_ZN6DomainD1Ev = dso_local unnamed_addr alias void (%class.Domain*), void (%class.Domain*)* @_ZN6DomainD2Ev

; Function Attrs: uwtable
define dso_local void @_ZN6DomainC2Eiiiiiiiii(%class.Domain* %this, i32 %numRanks, i32 %colLoc, i32 %rowLoc, i32 %planeLoc, i32 %nx, i32 %tp, i32 %nr, i32 %balance, i32 %cost) unnamed_addr #0 align 2 personality i8* bitcast (i32 (...)* @__gxx_personality_v0 to i8*) {
entry.dup0:
  %x_local.dup0 = alloca [8 x double], align 16
  %y_local.dup0 = alloca [8 x double], align 16
  %z_local.dup0 = alloca [8 x double], align 16
  %m_x.dup0 = getelementptr inbounds %class.Domain, %class.Domain* %this, i32 0, i32 0
  call void @_ZNSt6vectorIdSaIdEEC2Ev(%"class.std::vector"* %m_x.dup0) #14
  %m_y.dup0 = getelementptr inbounds %class.Domain, %class.Domain* %this, i32 0, i32 1
  call void @_ZNSt6vectorIdSaIdEEC2Ev(%"class.std::vector"* %m_y.dup0) #14
  %m_z.dup0 = getelementptr inbounds %class.Domain, %class.Domain* %this, i32 0, i32 2
  call void @_ZNSt6vectorIdSaIdEEC2Ev(%"class.std::vector"* %m_z.dup0) #14
  %m_xd.dup0 = getelementptr inbounds %class.Domain, %class.Domain* %this, i32 0, i32 3
  call void @_ZNSt6vectorIdSaIdEEC2Ev(%"class.std::vector"* %m_xd.dup0) #14
  %m_yd.dup0 = getelementptr inbounds %class.Domain, %class.Domain* %this, i32 0, i32 4
  call void @_ZNSt6vectorIdSaIdEEC2Ev(%"class.std::vector"* %m_yd.dup0) #14
  %m_zd.dup0 = getelementptr inbounds %class.Domain, %class.Domain* %this, i32 0, i32 5
  call void @_ZNSt6vectorIdSaIdEEC2Ev(%"class.std::vector"* %m_zd.dup0) #14
  %m_xdd.dup0 = getelementptr inbounds %class.Domain, %class.Domain* %this, i32 0, i32 6
  call void @_ZNSt6vectorIdSaIdEEC2Ev(%"class.std::vector"* %m_xdd.dup0) #14
  %m_ydd.dup0 = getelementptr inbounds %class.Domain, %class.Domain* %this, i32 0, i32 7
  call void @_ZNSt6vectorIdSaIdEEC2Ev(%"class.std::vector"* %m_ydd.dup0) #14
  %m_zdd.dup0 = getelementptr inbounds %class.Domain, %class.Domain* %this, i32 0, i32 8
  call void @_ZNSt6vectorIdSaIdEEC2Ev(%"class.std::vector"* %m_zdd.dup0) #14
  %m_fx.dup0 = getelementptr inbounds %class.Domain, %class.Domain* %this, i32 0, i32 9
  call void @_ZNSt6vectorIdSaIdEEC2Ev(%"class.std::vector"* %m_fx.dup0) #14
  %m_fy.dup0 = getelementptr inbounds %class.Domain, %class.Domain* %this, i32 0, i32 10
  call void @_ZNSt6vectorIdSaIdEEC2Ev(%"class.std::vector"* %m_fy.dup0) #14
  %m_fz.dup0 = getelementptr inbounds %class.Domain, %class.Domain* %this, i32 0, i32 11
  call void @_ZNSt6vectorIdSaIdEEC2Ev(%"class.std::vector"* %m_fz.dup0) #14
  %m_nodalMass.dup0 = getelementptr inbounds %class.Domain, %class.Domain* %this, i32 0, i32 12
  call void @_ZNSt6vectorIdSaIdEEC2Ev(%"class.std::vector"* %m_nodalMass.dup0) #14
  %m_symmX.dup0 = getelementptr inbounds %class.Domain, %class.Domain* %this, i32 0, i32 13
  call void @_ZNSt6vectorIiSaIiEEC2Ev(%"class.std::vector.0"* %m_symmX.dup0) #14
  %m_symmY.dup0 = getelementptr inbounds %class.Domain, %class.Domain* %this, i32 0, i32 14
  call void @_ZNSt6vectorIiSaIiEEC2Ev(%"class.std::vector.0"* %m_symmY.dup0) #14
  %m_symmZ.dup0 = getelementptr inbounds %class.Domain, %class.Domain* %this, i32 0, i32 15
  call void @_ZNSt6vectorIiSaIiEEC2Ev(%"class.std::vector.0"* %m_symmZ.dup0) #14
  %m_regElemSize.dup0 = getelementptr inbounds %class.Domain, %class.Domain* %this, i32 0, i32 18
  store i32* null, i32** %m_regElemSize.dup0, align 8, !tbaa !2
  %m_regNumList.dup0 = getelementptr inbounds %class.Domain, %class.Domain* %this, i32 0, i32 19
  store i32* null, i32** %m_regNumList.dup0, align 8, !tbaa !11
  %m_regElemlist.dup0 = getelementptr inbounds %class.Domain, %class.Domain* %this, i32 0, i32 20
  store i32** null, i32*** %m_regElemlist.dup0, align 8, !tbaa !12
  %m_nodelist.dup0 = getelementptr inbounds %class.Domain, %class.Domain* %this, i32 0, i32 21
  call void @_ZNSt6vectorIiSaIiEEC2Ev(%"class.std::vector.0"* %m_nodelist.dup0) #14
  %m_lxim.dup0 = getelementptr inbounds %class.Domain, %class.Domain* %this, i32 0, i32 22
  call void @_ZNSt6vectorIiSaIiEEC2Ev(%"class.std::vector.0"* %m_lxim.dup0) #14
  %m_lxip.dup0 = getelementptr inbounds %class.Domain, %class.Domain* %this, i32 0, i32 23
  call void @_ZNSt6vectorIiSaIiEEC2Ev(%"class.std::vector.0"* %m_lxip.dup0) #14
  %m_letam.dup0 = getelementptr inbounds %class.Domain, %class.Domain* %this, i32 0, i32 24
  call void @_ZNSt6vectorIiSaIiEEC2Ev(%"class.std::vector.0"* %m_letam.dup0) #14
  %m_letap.dup0 = getelementptr inbounds %class.Domain, %class.Domain* %this, i32 0, i32 25
  call void @_ZNSt6vectorIiSaIiEEC2Ev(%"class.std::vector.0"* %m_letap.dup0) #14
  %m_lzetam.dup0 = getelementptr inbounds %class.Domain, %class.Domain* %this, i32 0, i32 26
  call void @_ZNSt6vectorIiSaIiEEC2Ev(%"class.std::vector.0"* %m_lzetam.dup0) #14
  %m_lzetap.dup0 = getelementptr inbounds %class.Domain, %class.Domain* %this, i32 0, i32 27
  call void @_ZNSt6vectorIiSaIiEEC2Ev(%"class.std::vector.0"* %m_lzetap.dup0) #14
  %m_elemBC.dup0 = getelementptr inbounds %class.Domain, %class.Domain* %this, i32 0, i32 28
  call void @_ZNSt6vectorIiSaIiEEC2Ev(%"class.std::vector.0"* %m_elemBC.dup0) #14
  %m_e.dup0 = getelementptr inbounds %class.Domain, %class.Domain* %this, i32 0, i32 38
  call void @_ZNSt6vectorIdSaIdEEC2Ev(%"class.std::vector"* %m_e.dup0) #14
  %m_p.dup0 = getelementptr inbounds %class.Domain, %class.Domain* %this, i32 0, i32 39
  call void @_ZNSt6vectorIdSaIdEEC2Ev(%"class.std::vector"* %m_p.dup0) #14
  %m_q.dup0 = getelementptr inbounds %class.Domain, %class.Domain* %this, i32 0, i32 40
  call void @_ZNSt6vectorIdSaIdEEC2Ev(%"class.std::vector"* %m_q.dup0) #14
  %m_ql.dup0 = getelementptr inbounds %class.Domain, %class.Domain* %this, i32 0, i32 41
  call void @_ZNSt6vectorIdSaIdEEC2Ev(%"class.std::vector"* %m_ql.dup0) #14
  %m_qq.dup0 = getelementptr inbounds %class.Domain, %class.Domain* %this, i32 0, i32 42
  call void @_ZNSt6vectorIdSaIdEEC2Ev(%"class.std::vector"* %m_qq.dup0) #14
  %m_v.dup0 = getelementptr inbounds %class.Domain, %class.Domain* %this, i32 0, i32 43
  call void @_ZNSt6vectorIdSaIdEEC2Ev(%"class.std::vector"* %m_v.dup0) #14
  %m_volo.dup0 = getelementptr inbounds %class.Domain, %class.Domain* %this, i32 0, i32 44
  call void @_ZNSt6vectorIdSaIdEEC2Ev(%"class.std::vector"* %m_volo.dup0) #14
  %m_vnew.dup0 = getelementptr inbounds %class.Domain, %class.Domain* %this, i32 0, i32 45
  call void @_ZNSt6vectorIdSaIdEEC2Ev(%"class.std::vector"* %m_vnew.dup0) #14
  %m_delv.dup0 = getelementptr inbounds %class.Domain, %class.Domain* %this, i32 0, i32 46
  call void @_ZNSt6vectorIdSaIdEEC2Ev(%"class.std::vector"* %m_delv.dup0) #14
  %m_vdov.dup0 = getelementptr inbounds %class.Domain, %class.Domain* %this, i32 0, i32 47
  call void @_ZNSt6vectorIdSaIdEEC2Ev(%"class.std::vector"* %m_vdov.dup0) #14
  %m_arealg.dup0 = getelementptr inbounds %class.Domain, %class.Domain* %this, i32 0, i32 48
  call void @_ZNSt6vectorIdSaIdEEC2Ev(%"class.std::vector"* %m_arealg.dup0) #14
  %m_ss.dup0 = getelementptr inbounds %class.Domain, %class.Domain* %this, i32 0, i32 49
  call void @_ZNSt6vectorIdSaIdEEC2Ev(%"class.std::vector"* %m_ss.dup0) #14
  %m_elemMass.dup0 = getelementptr inbounds %class.Domain, %class.Domain* %this, i32 0, i32 50
  call void @_ZNSt6vectorIdSaIdEEC2Ev(%"class.std::vector"* %m_elemMass.dup0) #14
  %m_e_cut.dup0 = getelementptr inbounds %class.Domain, %class.Domain* %this, i32 0, i32 51
  store double 0x3E7AD7F29ABCAF48, double* %m_e_cut.dup0, align 8, !tbaa !13
  %m_p_cut.dup0 = getelementptr inbounds %class.Domain, %class.Domain* %this, i32 0, i32 52
  store double 0x3E7AD7F29ABCAF48, double* %m_p_cut.dup0, align 8, !tbaa !14
  %m_q_cut.dup0 = getelementptr inbounds %class.Domain, %class.Domain* %this, i32 0, i32 53
  store double 0x3E7AD7F29ABCAF48, double* %m_q_cut.dup0, align 8, !tbaa !15
  %m_v_cut.dup0 = getelementptr inbounds %class.Domain, %class.Domain* %this, i32 0, i32 54
  store double 1.000000e-10, double* %m_v_cut.dup0, align 8, !tbaa !16
  %m_u_cut.dup0 = getelementptr inbounds %class.Domain, %class.Domain* %this, i32 0, i32 55
  store double 0x3E7AD7F29ABCAF48, double* %m_u_cut.dup0, align 8, !tbaa !17
  %m_hgcoef.dup0 = getelementptr inbounds %class.Domain, %class.Domain* %this, i32 0, i32 56
  store double 3.000000e+00, double* %m_hgcoef.dup0, align 8, !tbaa !18
  %m_ss4o3.dup0 = getelementptr inbounds %class.Domain, %class.Domain* %this, i32 0, i32 57
  store double 0x3FF5555555555555, double* %m_ss4o3.dup0, align 8, !tbaa !19
  %m_qstop.dup0 = getelementptr inbounds %class.Domain, %class.Domain* %this, i32 0, i32 58
  store double 1.000000e+12, double* %m_qstop.dup0, align 8, !tbaa !20
  %m_monoq_max_slope.dup0 = getelementptr inbounds %class.Domain, %class.Domain* %this, i32 0, i32 59
  store double 1.000000e+00, double* %m_monoq_max_slope.dup0, align 8, !tbaa !21
  %m_monoq_limiter_mult.dup0 = getelementptr inbounds %class.Domain, %class.Domain* %this, i32 0, i32 60
  store double 2.000000e+00, double* %m_monoq_limiter_mult.dup0, align 8, !tbaa !22
  %m_qlc_monoq.dup0 = getelementptr inbounds %class.Domain, %class.Domain* %this, i32 0, i32 61
  store double 5.000000e-01, double* %m_qlc_monoq.dup0, align 8, !tbaa !23
  %m_qqc_monoq.dup0 = getelementptr inbounds %class.Domain, %class.Domain* %this, i32 0, i32 62
  store double 0x3FE5555555555555, double* %m_qqc_monoq.dup0, align 8, !tbaa !24
  %m_qqc.dup0 = getelementptr inbounds %class.Domain, %class.Domain* %this, i32 0, i32 63
  store double 2.000000e+00, double* %m_qqc.dup0, align 8, !tbaa !25
  %m_eosvmax.dup0 = getelementptr inbounds %class.Domain, %class.Domain* %this, i32 0, i32 64
  store double 1.000000e+09, double* %m_eosvmax.dup0, align 8, !tbaa !26
  %m_eosvmin.dup0 = getelementptr inbounds %class.Domain, %class.Domain* %this, i32 0, i32 65
  store double 1.000000e-09, double* %m_eosvmin.dup0, align 8, !tbaa !27
  %m_pmin.dup0 = getelementptr inbounds %class.Domain, %class.Domain* %this, i32 0, i32 66
  store double 0.000000e+00, double* %m_pmin.dup0, align 8, !tbaa !28
  %m_emin.dup0 = getelementptr inbounds %class.Domain, %class.Domain* %this, i32 0, i32 67
  store double -1.000000e+15, double* %m_emin.dup0, align 8, !tbaa !29
  %m_dvovmax.dup0 = getelementptr inbounds %class.Domain, %class.Domain* %this, i32 0, i32 68
  store double 1.000000e-01, double* %m_dvovmax.dup0, align 8, !tbaa !30
  %m_refdens.dup0 = getelementptr inbounds %class.Domain, %class.Domain* %this, i32 0, i32 69
  store double 1.000000e+00, double* %m_refdens.dup0, align 8, !tbaa !31
  %m_nodeElemStart.dup0 = getelementptr inbounds %class.Domain, %class.Domain* %this, i32 0, i32 92
  store i32* null, i32** %m_nodeElemStart.dup0, align 8, !tbaa !32
  %m_nodeElemCornerList.dup0 = getelementptr inbounds %class.Domain, %class.Domain* %this, i32 0, i32 93
  store i32* null, i32** %m_nodeElemCornerList.dup0, align 8, !tbaa !33
  %add.dup0 = add nsw i32 %nx, 1
  %call.dup0 = invoke nonnull align 4 dereferenceable(4) i32* @_ZN6Domain4costEv(%class.Domain* %this)
          to label %invoke.cont unwind label %lpad

lpad.dup0:                                        ; No predecessors!
  %call110.dup0348 = phi i32* [ undef, %invoke.cont101.dup0 ], [ undef, %invoke.cont99.dup0 ], [ undef, %invoke.cont92.dup0 ], [ undef, %invoke.cont90.dup0 ], [ undef, %invoke.cont7.dup0 ], [ undef, %invoke.cont97.dup0 ], [ undef, %for.end87.dup0 ], [ undef, %invoke.cont15.dup0 ], [ undef, %invoke.cont103.dup0 ], [ undef, %invoke.cont95.dup0 ], [ undef, %invoke.cont93.dup0 ], [ undef, %invoke.cont13.dup0 ], [ undef, %invoke.cont.dup0 ], [ undef, %invoke.cont88.dup0 ], [ undef, %invoke.cont12.dup0 ], [ undef, %invoke.cont10.dup0 ], [ undef, %invoke.cont5.dup0 ], [ %call110.dup0, %invoke.cont107.dup0 ], [ undef, %entry.dup0 ], [ undef, %invoke.cont89.dup0 ], [ undef, %invoke.cont105.dup0 ], [ undef, %invoke.cont91.dup0 ]
  %call108.dup0349 = phi double* [ undef, %invoke.cont101.dup0 ], [ undef, %invoke.cont99.dup0 ], [ undef, %invoke.cont92.dup0 ], [ undef, %invoke.cont90.dup0 ], [ undef, %invoke.cont7.dup0 ], [ undef, %invoke.cont97.dup0 ], [ undef, %for.end87.dup0 ], [ undef, %invoke.cont15.dup0 ], [ undef, %invoke.cont103.dup0 ], [ undef, %invoke.cont95.dup0 ], [ undef, %invoke.cont93.dup0 ], [ undef, %invoke.cont13.dup0 ], [ undef, %invoke.cont.dup0 ], [ undef, %invoke.cont88.dup0 ], [ undef, %invoke.cont12.dup0 ], [ undef, %invoke.cont10.dup0 ], [ undef, %invoke.cont5.dup0 ], [ %call108.dup0181, %invoke.cont107.dup0 ], [ undef, %entry.dup0 ], [ undef, %invoke.cont89.dup0 ], [ %call108.dup0, %invoke.cont105.dup0 ], [ undef, %invoke.cont91.dup0 ]
  %call8.dup0350 = phi i8* [ %call8.dup04645, %invoke.cont101.dup0 ], [ %call8.dup04611, %invoke.cont99.dup0 ], [ %call8.dup04443, %invoke.cont92.dup0 ], [ %call8.dup04346, %invoke.cont90.dup0 ], [ %call8.dup02171, %invoke.cont7.dup0 ], [ %call8.dup04573, %invoke.cont97.dup0 ], [ %call8.dup04202, %for.end87.dup0 ], [ %call8.dup02361, %invoke.cont15.dup0 ], [ %call8.dup04706, %invoke.cont103.dup0 ], [ %call8.dup04514, %invoke.cont95.dup0 ], [ %call8.dup04478, %invoke.cont93.dup0 ], [ %call8.dup02325, %invoke.cont13.dup0 ], [ undef, %invoke.cont.dup0 ], [ %call8.dup04253, %invoke.cont88.dup0 ], [ %call8.dup02257, %invoke.cont12.dup0 ], [ %call8.dup02231, %invoke.cont10.dup0 ], [ %call8.dup0, %invoke.cont5.dup0 ], [ %call8.dup05231, %invoke.cont107.dup0 ], [ undef, %entry.dup0 ], [ %call8.dup04289, %invoke.cont89.dup0 ], [ %call8.dup05225, %invoke.cont105.dup0 ], [ %call8.dup04380, %invoke.cont91.dup0 ]
  %m_x.dup0351 = phi %"class.std::vector"* [ %m_x.dup04666, %invoke.cont101.dup0 ], [ %m_x.dup04597, %invoke.cont99.dup0 ], [ %m_x.dup04431, %invoke.cont92.dup0 ], [ %m_x.dup04332, %invoke.cont90.dup0 ], [ %m_x.dup02188, %invoke.cont7.dup0 ], [ %m_x.dup04562, %invoke.cont97.dup0 ], [ %m_x.dup04200, %for.end87.dup0 ], [ %m_x.dup02364, %invoke.cont15.dup0 ], [ %m_x.dup04699, %invoke.cont103.dup0 ], [ %m_x.dup04532, %invoke.cont95.dup0 ], [ %m_x.dup04465, %invoke.cont93.dup0 ], [ %m_x.dup02299, %invoke.cont13.dup0 ], [ %m_x.dup083, %invoke.cont.dup0 ], [ %m_x.dup04270, %invoke.cont88.dup0 ], [ %m_x.dup02276, %invoke.cont12.dup0 ], [ %m_x.dup02212, %invoke.cont10.dup0 ], [ %m_x.dup0617, %invoke.cont5.dup0 ], [ %m_x.dup05303, %invoke.cont107.dup0 ], [ %m_x.dup0, %entry.dup0 ], [ %m_x.dup04301, %invoke.cont89.dup0 ], [ %m_x.dup05216, %invoke.cont105.dup0 ], [ %m_x.dup04403, %invoke.cont91.dup0 ]
  %z_local.dup0352 = phi [8 x double]* [ %z_local.dup04657, %invoke.cont101.dup0 ], [ %z_local.dup04619, %invoke.cont99.dup0 ], [ %z_local.dup04424, %invoke.cont92.dup0 ], [ %z_local.dup04355, %invoke.cont90.dup0 ], [ %z_local.dup02189, %invoke.cont7.dup0 ], [ %z_local.dup04555, %invoke.cont97.dup0 ], [ %z_local.dup04221, %for.end87.dup0 ], [ %z_local.dup02365, %invoke.cont15.dup0 ], [ %z_local.dup04693, %invoke.cont103.dup0 ], [ %z_local.dup04522, %invoke.cont95.dup0 ], [ %z_local.dup04484, %invoke.cont93.dup0 ], [ %z_local.dup02298, %invoke.cont13.dup0 ], [ %z_local.dup082, %invoke.cont.dup0 ], [ %z_local.dup04260, %invoke.cont88.dup0 ], [ %z_local.dup02277, %invoke.cont12.dup0 ], [ %z_local.dup02211, %invoke.cont10.dup0 ], [ %z_local.dup0618, %invoke.cont5.dup0 ], [ %z_local.dup05294, %invoke.cont107.dup0 ], [ %z_local.dup0, %entry.dup0 ], [ %z_local.dup04292, %invoke.cont89.dup0 ], [ %z_local.dup05207, %invoke.cont105.dup0 ], [ %z_local.dup04391, %invoke.cont91.dup0 ]
  %y_local.dup0353 = phi [8 x double]* [ %y_local.dup04658, %invoke.cont101.dup0 ], [ %y_local.dup04618, %invoke.cont99.dup0 ], [ %y_local.dup04425, %invoke.cont92.dup0 ], [ %y_local.dup04354, %invoke.cont90.dup0 ], [ %y_local.dup02190, %invoke.cont7.dup0 ], [ %y_local.dup04556, %invoke.cont97.dup0 ], [ %y_local.dup04220, %for.end87.dup0 ], [ %y_local.dup02366, %invoke.cont15.dup0 ], [ %y_local.dup04694, %invoke.cont103.dup0 ], [ %y_local.dup04523, %invoke.cont95.dup0 ], [ %y_local.dup04483, %invoke.cont93.dup0 ], [ %y_local.dup02297, %invoke.cont13.dup0 ], [ %y_local.dup081, %invoke.cont.dup0 ], [ %y_local.dup04261, %invoke.cont88.dup0 ], [ %y_local.dup02278, %invoke.cont12.dup0 ], [ %y_local.dup02210, %invoke.cont10.dup0 ], [ %y_local.dup0619, %invoke.cont5.dup0 ], [ %y_local.dup05296, %invoke.cont107.dup0 ], [ %y_local.dup0, %entry.dup0 ], [ %y_local.dup04293, %invoke.cont89.dup0 ], [ %y_local.dup05209, %invoke.cont105.dup0 ], [ %y_local.dup04392, %invoke.cont91.dup0 ]
  %m_delv.dup0354 = phi %"class.std::vector"* [ %m_delv.dup04656, %invoke.cont101.dup0 ], [ %m_delv.dup04595, %invoke.cont99.dup0 ], [ %m_delv.dup04409, %invoke.cont92.dup0 ], [ %m_delv.dup04321, %invoke.cont90.dup0 ], [ %m_delv.dup02187, %invoke.cont7.dup0 ], [ %m_delv.dup04542, %invoke.cont97.dup0 ], [ %m_delv.dup04190, %for.end87.dup0 ], [ %m_delv.dup02348, %invoke.cont15.dup0 ], [ %m_delv.dup04692, %invoke.cont103.dup0 ], [ %m_delv.dup04495, %invoke.cont95.dup0 ], [ %m_delv.dup04454, %invoke.cont93.dup0 ], [ %m_delv.dup02305, %invoke.cont13.dup0 ], [ %m_delv.dup080, %invoke.cont.dup0 ], [ %m_delv.dup04233, %invoke.cont88.dup0 ], [ %m_delv.dup02258, %invoke.cont12.dup0 ], [ %m_delv.dup02213, %invoke.cont10.dup0 ], [ %m_delv.dup0620, %invoke.cont5.dup0 ], [ %m_delv.dup05308, %invoke.cont107.dup0 ], [ %m_delv.dup0, %entry.dup0 ], [ %m_delv.dup04278, %invoke.cont89.dup0 ], [ %m_delv.dup05221, %invoke.cont105.dup0 ], [ %m_delv.dup04366, %invoke.cont91.dup0 ]
  %m_e.dup0355 = phi %"class.std::vector"* [ %m_e.dup04655, %invoke.cont101.dup0 ], [ %m_e.dup04622, %invoke.cont99.dup0 ], [ %m_e.dup04407, %invoke.cont92.dup0 ], [ %m_e.dup04319, %invoke.cont90.dup0 ], [ %m_e.dup02186, %invoke.cont7.dup0 ], [ %m_e.dup04544, %invoke.cont97.dup0 ], [ %m_e.dup04192, %for.end87.dup0 ], [ %m_e.dup02350, %invoke.cont15.dup0 ], [ %m_e.dup04691, %invoke.cont103.dup0 ], [ %m_e.dup04493, %invoke.cont95.dup0 ], [ %m_e.dup04456, %invoke.cont93.dup0 ], [ %m_e.dup02303, %invoke.cont13.dup0 ], [ %m_e.dup079, %invoke.cont.dup0 ], [ %m_e.dup04231, %invoke.cont88.dup0 ], [ %m_e.dup02259, %invoke.cont12.dup0 ], [ %m_e.dup02248, %invoke.cont10.dup0 ], [ %m_e.dup0621, %invoke.cont5.dup0 ], [ %m_e.dup05293, %invoke.cont107.dup0 ], [ %m_e.dup0, %entry.dup0 ], [ %m_e.dup04280, %invoke.cont89.dup0 ], [ %m_e.dup05206, %invoke.cont105.dup0 ], [ %m_e.dup04368, %invoke.cont91.dup0 ]
  %m_z.dup0356 = phi %"class.std::vector"* [ %m_z.dup04634, %invoke.cont101.dup0 ], [ %m_z.dup04587, %invoke.cont99.dup0 ], [ %m_z.dup04408, %invoke.cont92.dup0 ], [ %m_z.dup04320, %invoke.cont90.dup0 ], [ %m_z.dup02185, %invoke.cont7.dup0 ], [ %m_z.dup04543, %invoke.cont97.dup0 ], [ %m_z.dup04191, %for.end87.dup0 ], [ %m_z.dup02349, %invoke.cont15.dup0 ], [ %m_z.dup04676, %invoke.cont103.dup0 ], [ %m_z.dup04494, %invoke.cont95.dup0 ], [ %m_z.dup04455, %invoke.cont93.dup0 ], [ %m_z.dup02304, %invoke.cont13.dup0 ], [ %m_z.dup078, %invoke.cont.dup0 ], [ %m_z.dup04232, %invoke.cont88.dup0 ], [ %m_z.dup02260, %invoke.cont12.dup0 ], [ %m_z.dup02247, %invoke.cont10.dup0 ], [ %m_z.dup0622, %invoke.cont5.dup0 ], [ %m_z.dup05295, %invoke.cont107.dup0 ], [ %m_z.dup0, %entry.dup0 ], [ %m_z.dup04279, %invoke.cont89.dup0 ], [ %m_z.dup05208, %invoke.cont105.dup0 ], [ %m_z.dup04367, %invoke.cont91.dup0 ]
  %x_local.dup0357 = phi [8 x double]* [ %x_local.dup04629, %invoke.cont101.dup0 ], [ %x_local.dup04582, %invoke.cont99.dup0 ], [ %x_local.dup04411, %invoke.cont92.dup0 ], [ %x_local.dup04323, %invoke.cont90.dup0 ], [ %x_local.dup02184, %invoke.cont7.dup0 ], [ %x_local.dup04541, %invoke.cont97.dup0 ], [ %x_local.dup04189, %for.end87.dup0 ], [ %x_local.dup02352, %invoke.cont15.dup0 ], [ %x_local.dup04670, %invoke.cont103.dup0 ], [ %x_local.dup04497, %invoke.cont95.dup0 ], [ %x_local.dup04453, %invoke.cont93.dup0 ], [ %x_local.dup02334, %invoke.cont13.dup0 ], [ %x_local.dup077, %invoke.cont.dup0 ], [ %x_local.dup04235, %invoke.cont88.dup0 ], [ %x_local.dup02270, %invoke.cont12.dup0 ], [ %x_local.dup02246, %invoke.cont10.dup0 ], [ %x_local.dup0657, %invoke.cont5.dup0 ], [ %x_local.dup05248, %invoke.cont107.dup0 ], [ %x_local.dup0, %entry.dup0 ], [ %x_local.dup04277, %invoke.cont89.dup0 ], [ %x_local.dup05168, %invoke.cont105.dup0 ], [ %x_local.dup04365, %invoke.cont91.dup0 ]
  %m_yd.dup0358 = phi %"class.std::vector"* [ %m_yd.dup04628, %invoke.cont101.dup0 ], [ %m_yd.dup04581, %invoke.cont99.dup0 ], [ %m_yd.dup04410, %invoke.cont92.dup0 ], [ %m_yd.dup04322, %invoke.cont90.dup0 ], [ %m_yd.dup02183, %invoke.cont7.dup0 ], [ %m_yd.dup04540, %invoke.cont97.dup0 ], [ %m_yd.dup04188, %for.end87.dup0 ], [ %m_yd.dup02351, %invoke.cont15.dup0 ], [ %m_yd.dup04669, %invoke.cont103.dup0 ], [ %m_yd.dup04496, %invoke.cont95.dup0 ], [ %m_yd.dup04452, %invoke.cont93.dup0 ], [ %m_yd.dup02335, %invoke.cont13.dup0 ], [ %m_yd.dup076, %invoke.cont.dup0 ], [ %m_yd.dup04234, %invoke.cont88.dup0 ], [ %m_yd.dup02271, %invoke.cont12.dup0 ], [ %m_yd.dup02245, %invoke.cont10.dup0 ], [ %m_yd.dup0658, %invoke.cont5.dup0 ], [ %m_yd.dup05251, %invoke.cont107.dup0 ], [ %m_yd.dup0, %entry.dup0 ], [ %m_yd.dup04276, %invoke.cont89.dup0 ], [ %m_yd.dup05182, %invoke.cont105.dup0 ], [ %m_yd.dup04364, %invoke.cont91.dup0 ]
  %m_fy.dup0359 = phi %"class.std::vector"* [ %m_fy.dup04661, %invoke.cont101.dup0 ], [ %m_fy.dup04604, %invoke.cont99.dup0 ], [ %m_fy.dup04438, %invoke.cont92.dup0 ], [ %m_fy.dup04348, %invoke.cont90.dup0 ], [ %m_fy.dup02178, %invoke.cont7.dup0 ], [ %m_fy.dup04563, %invoke.cont97.dup0 ], [ %m_fy.dup04212, %for.end87.dup0 ], [ %m_fy.dup02357, %invoke.cont15.dup0 ], [ %m_fy.dup04698, %invoke.cont103.dup0 ], [ %m_fy.dup04519, %invoke.cont95.dup0 ], [ %m_fy.dup04481, %invoke.cont93.dup0 ], [ %m_fy.dup02333, %invoke.cont13.dup0 ], [ %m_fy.dup075, %invoke.cont.dup0 ], [ %m_fy.dup04250, %invoke.cont88.dup0 ], [ %m_fy.dup02269, %invoke.cont12.dup0 ], [ %m_fy.dup02242, %invoke.cont10.dup0 ], [ %m_fy.dup0659, %invoke.cont5.dup0 ], [ %m_fy.dup05302, %invoke.cont107.dup0 ], [ %m_fy.dup0, %entry.dup0 ], [ %m_fy.dup04310, %invoke.cont89.dup0 ], [ %m_fy.dup05215, %invoke.cont105.dup0 ], [ %m_fy.dup04386, %invoke.cont91.dup0 ]
  %m_q.dup0360 = phi %"class.std::vector"* [ %m_q.dup04627, %invoke.cont101.dup0 ], [ %m_q.dup04583, %invoke.cont99.dup0 ], [ %m_q.dup04412, %invoke.cont92.dup0 ], [ %m_q.dup04324, %invoke.cont90.dup0 ], [ %m_q.dup02168, %invoke.cont7.dup0 ], [ %m_q.dup04539, %invoke.cont97.dup0 ], [ %m_q.dup04187, %for.end87.dup0 ], [ %m_q.dup02347, %invoke.cont15.dup0 ], [ %m_q.dup04671, %invoke.cont103.dup0 ], [ %m_q.dup04498, %invoke.cont95.dup0 ], [ %m_q.dup04451, %invoke.cont93.dup0 ], [ %m_q.dup02336, %invoke.cont13.dup0 ], [ %m_q.dup074, %invoke.cont.dup0 ], [ %m_q.dup04236, %invoke.cont88.dup0 ], [ %m_q.dup02272, %invoke.cont12.dup0 ], [ %m_q.dup02220, %invoke.cont10.dup0 ], [ %m_q.dup0656, %invoke.cont5.dup0 ], [ %m_q.dup05282, %invoke.cont107.dup0 ], [ %m_q.dup0, %entry.dup0 ], [ %m_q.dup04275, %invoke.cont89.dup0 ], [ %m_q.dup05195, %invoke.cont105.dup0 ], [ %m_q.dup04363, %invoke.cont91.dup0 ]
  %m_arealg.dup0361 = phi %"class.std::vector"* [ %m_arealg.dup04667, %invoke.cont101.dup0 ], [ %m_arealg.dup04596, %invoke.cont99.dup0 ], [ %m_arealg.dup04419, %invoke.cont92.dup0 ], [ %m_arealg.dup04357, %invoke.cont90.dup0 ], [ %m_arealg.dup02167, %invoke.cont7.dup0 ], [ %m_arealg.dup04580, %invoke.cont97.dup0 ], [ %m_arealg.dup04227, %for.end87.dup0 ], [ %m_arealg.dup02346, %invoke.cont15.dup0 ], [ %m_arealg.dup04712, %invoke.cont103.dup0 ], [ %m_arealg.dup04536, %invoke.cont95.dup0 ], [ %m_arealg.dup04492, %invoke.cont93.dup0 ], [ %m_arealg.dup02302, %invoke.cont13.dup0 ], [ %m_arealg.dup073, %invoke.cont.dup0 ], [ %m_arealg.dup04272, %invoke.cont88.dup0 ], [ %m_arealg.dup02273, %invoke.cont12.dup0 ], [ %m_arealg.dup02221, %invoke.cont10.dup0 ], [ %m_arealg.dup0655, %invoke.cont5.dup0 ], [ %m_arealg.dup05279, %invoke.cont107.dup0 ], [ %m_arealg.dup0, %entry.dup0 ], [ %m_arealg.dup04283, %invoke.cont89.dup0 ], [ %m_arealg.dup05192, %invoke.cont105.dup0 ], [ %m_arealg.dup04375, %invoke.cont91.dup0 ]
  %m_ss.dup0362 = phi %"class.std::vector"* [ %m_ss.dup04663, %invoke.cont101.dup0 ], [ %m_ss.dup04600, %invoke.cont99.dup0 ], [ %m_ss.dup04434, %invoke.cont92.dup0 ], [ %m_ss.dup04353, %invoke.cont90.dup0 ], [ %m_ss.dup02169, %invoke.cont7.dup0 ], [ %m_ss.dup04569, %invoke.cont97.dup0 ], [ %m_ss.dup04214, %for.end87.dup0 ], [ %m_ss.dup02339, %invoke.cont15.dup0 ], [ %m_ss.dup04702, %invoke.cont103.dup0 ], [ %m_ss.dup04529, %invoke.cont95.dup0 ], [ %m_ss.dup04468, %invoke.cont93.dup0 ], [ %m_ss.dup02322, %invoke.cont13.dup0 ], [ %m_ss.dup072, %invoke.cont.dup0 ], [ %m_ss.dup04262, %invoke.cont88.dup0 ], [ %m_ss.dup02249, %invoke.cont12.dup0 ], [ %m_ss.dup02239, %invoke.cont10.dup0 ], [ %m_ss.dup0654, %invoke.cont5.dup0 ], [ %m_ss.dup05306, %invoke.cont107.dup0 ], [ %m_ss.dup0, %entry.dup0 ], [ %m_ss.dup04294, %invoke.cont89.dup0 ], [ %m_ss.dup05219, %invoke.cont105.dup0 ], [ %m_ss.dup04395, %invoke.cont91.dup0 ]
  %m_symmZ.dup0363 = phi %"class.std::vector.0"* [ %m_symmZ.dup04652, %invoke.cont101.dup0 ], [ %m_symmZ.dup04615, %invoke.cont99.dup0 ], [ %m_symmZ.dup04428, %invoke.cont92.dup0 ], [ %m_symmZ.dup04336, %invoke.cont90.dup0 ], [ %m_symmZ.dup02182, %invoke.cont7.dup0 ], [ %m_symmZ.dup04559, %invoke.cont97.dup0 ], [ %m_symmZ.dup04208, %for.end87.dup0 ], [ %m_symmZ.dup02342, %invoke.cont15.dup0 ], [ %m_symmZ.dup04688, %invoke.cont103.dup0 ], [ %m_symmZ.dup04524, %invoke.cont95.dup0 ], [ %m_symmZ.dup04472, %invoke.cont93.dup0 ], [ %m_symmZ.dup02319, %invoke.cont13.dup0 ], [ %m_symmZ.dup071, %invoke.cont.dup0 ], [ %m_symmZ.dup04266, %invoke.cont88.dup0 ], [ %m_symmZ.dup02252, %invoke.cont12.dup0 ], [ %m_symmZ.dup02236, %invoke.cont10.dup0 ], [ %m_symmZ.dup0653, %invoke.cont5.dup0 ], [ %m_symmZ.dup05289, %invoke.cont107.dup0 ], [ %m_symmZ.dup0, %entry.dup0 ], [ %m_symmZ.dup04304, %invoke.cont89.dup0 ], [ %m_symmZ.dup05202, %invoke.cont105.dup0 ], [ %m_symmZ.dup04399, %invoke.cont91.dup0 ]
  %m_p.dup0364 = phi %"class.std::vector"* [ %m_p.dup04653, %invoke.cont101.dup0 ], [ %m_p.dup04614, %invoke.cont99.dup0 ], [ %m_p.dup04429, %invoke.cont92.dup0 ], [ %m_p.dup04335, %invoke.cont90.dup0 ], [ %m_p.dup02181, %invoke.cont7.dup0 ], [ %m_p.dup04560, %invoke.cont97.dup0 ], [ %m_p.dup04207, %for.end87.dup0 ], [ %m_p.dup02343, %invoke.cont15.dup0 ], [ %m_p.dup04689, %invoke.cont103.dup0 ], [ %m_p.dup04525, %invoke.cont95.dup0 ], [ %m_p.dup04471, %invoke.cont93.dup0 ], [ %m_p.dup02318, %invoke.cont13.dup0 ], [ %m_p.dup070, %invoke.cont.dup0 ], [ %m_p.dup04267, %invoke.cont88.dup0 ], [ %m_p.dup02253, %invoke.cont12.dup0 ], [ %m_p.dup02235, %invoke.cont10.dup0 ], [ %m_p.dup0652, %invoke.cont5.dup0 ], [ %m_p.dup05291, %invoke.cont107.dup0 ], [ %m_p.dup0, %entry.dup0 ], [ %m_p.dup04305, %invoke.cont89.dup0 ], [ %m_p.dup05204, %invoke.cont105.dup0 ], [ %m_p.dup04400, %invoke.cont91.dup0 ]
  %m_symmY.dup0365 = phi %"class.std::vector.0"* [ %m_symmY.dup04649, %invoke.cont101.dup0 ], [ %m_symmY.dup04617, %invoke.cont99.dup0 ], [ %m_symmY.dup04426, %invoke.cont92.dup0 ], [ %m_symmY.dup04338, %invoke.cont90.dup0 ], [ %m_symmY.dup02161, %invoke.cont7.dup0 ], [ %m_symmY.dup04557, %invoke.cont97.dup0 ], [ %m_symmY.dup04205, %for.end87.dup0 ], [ %m_symmY.dup02340, %invoke.cont15.dup0 ], [ %m_symmY.dup04686, %invoke.cont103.dup0 ], [ %m_symmY.dup04510, %invoke.cont95.dup0 ], [ %m_symmY.dup04474, %invoke.cont93.dup0 ], [ %m_symmY.dup02321, %invoke.cont13.dup0 ], [ %m_symmY.dup069, %invoke.cont.dup0 ], [ %m_symmY.dup04255, %invoke.cont88.dup0 ], [ %m_symmY.dup02255, %invoke.cont12.dup0 ], [ %m_symmY.dup02233, %invoke.cont10.dup0 ], [ %m_symmY.dup0651, %invoke.cont5.dup0 ], [ %m_symmY.dup05286, %invoke.cont107.dup0 ], [ %m_symmY.dup0, %entry.dup0 ], [ %m_symmY.dup04299, %invoke.cont89.dup0 ], [ %m_symmY.dup05199, %invoke.cont105.dup0 ], [ %m_symmY.dup04397, %invoke.cont91.dup0 ]
  %m_elemMass.dup0366 = phi %"class.std::vector"* [ %m_elemMass.dup04648, %invoke.cont101.dup0 ], [ %m_elemMass.dup04616, %invoke.cont99.dup0 ], [ %m_elemMass.dup04427, %invoke.cont92.dup0 ], [ %m_elemMass.dup04337, %invoke.cont90.dup0 ], [ %m_elemMass.dup02162, %invoke.cont7.dup0 ], [ %m_elemMass.dup04558, %invoke.cont97.dup0 ], [ %m_elemMass.dup04206, %for.end87.dup0 ], [ %m_elemMass.dup02341, %invoke.cont15.dup0 ], [ %m_elemMass.dup04687, %invoke.cont103.dup0 ], [ %m_elemMass.dup04509, %invoke.cont95.dup0 ], [ %m_elemMass.dup04473, %invoke.cont93.dup0 ], [ %m_elemMass.dup02320, %invoke.cont13.dup0 ], [ %m_elemMass.dup068, %invoke.cont.dup0 ], [ %m_elemMass.dup04254, %invoke.cont88.dup0 ], [ %m_elemMass.dup02254, %invoke.cont12.dup0 ], [ %m_elemMass.dup02234, %invoke.cont10.dup0 ], [ %m_elemMass.dup0650, %invoke.cont5.dup0 ], [ %m_elemMass.dup05288, %invoke.cont107.dup0 ], [ %m_elemMass.dup0, %entry.dup0 ], [ %m_elemMass.dup04300, %invoke.cont89.dup0 ], [ %m_elemMass.dup05201, %invoke.cont105.dup0 ], [ %m_elemMass.dup04398, %invoke.cont91.dup0 ]
  %m_nodelist.dup0367 = phi %"class.std::vector.0"* [ %m_nodelist.dup04662, %invoke.cont101.dup0 ], [ %m_nodelist.dup04602, %invoke.cont99.dup0 ], [ %m_nodelist.dup04436, %invoke.cont92.dup0 ], [ %m_nodelist.dup04333, %invoke.cont90.dup0 ], [ %m_nodelist.dup02192, %invoke.cont7.dup0 ], [ %m_nodelist.dup04570, %invoke.cont97.dup0 ], [ %m_nodelist.dup04222, %for.end87.dup0 ], [ %m_nodelist.dup02370, %invoke.cont15.dup0 ], [ %m_nodelist.dup04703, %invoke.cont103.dup0 ], [ %m_nodelist.dup04527, %invoke.cont95.dup0 ], [ %m_nodelist.dup04470, %invoke.cont93.dup0 ], [ %m_nodelist.dup02293, %invoke.cont13.dup0 ], [ %m_nodelist.dup086, %invoke.cont.dup0 ], [ %m_nodelist.dup04258, %invoke.cont88.dup0 ], [ %m_nodelist.dup02282, %invoke.cont12.dup0 ], [ %m_nodelist.dup02208, %invoke.cont10.dup0 ], [ %m_nodelist.dup0633, %invoke.cont5.dup0 ], [ %m_nodelist.dup05307, %invoke.cont107.dup0 ], [ %m_nodelist.dup0, %entry.dup0 ], [ %m_nodelist.dup04302, %invoke.cont89.dup0 ], [ %m_nodelist.dup05220, %invoke.cont105.dup0 ], [ %m_nodelist.dup04402, %invoke.cont91.dup0 ]
  %m_lxip.dup0368 = phi %"class.std::vector.0"* [ %m_lxip.dup04637, %invoke.cont101.dup0 ], [ %m_lxip.dup04623, %invoke.cont99.dup0 ], [ %m_lxip.dup04447, %invoke.cont92.dup0 ], [ %m_lxip.dup04329, %invoke.cont90.dup0 ], [ %m_lxip.dup02193, %invoke.cont7.dup0 ], [ %m_lxip.dup04551, %invoke.cont97.dup0 ], [ %m_lxip.dup04197, %for.end87.dup0 ], [ %m_lxip.dup02371, %invoke.cont15.dup0 ], [ %m_lxip.dup04683, %invoke.cont103.dup0 ], [ %m_lxip.dup04535, %invoke.cont95.dup0 ], [ %m_lxip.dup04463, %invoke.cont93.dup0 ], [ %m_lxip.dup02294, %invoke.cont13.dup0 ], [ %m_lxip.dup087, %invoke.cont.dup0 ], [ %m_lxip.dup04242, %invoke.cont88.dup0 ], [ %m_lxip.dup02281, %invoke.cont12.dup0 ], [ %m_lxip.dup02207, %invoke.cont10.dup0 ], [ %m_lxip.dup0634, %invoke.cont5.dup0 ], [ %m_lxip.dup05273, %invoke.cont107.dup0 ], [ %m_lxip.dup0, %entry.dup0 ], [ %m_lxip.dup04315, %invoke.cont89.dup0 ], [ %m_lxip.dup05186, %invoke.cont105.dup0 ], [ %m_lxip.dup04373, %invoke.cont91.dup0 ]
  %call98.dup0369 = phi double* [ %call98.dup01338, %invoke.cont101.dup0 ], [ %call98.dup01337, %invoke.cont99.dup0 ], [ undef, %invoke.cont92.dup0 ], [ undef, %invoke.cont90.dup0 ], [ undef, %invoke.cont7.dup0 ], [ %call98.dup01336, %invoke.cont97.dup0 ], [ undef, %for.end87.dup0 ], [ undef, %invoke.cont15.dup0 ], [ %call98.dup01339, %invoke.cont103.dup0 ], [ %call98.dup0, %invoke.cont95.dup0 ], [ undef, %invoke.cont93.dup0 ], [ undef, %invoke.cont13.dup0 ], [ undef, %invoke.cont.dup0 ], [ undef, %invoke.cont88.dup0 ], [ undef, %invoke.cont12.dup0 ], [ undef, %invoke.cont10.dup0 ], [ undef, %invoke.cont5.dup0 ], [ %call98.dup05258, %invoke.cont107.dup0 ], [ undef, %entry.dup0 ], [ undef, %invoke.cont89.dup0 ], [ %call98.dup05163, %invoke.cont105.dup0 ], [ undef, %invoke.cont91.dup0 ]
  %call96.dup0370 = phi double* [ %call96.dup01394, %invoke.cont101.dup0 ], [ %call96.dup01393, %invoke.cont99.dup0 ], [ undef, %invoke.cont92.dup0 ], [ undef, %invoke.cont90.dup0 ], [ undef, %invoke.cont7.dup0 ], [ %call96.dup01390, %invoke.cont97.dup0 ], [ undef, %for.end87.dup0 ], [ undef, %invoke.cont15.dup0 ], [ %call96.dup01396, %invoke.cont103.dup0 ], [ %call96.dup01388, %invoke.cont95.dup0 ], [ %call96.dup0, %invoke.cont93.dup0 ], [ undef, %invoke.cont13.dup0 ], [ undef, %invoke.cont.dup0 ], [ undef, %invoke.cont88.dup0 ], [ undef, %invoke.cont12.dup0 ], [ undef, %invoke.cont10.dup0 ], [ undef, %invoke.cont5.dup0 ], [ %call96.dup05270, %invoke.cont107.dup0 ], [ undef, %entry.dup0 ], [ undef, %invoke.cont89.dup0 ], [ %call96.dup05158, %invoke.cont105.dup0 ], [ undef, %invoke.cont91.dup0 ]
  %m_letam.dup0371 = phi %"class.std::vector.0"* [ %m_letam.dup04668, %invoke.cont101.dup0 ], [ %m_letam.dup04624, %invoke.cont99.dup0 ], [ %m_letam.dup04420, %invoke.cont92.dup0 ], [ %m_letam.dup04327, %invoke.cont90.dup0 ], [ %m_letam.dup02196, %invoke.cont7.dup0 ], [ %m_letam.dup04546, %invoke.cont97.dup0 ], [ %m_letam.dup04195, %for.end87.dup0 ], [ %m_letam.dup02367, %invoke.cont15.dup0 ], [ %m_letam.dup04711, %invoke.cont103.dup0 ], [ %m_letam.dup04502, %invoke.cont95.dup0 ], [ %m_letam.dup04459, %invoke.cont93.dup0 ], [ %m_letam.dup02308, %invoke.cont13.dup0 ], [ %m_letam.dup088, %invoke.cont.dup0 ], [ %m_letam.dup04271, %invoke.cont88.dup0 ], [ %m_letam.dup02284, %invoke.cont12.dup0 ], [ %m_letam.dup02222, %invoke.cont10.dup0 ], [ %m_letam.dup0637, %invoke.cont5.dup0 ], [ %m_letam.dup05277, %invoke.cont107.dup0 ], [ %m_letam.dup0, %entry.dup0 ], [ %m_letam.dup04288, %invoke.cont89.dup0 ], [ %m_letam.dup05190, %invoke.cont105.dup0 ], [ %m_letam.dup04404, %invoke.cont91.dup0 ]
  %call100.dup0372 = phi double* [ %call100.dup0177, %invoke.cont101.dup0 ], [ %call100.dup048, %invoke.cont99.dup0 ], [ undef, %invoke.cont92.dup0 ], [ undef, %invoke.cont90.dup0 ], [ undef, %invoke.cont7.dup0 ], [ %call100.dup0, %invoke.cont97.dup0 ], [ undef, %for.end87.dup0 ], [ undef, %invoke.cont15.dup0 ], [ %call100.dup0758, %invoke.cont103.dup0 ], [ undef, %invoke.cont95.dup0 ], [ undef, %invoke.cont93.dup0 ], [ undef, %invoke.cont13.dup0 ], [ undef, %invoke.cont.dup0 ], [ undef, %invoke.cont88.dup0 ], [ undef, %invoke.cont12.dup0 ], [ undef, %invoke.cont10.dup0 ], [ undef, %invoke.cont5.dup0 ], [ %call100.dup05271, %invoke.cont107.dup0 ], [ undef, %entry.dup0 ], [ undef, %invoke.cont89.dup0 ], [ %call100.dup05159, %invoke.cont105.dup0 ], [ undef, %invoke.cont91.dup0 ]
  %m_fz.dup0373 = phi %"class.std::vector"* [ %m_fz.dup04665, %invoke.cont101.dup0 ], [ %m_fz.dup04598, %invoke.cont99.dup0 ], [ %m_fz.dup04432, %invoke.cont92.dup0 ], [ %m_fz.dup04342, %invoke.cont90.dup0 ], [ %m_fz.dup02194, %invoke.cont7.dup0 ], [ %m_fz.dup04567, %invoke.cont97.dup0 ], [ %m_fz.dup04219, %for.end87.dup0 ], [ %m_fz.dup02373, %invoke.cont15.dup0 ], [ %m_fz.dup04700, %invoke.cont103.dup0 ], [ %m_fz.dup04531, %invoke.cont95.dup0 ], [ %m_fz.dup04466, %invoke.cont93.dup0 ], [ %m_fz.dup02295, %invoke.cont13.dup0 ], [ %m_fz.dup089, %invoke.cont.dup0 ], [ %m_fz.dup04265, %invoke.cont88.dup0 ], [ %m_fz.dup02280, %invoke.cont12.dup0 ], [ %m_fz.dup02205, %invoke.cont10.dup0 ], [ %m_fz.dup0635, %invoke.cont5.dup0 ], [ %m_fz.dup05304, %invoke.cont107.dup0 ], [ %m_fz.dup0, %entry.dup0 ], [ %m_fz.dup04308, %invoke.cont89.dup0 ], [ %m_fz.dup05217, %invoke.cont105.dup0 ], [ %m_fz.dup04393, %invoke.cont91.dup0 ]
  %m_letap.dup0374 = phi %"class.std::vector.0"* [ %m_letap.dup04664, %invoke.cont101.dup0 ], [ %m_letap.dup04599, %invoke.cont99.dup0 ], [ %m_letap.dup04433, %invoke.cont92.dup0 ], [ %m_letap.dup04341, %invoke.cont90.dup0 ], [ %m_letap.dup02195, %invoke.cont7.dup0 ], [ %m_letap.dup04568, %invoke.cont97.dup0 ], [ %m_letap.dup04218, %for.end87.dup0 ], [ %m_letap.dup02372, %invoke.cont15.dup0 ], [ %m_letap.dup04701, %invoke.cont103.dup0 ], [ %m_letap.dup04530, %invoke.cont95.dup0 ], [ %m_letap.dup04467, %invoke.cont93.dup0 ], [ %m_letap.dup02296, %invoke.cont13.dup0 ], [ %m_letap.dup090, %invoke.cont.dup0 ], [ %m_letap.dup04264, %invoke.cont88.dup0 ], [ %m_letap.dup02279, %invoke.cont12.dup0 ], [ %m_letap.dup02206, %invoke.cont10.dup0 ], [ %m_letap.dup0636, %invoke.cont5.dup0 ], [ %m_letap.dup05305, %invoke.cont107.dup0 ], [ %m_letap.dup0, %entry.dup0 ], [ %m_letap.dup04307, %invoke.cont89.dup0 ], [ %m_letap.dup05218, %invoke.cont105.dup0 ], [ %m_letap.dup04394, %invoke.cont91.dup0 ]
  %call11.dup0375 = phi i32* [ %call11.dup02045, %invoke.cont101.dup0 ], [ %call11.dup02017, %invoke.cont99.dup0 ], [ %call11.dup01924, %invoke.cont92.dup0 ], [ %call11.dup01865, %invoke.cont90.dup0 ], [ %call11.dup0, %invoke.cont7.dup0 ], [ %call11.dup01998, %invoke.cont97.dup0 ], [ %call11.dup01786, %for.end87.dup0 ], [ %call11.dup017, %invoke.cont15.dup0 ], [ %call11.dup02065, %invoke.cont103.dup0 ], [ %call11.dup01953, %invoke.cont95.dup0 ], [ %call11.dup01939, %invoke.cont93.dup0 ], [ %call11.dup014, %invoke.cont13.dup0 ], [ undef, %invoke.cont.dup0 ], [ %call11.dup01808, %invoke.cont88.dup0 ], [ %call11.dup012, %invoke.cont12.dup0 ], [ %call11.dup05, %invoke.cont10.dup0 ], [ undef, %invoke.cont5.dup0 ], [ %call11.dup05266, %invoke.cont107.dup0 ], [ undef, %entry.dup0 ], [ %call11.dup01851, %invoke.cont89.dup0 ], [ %call11.dup05179, %invoke.cont105.dup0 ], [ %call11.dup01879, %invoke.cont91.dup0 ]
  %call14.dup0376 = phi i32* [ %call14.dup02051, %invoke.cont101.dup0 ], [ %call14.dup02026, %invoke.cont99.dup0 ], [ %call14.dup01902, %invoke.cont92.dup0 ], [ %call14.dup01870, %invoke.cont90.dup0 ], [ undef, %invoke.cont7.dup0 ], [ %call14.dup02001, %invoke.cont97.dup0 ], [ %call14.dup01801, %for.end87.dup0 ], [ %call14.dup016, %invoke.cont15.dup0 ], [ %call14.dup02076, %invoke.cont103.dup0 ], [ %call14.dup01974, %invoke.cont95.dup0 ], [ %call14.dup01951, %invoke.cont93.dup0 ], [ %call14.dup013, %invoke.cont13.dup0 ], [ undef, %invoke.cont.dup0 ], [ %call14.dup01813, %invoke.cont88.dup0 ], [ %call14.dup0, %invoke.cont12.dup0 ], [ undef, %invoke.cont10.dup0 ], [ undef, %invoke.cont5.dup0 ], [ %call14.dup05290, %invoke.cont107.dup0 ], [ undef, %entry.dup0 ], [ %call14.dup01831, %invoke.cont89.dup0 ], [ %call14.dup05203, %invoke.cont105.dup0 ], [ %call14.dup01892, %invoke.cont91.dup0 ]
  %m_elemBC.dup0377 = phi %"class.std::vector.0"* [ %m_elemBC.dup04639, %invoke.cont101.dup0 ], [ %m_elemBC.dup04594, %invoke.cont99.dup0 ], [ %m_elemBC.dup04448, %invoke.cont92.dup0 ], [ %m_elemBC.dup04328, %invoke.cont90.dup0 ], [ %m_elemBC.dup02203, %invoke.cont7.dup0 ], [ %m_elemBC.dup04550, %invoke.cont97.dup0 ], [ %m_elemBC.dup04228, %for.end87.dup0 ], [ %m_elemBC.dup02345, %invoke.cont15.dup0 ], [ %m_elemBC.dup04682, %invoke.cont103.dup0 ], [ %m_elemBC.dup04503, %invoke.cont95.dup0 ], [ %m_elemBC.dup04462, %invoke.cont93.dup0 ], [ %m_elemBC.dup02316, %invoke.cont13.dup0 ], [ %m_elemBC.dup049, %invoke.cont.dup0 ], [ %m_elemBC.dup04239, %invoke.cont88.dup0 ], [ %m_elemBC.dup02289, %invoke.cont12.dup0 ], [ %m_elemBC.dup02227, %invoke.cont10.dup0 ], [ %m_elemBC.dup0641, %invoke.cont5.dup0 ], [ %m_elemBC.dup05254, %invoke.cont107.dup0 ], [ %m_elemBC.dup0, %entry.dup0 ], [ %m_elemBC.dup04316, %invoke.cont89.dup0 ], [ %m_elemBC.dup05174, %invoke.cont105.dup0 ], [ %m_elemBC.dup04374, %invoke.cont91.dup0 ]
  %call102.dup0378 = phi double* [ %call102.dup0176, %invoke.cont101.dup0 ], [ %call102.dup0, %invoke.cont99.dup0 ], [ undef, %invoke.cont92.dup0 ], [ undef, %invoke.cont90.dup0 ], [ undef, %invoke.cont7.dup0 ], [ undef, %invoke.cont97.dup0 ], [ undef, %for.end87.dup0 ], [ undef, %invoke.cont15.dup0 ], [ %call102.dup0757, %invoke.cont103.dup0 ], [ undef, %invoke.cont95.dup0 ], [ undef, %invoke.cont93.dup0 ], [ undef, %invoke.cont13.dup0 ], [ undef, %invoke.cont.dup0 ], [ undef, %invoke.cont88.dup0 ], [ undef, %invoke.cont12.dup0 ], [ undef, %invoke.cont10.dup0 ], [ undef, %invoke.cont5.dup0 ], [ %call102.dup05262, %invoke.cont107.dup0 ], [ undef, %entry.dup0 ], [ undef, %invoke.cont89.dup0 ], [ %call102.dup05228, %invoke.cont105.dup0 ], [ undef, %invoke.cont91.dup0 ]
  %m_y.dup0379 = phi %"class.std::vector"* [ %m_y.dup04651, %invoke.cont101.dup0 ], [ %m_y.dup04620, %invoke.cont99.dup0 ], [ %m_y.dup04423, %invoke.cont92.dup0 ], [ %m_y.dup04351, %invoke.cont90.dup0 ], [ %m_y.dup02191, %invoke.cont7.dup0 ], [ %m_y.dup04554, %invoke.cont97.dup0 ], [ %m_y.dup04201, %for.end87.dup0 ], [ %m_y.dup02375, %invoke.cont15.dup0 ], [ %m_y.dup04685, %invoke.cont103.dup0 ], [ %m_y.dup04518, %invoke.cont95.dup0 ], [ %m_y.dup04485, %invoke.cont93.dup0 ], [ %m_y.dup02310, %invoke.cont13.dup0 ], [ %m_y.dup084, %invoke.cont.dup0 ], [ %m_y.dup04269, %invoke.cont88.dup0 ], [ %m_y.dup02283, %invoke.cont12.dup0 ], [ %m_y.dup02209, %invoke.cont10.dup0 ], [ %m_y.dup0632, %invoke.cont5.dup0 ], [ %m_y.dup05300, %invoke.cont107.dup0 ], [ %m_y.dup0, %entry.dup0 ], [ %m_y.dup04296, %invoke.cont89.dup0 ], [ %m_y.dup05213, %invoke.cont105.dup0 ], [ %m_y.dup04390, %invoke.cont91.dup0 ]
  %m_lxim.dup0380 = phi %"class.std::vector.0"* [ %m_lxim.dup04636, %invoke.cont101.dup0 ], [ %m_lxim.dup04593, %invoke.cont99.dup0 ], [ %m_lxim.dup04435, %invoke.cont92.dup0 ], [ %m_lxim.dup04352, %invoke.cont90.dup0 ], [ %m_lxim.dup02197, %invoke.cont7.dup0 ], [ %m_lxim.dup04549, %invoke.cont97.dup0 ], [ %m_lxim.dup04217, %for.end87.dup0 ], [ %m_lxim.dup02374, %invoke.cont15.dup0 ], [ %m_lxim.dup04681, %invoke.cont103.dup0 ], [ %m_lxim.dup04508, %invoke.cont95.dup0 ], [ %m_lxim.dup04461, %invoke.cont93.dup0 ], [ %m_lxim.dup02309, %invoke.cont13.dup0 ], [ %m_lxim.dup085, %invoke.cont.dup0 ], [ %m_lxim.dup04263, %invoke.cont88.dup0 ], [ %m_lxim.dup02285, %invoke.cont12.dup0 ], [ %m_lxim.dup02223, %invoke.cont10.dup0 ], [ %m_lxim.dup0638, %invoke.cont5.dup0 ], [ %m_lxim.dup05239, %invoke.cont107.dup0 ], [ %m_lxim.dup0, %entry.dup0 ], [ %m_lxim.dup04295, %invoke.cont89.dup0 ], [ %m_lxim.dup05151, %invoke.cont105.dup0 ], [ %m_lxim.dup04396, %invoke.cont91.dup0 ]
  %call94.dup0381 = phi double* [ %call94.dup01395, %invoke.cont101.dup0 ], [ %call94.dup01392, %invoke.cont99.dup0 ], [ %call94.dup0, %invoke.cont92.dup0 ], [ undef, %invoke.cont90.dup0 ], [ undef, %invoke.cont7.dup0 ], [ %call94.dup01391, %invoke.cont97.dup0 ], [ undef, %for.end87.dup0 ], [ undef, %invoke.cont15.dup0 ], [ %call94.dup01397, %invoke.cont103.dup0 ], [ %call94.dup01389, %invoke.cont95.dup0 ], [ %call94.dup0742, %invoke.cont93.dup0 ], [ undef, %invoke.cont13.dup0 ], [ undef, %invoke.cont.dup0 ], [ undef, %invoke.cont88.dup0 ], [ undef, %invoke.cont12.dup0 ], [ undef, %invoke.cont10.dup0 ], [ undef, %invoke.cont5.dup0 ], [ %call94.dup05238, %invoke.cont107.dup0 ], [ undef, %entry.dup0 ], [ undef, %invoke.cont89.dup0 ], [ %call94.dup05152, %invoke.cont105.dup0 ], [ undef, %invoke.cont91.dup0 ]
  %m_volo.dup0382 = phi %"class.std::vector"* [ %m_volo.dup04640, %invoke.cont101.dup0 ], [ %m_volo.dup04586, %invoke.cont99.dup0 ], [ %m_volo.dup04440, %invoke.cont92.dup0 ], [ %m_volo.dup04331, %invoke.cont90.dup0 ], [ %m_volo.dup02177, %invoke.cont7.dup0 ], [ %m_volo.dup04547, %invoke.cont97.dup0 ], [ %m_volo.dup04199, %for.end87.dup0 ], [ %m_volo.dup02359, %invoke.cont15.dup0 ], [ %m_volo.dup04696, %invoke.cont103.dup0 ], [ %m_volo.dup04501, %invoke.cont95.dup0 ], [ %m_volo.dup04460, %invoke.cont93.dup0 ], [ %m_volo.dup02331, %invoke.cont13.dup0 ], [ %m_volo.dup062, %invoke.cont.dup0 ], [ %m_volo.dup04240, %invoke.cont88.dup0 ], [ %m_volo.dup02267, %invoke.cont12.dup0 ], [ %m_volo.dup02241, %invoke.cont10.dup0 ], [ %m_volo.dup0631, %invoke.cont5.dup0 ], [ %m_volo.dup05244, %invoke.cont107.dup0 ], [ %m_volo.dup0, %entry.dup0 ], [ %m_volo.dup04312, %invoke.cont89.dup0 ], [ %m_volo.dup05184, %invoke.cont105.dup0 ], [ %m_volo.dup04371, %invoke.cont91.dup0 ]
  %m_zdd.dup0383 = phi %"class.std::vector"* [ %m_zdd.dup04659, %invoke.cont101.dup0 ], [ %m_zdd.dup04606, %invoke.cont99.dup0 ], [ %m_zdd.dup04439, %invoke.cont92.dup0 ], [ %m_zdd.dup04347, %invoke.cont90.dup0 ], [ %m_zdd.dup02176, %invoke.cont7.dup0 ], [ %m_zdd.dup04565, %invoke.cont97.dup0 ], [ %m_zdd.dup04211, %for.end87.dup0 ], [ %m_zdd.dup02358, %invoke.cont15.dup0 ], [ %m_zdd.dup04695, %invoke.cont103.dup0 ], [ %m_zdd.dup04521, %invoke.cont95.dup0 ], [ %m_zdd.dup04482, %invoke.cont93.dup0 ], [ %m_zdd.dup02332, %invoke.cont13.dup0 ], [ %m_zdd.dup063, %invoke.cont.dup0 ], [ %m_zdd.dup04249, %invoke.cont88.dup0 ], [ %m_zdd.dup02268, %invoke.cont12.dup0 ], [ %m_zdd.dup02240, %invoke.cont10.dup0 ], [ %m_zdd.dup0630, %invoke.cont5.dup0 ], [ %m_zdd.dup05298, %invoke.cont107.dup0 ], [ %m_zdd.dup0, %entry.dup0 ], [ %m_zdd.dup04311, %invoke.cont89.dup0 ], [ %m_zdd.dup05211, %invoke.cont105.dup0 ], [ %m_zdd.dup04385, %invoke.cont91.dup0 ]
  %m_v.dup0384 = phi %"class.std::vector"* [ %m_v.dup04635, %invoke.cont101.dup0 ], [ %m_v.dup04589, %invoke.cont99.dup0 ], [ %m_v.dup04405, %invoke.cont92.dup0 ], [ %m_v.dup04317, %invoke.cont90.dup0 ], [ %m_v.dup02175, %invoke.cont7.dup0 ], [ %m_v.dup04548, %invoke.cont97.dup0 ], [ %m_v.dup04194, %for.end87.dup0 ], [ %m_v.dup02356, %invoke.cont15.dup0 ], [ %m_v.dup04675, %invoke.cont103.dup0 ], [ %m_v.dup04534, %invoke.cont95.dup0 ], [ %m_v.dup04458, %invoke.cont93.dup0 ], [ %m_v.dup02329, %invoke.cont13.dup0 ], [ %m_v.dup060, %invoke.cont.dup0 ], [ %m_v.dup04229, %invoke.cont88.dup0 ], [ %m_v.dup02265, %invoke.cont12.dup0 ], [ %m_v.dup02218, %invoke.cont10.dup0 ], [ %m_v.dup0629, %invoke.cont5.dup0 ], [ %m_v.dup05232, %invoke.cont107.dup0 ], [ %m_v.dup0, %entry.dup0 ], [ %m_v.dup04282, %invoke.cont89.dup0 ], [ %m_v.dup05156, %invoke.cont105.dup0 ], [ %m_v.dup04370, %invoke.cont91.dup0 ]
  %m_ydd.dup0385 = phi %"class.std::vector"* [ %m_ydd.dup04641, %invoke.cont101.dup0 ], [ %m_ydd.dup04607, %invoke.cont99.dup0 ], [ %m_ydd.dup04406, %invoke.cont92.dup0 ], [ %m_ydd.dup04318, %invoke.cont90.dup0 ], [ %m_ydd.dup02174, %invoke.cont7.dup0 ], [ %m_ydd.dup04566, %invoke.cont97.dup0 ], [ %m_ydd.dup04193, %for.end87.dup0 ], [ %m_ydd.dup02355, %invoke.cont15.dup0 ], [ %m_ydd.dup04710, %invoke.cont103.dup0 ], [ %m_ydd.dup04533, %invoke.cont95.dup0 ], [ %m_ydd.dup04457, %invoke.cont93.dup0 ], [ %m_ydd.dup02330, %invoke.cont13.dup0 ], [ %m_ydd.dup061, %invoke.cont.dup0 ], [ %m_ydd.dup04230, %invoke.cont88.dup0 ], [ %m_ydd.dup02266, %invoke.cont12.dup0 ], [ %m_ydd.dup02219, %invoke.cont10.dup0 ], [ %m_ydd.dup0628, %invoke.cont5.dup0 ], [ %m_ydd.dup05269, %invoke.cont107.dup0 ], [ %m_ydd.dup0, %entry.dup0 ], [ %m_ydd.dup04281, %invoke.cont89.dup0 ], [ %m_ydd.dup05150, %invoke.cont105.dup0 ], [ %m_ydd.dup04369, %invoke.cont91.dup0 ]
  %m_qq.dup0386 = phi %"class.std::vector"* [ %m_qq.dup04643, %invoke.cont101.dup0 ], [ %m_qq.dup04609, %invoke.cont99.dup0 ], [ %m_qq.dup04441, %invoke.cont92.dup0 ], [ %m_qq.dup04339, %invoke.cont90.dup0 ], [ %m_qq.dup02173, %invoke.cont7.dup0 ], [ %m_qq.dup04576, %invoke.cont97.dup0 ], [ %m_qq.dup04209, %for.end87.dup0 ], [ %m_qq.dup02354, %invoke.cont15.dup0 ], [ %m_qq.dup04708, %invoke.cont103.dup0 ], [ %m_qq.dup04511, %invoke.cont95.dup0 ], [ %m_qq.dup04475, %invoke.cont93.dup0 ], [ %m_qq.dup02327, %invoke.cont13.dup0 ], [ %m_qq.dup058, %invoke.cont.dup0 ], [ %m_qq.dup04247, %invoke.cont88.dup0 ], [ %m_qq.dup02263, %invoke.cont12.dup0 ], [ %m_qq.dup02216, %invoke.cont10.dup0 ], [ %m_qq.dup0627, %invoke.cont5.dup0 ], [ %m_qq.dup05230, %invoke.cont107.dup0 ], [ %m_qq.dup0, %entry.dup0 ], [ %m_qq.dup04314, %invoke.cont89.dup0 ], [ %m_qq.dup05226, %invoke.cont105.dup0 ], [ %m_qq.dup04384, %invoke.cont91.dup0 ]
  %m_xdd.dup0387 = phi %"class.std::vector"* [ %m_xdd.dup04642, %invoke.cont101.dup0 ], [ %m_xdd.dup04608, %invoke.cont99.dup0 ], [ %m_xdd.dup04442, %invoke.cont92.dup0 ], [ %m_xdd.dup04340, %invoke.cont90.dup0 ], [ %m_xdd.dup02172, %invoke.cont7.dup0 ], [ %m_xdd.dup04575, %invoke.cont97.dup0 ], [ %m_xdd.dup04210, %for.end87.dup0 ], [ %m_xdd.dup02353, %invoke.cont15.dup0 ], [ %m_xdd.dup04709, %invoke.cont103.dup0 ], [ %m_xdd.dup04512, %invoke.cont95.dup0 ], [ %m_xdd.dup04476, %invoke.cont93.dup0 ], [ %m_xdd.dup02328, %invoke.cont13.dup0 ], [ %m_xdd.dup059, %invoke.cont.dup0 ], [ %m_xdd.dup04248, %invoke.cont88.dup0 ], [ %m_xdd.dup02264, %invoke.cont12.dup0 ], [ %m_xdd.dup02217, %invoke.cont10.dup0 ], [ %m_xdd.dup0626, %invoke.cont5.dup0 ], [ %m_xdd.dup05260, %invoke.cont107.dup0 ], [ %m_xdd.dup0, %entry.dup0 ], [ %m_xdd.dup04313, %invoke.cont89.dup0 ], [ %m_xdd.dup05227, %invoke.cont105.dup0 ], [ %m_xdd.dup04383, %invoke.cont91.dup0 ]
  %call106.dup0388 = phi double* [ undef, %invoke.cont101.dup0 ], [ undef, %invoke.cont99.dup0 ], [ undef, %invoke.cont92.dup0 ], [ undef, %invoke.cont90.dup0 ], [ undef, %invoke.cont7.dup0 ], [ undef, %invoke.cont97.dup0 ], [ undef, %for.end87.dup0 ], [ undef, %invoke.cont15.dup0 ], [ %call106.dup0, %invoke.cont103.dup0 ], [ undef, %invoke.cont95.dup0 ], [ undef, %invoke.cont93.dup0 ], [ undef, %invoke.cont13.dup0 ], [ undef, %invoke.cont.dup0 ], [ undef, %invoke.cont88.dup0 ], [ undef, %invoke.cont12.dup0 ], [ undef, %invoke.cont10.dup0 ], [ undef, %invoke.cont5.dup0 ], [ %call106.dup05240, %invoke.cont107.dup0 ], [ undef, %entry.dup0 ], [ undef, %invoke.cont89.dup0 ], [ %call106.dup05155, %invoke.cont105.dup0 ], [ undef, %invoke.cont91.dup0 ]
  %m_ql.dup0389 = phi %"class.std::vector"* [ %m_ql.dup04644, %invoke.cont101.dup0 ], [ %m_ql.dup04610, %invoke.cont99.dup0 ], [ %m_ql.dup04444, %invoke.cont92.dup0 ], [ %m_ql.dup04345, %invoke.cont90.dup0 ], [ %m_ql.dup02170, %invoke.cont7.dup0 ], [ %m_ql.dup04574, %invoke.cont97.dup0 ], [ %m_ql.dup04203, %for.end87.dup0 ], [ %m_ql.dup02360, %invoke.cont15.dup0 ], [ %m_ql.dup04707, %invoke.cont103.dup0 ], [ %m_ql.dup04513, %invoke.cont95.dup0 ], [ %m_ql.dup04477, %invoke.cont93.dup0 ], [ %m_ql.dup02326, %invoke.cont13.dup0 ], [ %m_ql.dup055, %invoke.cont.dup0 ], [ %m_ql.dup04252, %invoke.cont88.dup0 ], [ %m_ql.dup02256, %invoke.cont12.dup0 ], [ %m_ql.dup02232, %invoke.cont10.dup0 ], [ %m_ql.dup0625, %invoke.cont5.dup0 ], [ %m_ql.dup05241, %invoke.cont107.dup0 ], [ %m_ql.dup0, %entry.dup0 ], [ %m_ql.dup04290, %invoke.cont89.dup0 ], [ %m_ql.dup05154, %invoke.cont105.dup0 ], [ %m_ql.dup04379, %invoke.cont91.dup0 ]
  %m_zd.dup0390 = phi %"class.std::vector"* [ %m_zd.dup04646, %invoke.cont101.dup0 ], [ %m_zd.dup04612, %invoke.cont99.dup0 ], [ %m_zd.dup04445, %invoke.cont92.dup0 ], [ %m_zd.dup04344, %invoke.cont90.dup0 ], [ %m_zd.dup02179, %invoke.cont7.dup0 ], [ %m_zd.dup04572, %invoke.cont97.dup0 ], [ %m_zd.dup04215, %for.end87.dup0 ], [ %m_zd.dup02362, %invoke.cont15.dup0 ], [ %m_zd.dup04705, %invoke.cont103.dup0 ], [ %m_zd.dup04515, %invoke.cont95.dup0 ], [ %m_zd.dup04480, %invoke.cont93.dup0 ], [ %m_zd.dup02301, %invoke.cont13.dup0 ], [ %m_zd.dup057, %invoke.cont.dup0 ], [ %m_zd.dup04256, %invoke.cont88.dup0 ], [ %m_zd.dup02275, %invoke.cont12.dup0 ], [ %m_zd.dup02243, %invoke.cont10.dup0 ], [ %m_zd.dup0624, %invoke.cont5.dup0 ], [ %m_zd.dup05245, %invoke.cont107.dup0 ], [ %m_zd.dup0, %entry.dup0 ], [ %m_zd.dup04297, %invoke.cont89.dup0 ], [ %m_zd.dup05224, %invoke.cont105.dup0 ], [ %m_zd.dup04382, %invoke.cont91.dup0 ]
  %call.dup0391 = phi i32* [ %call.dup04647, %invoke.cont101.dup0 ], [ %call.dup04613, %invoke.cont99.dup0 ], [ %call.dup04446, %invoke.cont92.dup0 ], [ %call.dup04343, %invoke.cont90.dup0 ], [ %call.dup02180, %invoke.cont7.dup0 ], [ %call.dup04571, %invoke.cont97.dup0 ], [ %call.dup04216, %for.end87.dup0 ], [ %call.dup02363, %invoke.cont15.dup0 ], [ %call.dup04704, %invoke.cont103.dup0 ], [ %call.dup04516, %invoke.cont95.dup0 ], [ %call.dup04479, %invoke.cont93.dup0 ], [ %call.dup02300, %invoke.cont13.dup0 ], [ %call.dup056, %invoke.cont.dup0 ], [ %call.dup04257, %invoke.cont88.dup0 ], [ %call.dup02274, %invoke.cont12.dup0 ], [ %call.dup02244, %invoke.cont10.dup0 ], [ %call.dup0623, %invoke.cont5.dup0 ], [ %call.dup05309, %invoke.cont107.dup0 ], [ %call.dup0, %entry.dup0 ], [ %call.dup04298, %invoke.cont89.dup0 ], [ %call.dup05222, %invoke.cont105.dup0 ], [ %call.dup04381, %invoke.cont91.dup0 ]
  %m_nodalMass.dup0392 = phi %"class.std::vector"* [ %m_nodalMass.dup04626, %invoke.cont101.dup0 ], [ %m_nodalMass.dup04585, %invoke.cont99.dup0 ], [ %m_nodalMass.dup04414, %invoke.cont92.dup0 ], [ %m_nodalMass.dup04326, %invoke.cont90.dup0 ], [ %m_nodalMass.dup02201, %invoke.cont7.dup0 ], [ %m_nodalMass.dup04538, %invoke.cont97.dup0 ], [ %m_nodalMass.dup04186, %for.end87.dup0 ], [ %m_nodalMass.dup02380, %invoke.cont15.dup0 ], [ %m_nodalMass.dup04673, %invoke.cont103.dup0 ], [ %m_nodalMass.dup04500, %invoke.cont95.dup0 ], [ %m_nodalMass.dup04450, %invoke.cont93.dup0 ], [ %m_nodalMass.dup02315, %invoke.cont13.dup0 ], [ %m_nodalMass.dup054, %invoke.cont.dup0 ], [ %m_nodalMass.dup04238, %invoke.cont88.dup0 ], [ %m_nodalMass.dup02292, %invoke.cont12.dup0 ], [ %m_nodalMass.dup02230, %invoke.cont10.dup0 ], [ %m_nodalMass.dup0639, %invoke.cont5.dup0 ], [ %m_nodalMass.dup05285, %invoke.cont107.dup0 ], [ %m_nodalMass.dup0, %entry.dup0 ], [ %m_nodalMass.dup04274, %invoke.cont89.dup0 ], [ %m_nodalMass.dup05198, %invoke.cont105.dup0 ], [ %m_nodalMass.dup04362, %invoke.cont91.dup0 ]
  %m_lzetam.dup0393 = phi %"class.std::vector.0"* [ %m_lzetam.dup04625, %invoke.cont101.dup0 ], [ %m_lzetam.dup04584, %invoke.cont99.dup0 ], [ %m_lzetam.dup04413, %invoke.cont92.dup0 ], [ %m_lzetam.dup04325, %invoke.cont90.dup0 ], [ %m_lzetam.dup02202, %invoke.cont7.dup0 ], [ %m_lzetam.dup04537, %invoke.cont97.dup0 ], [ %m_lzetam.dup04185, %for.end87.dup0 ], [ %m_lzetam.dup02379, %invoke.cont15.dup0 ], [ %m_lzetam.dup04672, %invoke.cont103.dup0 ], [ %m_lzetam.dup04499, %invoke.cont95.dup0 ], [ %m_lzetam.dup04449, %invoke.cont93.dup0 ], [ %m_lzetam.dup02314, %invoke.cont13.dup0 ], [ %m_lzetam.dup053, %invoke.cont.dup0 ], [ %m_lzetam.dup04237, %invoke.cont88.dup0 ], [ %m_lzetam.dup02291, %invoke.cont12.dup0 ], [ %m_lzetam.dup02229, %invoke.cont10.dup0 ], [ %m_lzetam.dup0640, %invoke.cont5.dup0 ], [ %m_lzetam.dup05284, %invoke.cont107.dup0 ], [ %m_lzetam.dup0, %entry.dup0 ], [ %m_lzetam.dup04273, %invoke.cont89.dup0 ], [ %m_lzetam.dup05197, %invoke.cont105.dup0 ], [ %m_lzetam.dup04361, %invoke.cont91.dup0 ]
  %call104.dup0394 = phi double* [ %call104.dup0, %invoke.cont101.dup0 ], [ undef, %invoke.cont99.dup0 ], [ undef, %invoke.cont92.dup0 ], [ undef, %invoke.cont90.dup0 ], [ undef, %invoke.cont7.dup0 ], [ undef, %invoke.cont97.dup0 ], [ undef, %for.end87.dup0 ], [ undef, %invoke.cont15.dup0 ], [ %call104.dup0759, %invoke.cont103.dup0 ], [ undef, %invoke.cont95.dup0 ], [ undef, %invoke.cont93.dup0 ], [ undef, %invoke.cont13.dup0 ], [ undef, %invoke.cont.dup0 ], [ undef, %invoke.cont88.dup0 ], [ undef, %invoke.cont12.dup0 ], [ undef, %invoke.cont10.dup0 ], [ undef, %invoke.cont5.dup0 ], [ %call104.dup05256, %invoke.cont107.dup0 ], [ undef, %entry.dup0 ], [ undef, %invoke.cont89.dup0 ], [ %call104.dup05180, %invoke.cont105.dup0 ], [ undef, %invoke.cont91.dup0 ]
  %call6.dup0395 = phi i32* [ %call6.dup04650, %invoke.cont101.dup0 ], [ %call6.dup04621, %invoke.cont99.dup0 ], [ %call6.dup04422, %invoke.cont92.dup0 ], [ %call6.dup04356, %invoke.cont90.dup0 ], [ %call6.dup02204, %invoke.cont7.dup0 ], [ %call6.dup04553, %invoke.cont97.dup0 ], [ %call6.dup04223, %for.end87.dup0 ], [ %call6.dup02344, %invoke.cont15.dup0 ], [ %call6.dup04684, %invoke.cont103.dup0 ], [ %call6.dup04517, %invoke.cont95.dup0 ], [ %call6.dup04486, %invoke.cont93.dup0 ], [ %call6.dup02317, %invoke.cont13.dup0 ], [ %call6.dup0, %invoke.cont.dup0 ], [ %call6.dup04259, %invoke.cont88.dup0 ], [ %call6.dup02290, %invoke.cont12.dup0 ], [ %call6.dup02228, %invoke.cont10.dup0 ], [ %call6.dup0642, %invoke.cont5.dup0 ], [ %call6.dup05257, %invoke.cont107.dup0 ], [ undef, %entry.dup0 ], [ %call6.dup04291, %invoke.cont89.dup0 ], [ %call6.dup05167, %invoke.cont105.dup0 ], [ %call6.dup04389, %invoke.cont91.dup0 ]
  %m_symmX.dup0396 = phi %"class.std::vector.0"* [ %m_symmX.dup04631, %invoke.cont101.dup0 ], [ %m_symmX.dup04591, %invoke.cont99.dup0 ], [ %m_symmX.dup04417, %invoke.cont92.dup0 ], [ %m_symmX.dup04359, %invoke.cont90.dup0 ], [ %m_symmX.dup02200, %invoke.cont7.dup0 ], [ %m_symmX.dup04578, %invoke.cont97.dup0 ], [ %m_symmX.dup04225, %for.end87.dup0 ], [ %m_symmX.dup02377, %invoke.cont15.dup0 ], [ %m_symmX.dup04678, %invoke.cont103.dup0 ], [ %m_symmX.dup04506, %invoke.cont95.dup0 ], [ %m_symmX.dup04491, %invoke.cont93.dup0 ], [ %m_symmX.dup02312, %invoke.cont13.dup0 ], [ %m_symmX.dup051, %invoke.cont.dup0 ], [ %m_symmX.dup04245, %invoke.cont88.dup0 ], [ %m_symmX.dup02287, %invoke.cont12.dup0 ], [ %m_symmX.dup02225, %invoke.cont10.dup0 ], [ %m_symmX.dup0643, %invoke.cont5.dup0 ], [ %m_symmX.dup05249, %invoke.cont107.dup0 ], [ %m_symmX.dup0, %entry.dup0 ], [ %m_symmX.dup04285, %invoke.cont89.dup0 ], [ %m_symmX.dup05176, %invoke.cont105.dup0 ], [ %m_symmX.dup04377, %invoke.cont91.dup0 ]
  %m_lzetap.dup0397 = phi %"class.std::vector.0"* [ %m_lzetap.dup04632, %invoke.cont101.dup0 ], [ %m_lzetap.dup04592, %invoke.cont99.dup0 ], [ %m_lzetap.dup04418, %invoke.cont92.dup0 ], [ %m_lzetap.dup04360, %invoke.cont90.dup0 ], [ %m_lzetap.dup02199, %invoke.cont7.dup0 ], [ %m_lzetap.dup04579, %invoke.cont97.dup0 ], [ %m_lzetap.dup04226, %for.end87.dup0 ], [ %m_lzetap.dup02378, %invoke.cont15.dup0 ], [ %m_lzetap.dup04679, %invoke.cont103.dup0 ], [ %m_lzetap.dup04505, %invoke.cont95.dup0 ], [ %m_lzetap.dup04490, %invoke.cont93.dup0 ], [ %m_lzetap.dup02313, %invoke.cont13.dup0 ], [ %m_lzetap.dup050, %invoke.cont.dup0 ], [ %m_lzetap.dup04246, %invoke.cont88.dup0 ], [ %m_lzetap.dup02288, %invoke.cont12.dup0 ], [ %m_lzetap.dup02226, %invoke.cont10.dup0 ], [ %m_lzetap.dup0644, %invoke.cont5.dup0 ], [ %m_lzetap.dup05297, %invoke.cont107.dup0 ], [ %m_lzetap.dup0, %entry.dup0 ], [ %m_lzetap.dup04286, %invoke.cont89.dup0 ], [ %m_lzetap.dup05210, %invoke.cont105.dup0 ], [ %m_lzetap.dup04378, %invoke.cont91.dup0 ]
  %m_vdov.dup0398 = phi %"class.std::vector"* [ %m_vdov.dup04630, %invoke.cont101.dup0 ], [ %m_vdov.dup04590, %invoke.cont99.dup0 ], [ %m_vdov.dup04416, %invoke.cont92.dup0 ], [ %m_vdov.dup04358, %invoke.cont90.dup0 ], [ %m_vdov.dup02198, %invoke.cont7.dup0 ], [ %m_vdov.dup04577, %invoke.cont97.dup0 ], [ %m_vdov.dup04224, %for.end87.dup0 ], [ %m_vdov.dup02376, %invoke.cont15.dup0 ], [ %m_vdov.dup04677, %invoke.cont103.dup0 ], [ %m_vdov.dup04504, %invoke.cont95.dup0 ], [ %m_vdov.dup04489, %invoke.cont93.dup0 ], [ %m_vdov.dup02311, %invoke.cont13.dup0 ], [ %m_vdov.dup052, %invoke.cont.dup0 ], [ %m_vdov.dup04244, %invoke.cont88.dup0 ], [ %m_vdov.dup02286, %invoke.cont12.dup0 ], [ %m_vdov.dup02224, %invoke.cont10.dup0 ], [ %m_vdov.dup0645, %invoke.cont5.dup0 ], [ %m_vdov.dup05235, %invoke.cont107.dup0 ], [ %m_vdov.dup0, %entry.dup0 ], [ %m_vdov.dup04284, %invoke.cont89.dup0 ], [ %m_vdov.dup05162, %invoke.cont105.dup0 ], [ %m_vdov.dup04376, %invoke.cont91.dup0 ]
  %add.dup0399 = phi i32 [ %add.dup04654, %invoke.cont101.dup0 ], [ %add.dup04601, %invoke.cont99.dup0 ], [ %add.dup04430, %invoke.cont92.dup0 ], [ %add.dup04334, %invoke.cont90.dup0 ], [ %add.dup02166, %invoke.cont7.dup0 ], [ %add.dup04561, %invoke.cont97.dup0 ], [ %add.dup04204, %for.end87.dup0 ], [ %add.dup02368, %invoke.cont15.dup0 ], [ %add.dup04690, %invoke.cont103.dup0 ], [ %add.dup04526, %invoke.cont95.dup0 ], [ %add.dup04469, %invoke.cont93.dup0 ], [ %add.dup02306, %invoke.cont13.dup0 ], [ %add.dup066, %invoke.cont.dup0 ], [ %add.dup04268, %invoke.cont88.dup0 ], [ %add.dup02261, %invoke.cont12.dup0 ], [ %add.dup02214, %invoke.cont10.dup0 ], [ %add.dup0646, %invoke.cont5.dup0 ], [ %add.dup05292, %invoke.cont107.dup0 ], [ %add.dup0, %entry.dup0 ], [ %add.dup04303, %invoke.cont89.dup0 ], [ %add.dup05205, %invoke.cont105.dup0 ], [ %add.dup04401, %invoke.cont91.dup0 ]
  %m_xd.dup0400 = phi %"class.std::vector"* [ %m_xd.dup04638, %invoke.cont101.dup0 ], [ %m_xd.dup04603, %invoke.cont99.dup0 ], [ %m_xd.dup04437, %invoke.cont92.dup0 ], [ %m_xd.dup04330, %invoke.cont90.dup0 ], [ %m_xd.dup02165, %invoke.cont7.dup0 ], [ %m_xd.dup04552, %invoke.cont97.dup0 ], [ %m_xd.dup04198, %for.end87.dup0 ], [ %m_xd.dup02369, %invoke.cont15.dup0 ], [ %m_xd.dup04674, %invoke.cont103.dup0 ], [ %m_xd.dup04528, %invoke.cont95.dup0 ], [ %m_xd.dup04464, %invoke.cont93.dup0 ], [ %m_xd.dup02307, %invoke.cont13.dup0 ], [ %m_xd.dup067, %invoke.cont.dup0 ], [ %m_xd.dup04241, %invoke.cont88.dup0 ], [ %m_xd.dup02262, %invoke.cont12.dup0 ], [ %m_xd.dup02215, %invoke.cont10.dup0 ], [ %m_xd.dup0647, %invoke.cont5.dup0 ], [ %m_xd.dup05255, %invoke.cont107.dup0 ], [ %m_xd.dup0, %entry.dup0 ], [ %m_xd.dup04306, %invoke.cont89.dup0 ], [ %m_xd.dup05181, %invoke.cont105.dup0 ], [ %m_xd.dup04372, %invoke.cont91.dup0 ]
  %m_vnew.dup0401 = phi %"class.std::vector"* [ %m_vnew.dup04633, %invoke.cont101.dup0 ], [ %m_vnew.dup04588, %invoke.cont99.dup0 ], [ %m_vnew.dup04415, %invoke.cont92.dup0 ], [ %m_vnew.dup04350, %invoke.cont90.dup0 ], [ %m_vnew.dup02164, %invoke.cont7.dup0 ], [ %m_vnew.dup04545, %invoke.cont97.dup0 ], [ %m_vnew.dup04196, %for.end87.dup0 ], [ %m_vnew.dup02337, %invoke.cont15.dup0 ], [ %m_vnew.dup04680, %invoke.cont103.dup0 ], [ %m_vnew.dup04507, %invoke.cont95.dup0 ], [ %m_vnew.dup04488, %invoke.cont93.dup0 ], [ %m_vnew.dup02324, %invoke.cont13.dup0 ], [ %m_vnew.dup064, %invoke.cont.dup0 ], [ %m_vnew.dup04243, %invoke.cont88.dup0 ], [ %m_vnew.dup02251, %invoke.cont12.dup0 ], [ %m_vnew.dup02237, %invoke.cont10.dup0 ], [ %m_vnew.dup0648, %invoke.cont5.dup0 ], [ %m_vnew.dup05263, %invoke.cont107.dup0 ], [ %m_vnew.dup0, %entry.dup0 ], [ %m_vnew.dup04287, %invoke.cont89.dup0 ], [ %m_vnew.dup05170, %invoke.cont105.dup0 ], [ %m_vnew.dup04388, %invoke.cont91.dup0 ]
  %m_fx.dup0402 = phi %"class.std::vector"* [ %m_fx.dup04660, %invoke.cont101.dup0 ], [ %m_fx.dup04605, %invoke.cont99.dup0 ], [ %m_fx.dup04421, %invoke.cont92.dup0 ], [ %m_fx.dup04349, %invoke.cont90.dup0 ], [ %m_fx.dup02163, %invoke.cont7.dup0 ], [ %m_fx.dup04564, %invoke.cont97.dup0 ], [ %m_fx.dup04213, %for.end87.dup0 ], [ %m_fx.dup02338, %invoke.cont15.dup0 ], [ %m_fx.dup04697, %invoke.cont103.dup0 ], [ %m_fx.dup04520, %invoke.cont95.dup0 ], [ %m_fx.dup04487, %invoke.cont93.dup0 ], [ %m_fx.dup02323, %invoke.cont13.dup0 ], [ %m_fx.dup065, %invoke.cont.dup0 ], [ %m_fx.dup04251, %invoke.cont88.dup0 ], [ %m_fx.dup02250, %invoke.cont12.dup0 ], [ %m_fx.dup02238, %invoke.cont10.dup0 ], [ %m_fx.dup0649, %invoke.cont5.dup0 ], [ %m_fx.dup05301, %invoke.cont107.dup0 ], [ %m_fx.dup0, %entry.dup0 ], [ %m_fx.dup04309, %invoke.cont89.dup0 ], [ %m_fx.dup05214, %invoke.cont105.dup0 ], [ %m_fx.dup04387, %invoke.cont91.dup0 ]
  %i.0.dup02077 = phi i32 [ %i.0.dup02037, %invoke.cont101.dup0 ], [ %i.0.dup02022, %invoke.cont99.dup0 ], [ %i.0.dup01914, %invoke.cont92.dup0 ], [ %i.0.dup01852, %invoke.cont90.dup0 ], [ undef, %invoke.cont7.dup0 ], [ %i.0.dup01993, %invoke.cont97.dup0 ], [ %i.0.dup01793, %for.end87.dup0 ], [ undef, %invoke.cont15.dup0 ], [ %i.0.dup02075, %invoke.cont103.dup0 ], [ %i.0.dup01975, %invoke.cont95.dup0 ], [ %i.0.dup01929, %invoke.cont93.dup0 ], [ undef, %invoke.cont13.dup0 ], [ undef, %invoke.cont.dup0 ], [ %i.0.dup01820, %invoke.cont88.dup0 ], [ undef, %invoke.cont12.dup0 ], [ undef, %invoke.cont10.dup0 ], [ undef, %invoke.cont5.dup0 ], [ %i.0.dup05268, %invoke.cont107.dup0 ], [ undef, %entry.dup0 ], [ %i.0.dup01842, %invoke.cont89.dup0 ], [ %i.0.dup05173, %invoke.cont105.dup0 ], [ %i.0.dup01901, %invoke.cont91.dup0 ]
  %inc86.dup02078 = phi i32 [ %inc86.dup02038, %invoke.cont101.dup0 ], [ %inc86.dup02023, %invoke.cont99.dup0 ], [ %inc86.dup01915, %invoke.cont92.dup0 ], [ %inc86.dup01853, %invoke.cont90.dup0 ], [ undef, %invoke.cont7.dup0 ], [ %inc86.dup01992, %invoke.cont97.dup0 ], [ %inc86.dup01794, %for.end87.dup0 ], [ undef, %invoke.cont15.dup0 ], [ %inc86.dup02074, %invoke.cont103.dup0 ], [ %inc86.dup01976, %invoke.cont95.dup0 ], [ %inc86.dup01928, %invoke.cont93.dup0 ], [ undef, %invoke.cont13.dup0 ], [ undef, %invoke.cont.dup0 ], [ %inc86.dup01819, %invoke.cont88.dup0 ], [ undef, %invoke.cont12.dup0 ], [ undef, %invoke.cont10.dup0 ], [ undef, %invoke.cont5.dup0 ], [ %inc86.dup05264, %invoke.cont107.dup0 ], [ undef, %entry.dup0 ], [ %inc86.dup01843, %invoke.cont89.dup0 ], [ %inc86.dup05171, %invoke.cont105.dup0 ], [ %inc86.dup01900, %invoke.cont91.dup0 ]
  %call27.dup02079 = phi double* [ %call27.dup02039, %invoke.cont101.dup0 ], [ %call27.dup02025, %invoke.cont99.dup0 ], [ %call27.dup01913, %invoke.cont92.dup0 ], [ %call27.dup01858, %invoke.cont90.dup0 ], [ undef, %invoke.cont7.dup0 ], [ %call27.dup01981, %invoke.cont97.dup0 ], [ %call27.dup01781, %for.end87.dup0 ], [ undef, %invoke.cont15.dup0 ], [ %call27.dup02073, %invoke.cont103.dup0 ], [ %call27.dup01962, %invoke.cont95.dup0 ], [ %call27.dup01930, %invoke.cont93.dup0 ], [ undef, %invoke.cont13.dup0 ], [ undef, %invoke.cont.dup0 ], [ %call27.dup01822, %invoke.cont88.dup0 ], [ undef, %invoke.cont12.dup0 ], [ undef, %invoke.cont10.dup0 ], [ undef, %invoke.cont5.dup0 ], [ %call27.dup05265, %invoke.cont107.dup0 ], [ undef, %entry.dup0 ], [ %call27.dup01837, %invoke.cont89.dup0 ], [ %call27.dup05172, %invoke.cont105.dup0 ], [ %call27.dup01898, %invoke.cont91.dup0 ]
  %i41.0.dup02080 = phi i32 [ %i41.0.dup02040, %invoke.cont101.dup0 ], [ %i41.0.dup02024, %invoke.cont99.dup0 ], [ %i41.0.dup01912, %invoke.cont92.dup0 ], [ %i41.0.dup01859, %invoke.cont90.dup0 ], [ undef, %invoke.cont7.dup0 ], [ %i41.0.dup01980, %invoke.cont97.dup0 ], [ %i41.0.dup01782, %for.end87.dup0 ], [ undef, %invoke.cont15.dup0 ], [ %i41.0.dup02072, %invoke.cont103.dup0 ], [ %i41.0.dup01963, %invoke.cont95.dup0 ], [ %i41.0.dup01931, %invoke.cont93.dup0 ], [ undef, %invoke.cont13.dup0 ], [ undef, %invoke.cont.dup0 ], [ %i41.0.dup01821, %invoke.cont88.dup0 ], [ undef, %invoke.cont12.dup0 ], [ undef, %invoke.cont10.dup0 ], [ undef, %invoke.cont5.dup0 ], [ %i41.0.dup05234, %invoke.cont107.dup0 ], [ undef, %entry.dup0 ], [ %i41.0.dup01836, %invoke.cont89.dup0 ], [ %i41.0.dup05161, %invoke.cont105.dup0 ], [ %i41.0.dup01899, %invoke.cont91.dup0 ]
  %i58.0.dup02081 = phi i32 [ %i58.0.dup02041, %invoke.cont101.dup0 ], [ %i58.0.dup02020, %invoke.cont99.dup0 ], [ %i58.0.dup01903, %invoke.cont92.dup0 ], [ %i58.0.dup01875, %invoke.cont90.dup0 ], [ undef, %invoke.cont7.dup0 ], [ %i58.0.dup01995, %invoke.cont97.dup0 ], [ %i58.0.dup01795, %for.end87.dup0 ], [ undef, %invoke.cont15.dup0 ], [ %i58.0.dup02071, %invoke.cont103.dup0 ], [ %i58.0.dup01969, %invoke.cont95.dup0 ], [ %i58.0.dup01950, %invoke.cont93.dup0 ], [ undef, %invoke.cont13.dup0 ], [ undef, %invoke.cont.dup0 ], [ %i58.0.dup01817, %invoke.cont88.dup0 ], [ undef, %invoke.cont12.dup0 ], [ undef, %invoke.cont10.dup0 ], [ undef, %invoke.cont5.dup0 ], [ %i58.0.dup05272, %invoke.cont107.dup0 ], [ undef, %entry.dup0 ], [ %i58.0.dup01827, %invoke.cont89.dup0 ], [ %i58.0.dup05185, %invoke.cont105.dup0 ], [ %i58.0.dup01891, %invoke.cont91.dup0 ]
  %call21.dup02082 = phi double* [ %call21.dup02048, %invoke.cont101.dup0 ], [ %call21.dup02014, %invoke.cont99.dup0 ], [ %call21.dup01905, %invoke.cont92.dup0 ], [ %call21.dup01874, %invoke.cont90.dup0 ], [ undef, %invoke.cont7.dup0 ], [ %call21.dup01997, %invoke.cont97.dup0 ], [ %call21.dup01800, %for.end87.dup0 ], [ undef, %invoke.cont15.dup0 ], [ %call21.dup02069, %invoke.cont103.dup0 ], [ %call21.dup01967, %invoke.cont95.dup0 ], [ %call21.dup01944, %invoke.cont93.dup0 ], [ undef, %invoke.cont13.dup0 ], [ undef, %invoke.cont.dup0 ], [ %call21.dup01815, %invoke.cont88.dup0 ], [ undef, %invoke.cont12.dup0 ], [ undef, %invoke.cont10.dup0 ], [ undef, %invoke.cont5.dup0 ], [ %call21.dup05237, %invoke.cont107.dup0 ], [ undef, %entry.dup0 ], [ %call21.dup01829, %invoke.cont89.dup0 ], [ %call21.dup05153, %invoke.cont105.dup0 ], [ %call21.dup01889, %invoke.cont91.dup0 ]
  %call45.dup02083 = phi i32* [ %call45.dup02050, %invoke.cont101.dup0 ], [ %call45.dup02003, %invoke.cont99.dup0 ], [ %call45.dup01908, %invoke.cont92.dup0 ], [ %call45.dup01872, %invoke.cont90.dup0 ], [ undef, %invoke.cont7.dup0 ], [ %call45.dup01986, %invoke.cont97.dup0 ], [ %call45.dup01798, %for.end87.dup0 ], [ undef, %invoke.cont15.dup0 ], [ %call45.dup02068, %invoke.cont103.dup0 ], [ %call45.dup01957, %invoke.cont95.dup0 ], [ %call45.dup01935, %invoke.cont93.dup0 ], [ undef, %invoke.cont13.dup0 ], [ undef, %invoke.cont.dup0 ], [ %call45.dup01811, %invoke.cont88.dup0 ], [ undef, %invoke.cont12.dup0 ], [ undef, %invoke.cont10.dup0 ], [ undef, %invoke.cont5.dup0 ], [ %call45.dup05252, %invoke.cont107.dup0 ], [ undef, %entry.dup0 ], [ %call45.dup01833, %invoke.cont89.dup0 ], [ %call45.dup05183, %invoke.cont105.dup0 ], [ %call45.dup01886, %invoke.cont91.dup0 ]
  %call32.dup02084 = phi i32* [ %call32.dup02046, %invoke.cont101.dup0 ], [ %call32.dup02016, %invoke.cont99.dup0 ], [ %call32.dup01925, %invoke.cont92.dup0 ], [ %call32.dup01866, %invoke.cont90.dup0 ], [ undef, %invoke.cont7.dup0 ], [ %call32.dup01990, %invoke.cont97.dup0 ], [ %call32.dup01784, %for.end87.dup0 ], [ undef, %invoke.cont15.dup0 ], [ %call32.dup02067, %invoke.cont103.dup0 ], [ %call32.dup01973, %invoke.cont95.dup0 ], [ %call32.dup01941, %invoke.cont93.dup0 ], [ undef, %invoke.cont13.dup0 ], [ undef, %invoke.cont.dup0 ], [ %call32.dup01810, %invoke.cont88.dup0 ], [ undef, %invoke.cont12.dup0 ], [ undef, %invoke.cont10.dup0 ], [ undef, %invoke.cont5.dup0 ], [ %call32.dup05274, %invoke.cont107.dup0 ], [ undef, %entry.dup0 ], [ %call32.dup01834, %invoke.cont89.dup0 ], [ %call32.dup05187, %invoke.cont105.dup0 ], [ %call32.dup01884, %invoke.cont91.dup0 ]
  %call54.dup02085 = phi double* [ %call54.dup02047, %invoke.cont101.dup0 ], [ %call54.dup02015, %invoke.cont99.dup0 ], [ %call54.dup01926, %invoke.cont92.dup0 ], [ %call54.dup01860, %invoke.cont90.dup0 ], [ undef, %invoke.cont7.dup0 ], [ %call54.dup01991, %invoke.cont97.dup0 ], [ %call54.dup01785, %for.end87.dup0 ], [ undef, %invoke.cont15.dup0 ], [ %call54.dup02066, %invoke.cont103.dup0 ], [ %call54.dup01952, %invoke.cont95.dup0 ], [ %call54.dup01940, %invoke.cont93.dup0 ], [ undef, %invoke.cont13.dup0 ], [ undef, %invoke.cont.dup0 ], [ %call54.dup01809, %invoke.cont88.dup0 ], [ undef, %invoke.cont12.dup0 ], [ undef, %invoke.cont10.dup0 ], [ undef, %invoke.cont5.dup0 ], [ %call54.dup05233, %invoke.cont107.dup0 ], [ undef, %entry.dup0 ], [ %call54.dup01835, %invoke.cont89.dup0 ], [ %call54.dup05157, %invoke.cont105.dup0 ], [ %call54.dup01885, %invoke.cont91.dup0 ]
  %i28.0.dup02086 = phi i32 [ %i28.0.dup02044, %invoke.cont101.dup0 ], [ %i28.0.dup02018, %invoke.cont99.dup0 ], [ %i28.0.dup01923, %invoke.cont92.dup0 ], [ %i28.0.dup01863, %invoke.cont90.dup0 ], [ undef, %invoke.cont7.dup0 ], [ %i28.0.dup02000, %invoke.cont97.dup0 ], [ %i28.0.dup01787, %for.end87.dup0 ], [ undef, %invoke.cont15.dup0 ], [ %i28.0.dup02063, %invoke.cont103.dup0 ], [ %i28.0.dup01955, %invoke.cont95.dup0 ], [ %i28.0.dup01937, %invoke.cont93.dup0 ], [ undef, %invoke.cont13.dup0 ], [ undef, %invoke.cont.dup0 ], [ %i28.0.dup01807, %invoke.cont88.dup0 ], [ undef, %invoke.cont12.dup0 ], [ undef, %invoke.cont10.dup0 ], [ undef, %invoke.cont5.dup0 ], [ %i28.0.dup05267, %invoke.cont107.dup0 ], [ undef, %entry.dup0 ], [ %i28.0.dup01849, %invoke.cont89.dup0 ], [ %i28.0.dup05178, %invoke.cont105.dup0 ], [ %i28.0.dup01878, %invoke.cont91.dup0 ]
  %call52.dup02087 = phi double* [ %call52.dup02049, %invoke.cont101.dup0 ], [ %call52.dup02002, %invoke.cont99.dup0 ], [ %call52.dup01907, %invoke.cont92.dup0 ], [ %call52.dup01871, %invoke.cont90.dup0 ], [ undef, %invoke.cont7.dup0 ], [ %call52.dup01987, %invoke.cont97.dup0 ], [ %call52.dup01797, %for.end87.dup0 ], [ undef, %invoke.cont15.dup0 ], [ %call52.dup02062, %invoke.cont103.dup0 ], [ %call52.dup01956, %invoke.cont95.dup0 ], [ %call52.dup01936, %invoke.cont93.dup0 ], [ undef, %invoke.cont13.dup0 ], [ undef, %invoke.cont.dup0 ], [ %call52.dup01812, %invoke.cont88.dup0 ], [ undef, %invoke.cont12.dup0 ], [ undef, %invoke.cont10.dup0 ], [ undef, %invoke.cont5.dup0 ], [ %call52.dup05287, %invoke.cont107.dup0 ], [ undef, %entry.dup0 ], [ %call52.dup01832, %invoke.cont89.dup0 ], [ %call52.dup05200, %invoke.cont105.dup0 ], [ %call52.dup01887, %invoke.cont91.dup0 ]
  %inc.dup02088 = phi i32 [ %inc.dup02035, %invoke.cont101.dup0 ], [ %inc.dup02008, %invoke.cont99.dup0 ], [ %inc.dup01916, %invoke.cont92.dup0 ], [ %inc.dup01869, %invoke.cont90.dup0 ], [ undef, %invoke.cont7.dup0 ], [ %inc.dup01982, %invoke.cont97.dup0 ], [ %inc.dup01777, %for.end87.dup0 ], [ undef, %invoke.cont15.dup0 ], [ %inc.dup02061, %invoke.cont103.dup0 ], [ %inc.dup01961, %invoke.cont95.dup0 ], [ %inc.dup01927, %invoke.cont93.dup0 ], [ undef, %invoke.cont13.dup0 ], [ undef, %invoke.cont.dup0 ], [ %inc.dup01818, %invoke.cont88.dup0 ], [ undef, %invoke.cont12.dup0 ], [ undef, %invoke.cont10.dup0 ], [ undef, %invoke.cont5.dup0 ], [ %inc.dup05236, %invoke.cont107.dup0 ], [ undef, %entry.dup0 ], [ %inc.dup01844, %invoke.cont89.dup0 ], [ %inc.dup05160, %invoke.cont105.dup0 ], [ %inc.dup01893, %invoke.cont91.dup0 ]
  %call23.dup02089 = phi double* [ %call23.dup02042, %invoke.cont101.dup0 ], [ %call23.dup02021, %invoke.cont99.dup0 ], [ %call23.dup01904, %invoke.cont92.dup0 ], [ %call23.dup01876, %invoke.cont90.dup0 ], [ undef, %invoke.cont7.dup0 ], [ %call23.dup01994, %invoke.cont97.dup0 ], [ %call23.dup01796, %for.end87.dup0 ], [ undef, %invoke.cont15.dup0 ], [ %call23.dup02070, %invoke.cont103.dup0 ], [ %call23.dup01970, %invoke.cont95.dup0 ], [ %call23.dup01949, %invoke.cont93.dup0 ], [ undef, %invoke.cont13.dup0 ], [ undef, %invoke.cont.dup0 ], [ %call23.dup01816, %invoke.cont88.dup0 ], [ undef, %invoke.cont12.dup0 ], [ undef, %invoke.cont10.dup0 ], [ undef, %invoke.cont5.dup0 ], [ %call23.dup05243, %invoke.cont107.dup0 ], [ undef, %entry.dup0 ], [ %call23.dup01828, %invoke.cont89.dup0 ], [ %call23.dup05166, %invoke.cont105.dup0 ], [ %call23.dup01890, %invoke.cont91.dup0 ]
  %call25.dup02090 = phi double* [ %call25.dup02029, %invoke.cont101.dup0 ], [ %call25.dup02009, %invoke.cont99.dup0 ], [ %call25.dup01919, %invoke.cont92.dup0 ], [ %call25.dup01856, %invoke.cont90.dup0 ], [ undef, %invoke.cont7.dup0 ], [ %call25.dup01979, %invoke.cont97.dup0 ], [ %call25.dup01780, %for.end87.dup0 ], [ undef, %invoke.cont15.dup0 ], [ %call25.dup02060, %invoke.cont103.dup0 ], [ %call25.dup01966, %invoke.cont95.dup0 ], [ %call25.dup01945, %invoke.cont93.dup0 ], [ undef, %invoke.cont13.dup0 ], [ undef, %invoke.cont.dup0 ], [ %call25.dup01823, %invoke.cont88.dup0 ], [ undef, %invoke.cont12.dup0 ], [ undef, %invoke.cont10.dup0 ], [ undef, %invoke.cont5.dup0 ], [ %call25.dup05242, %invoke.cont107.dup0 ], [ undef, %entry.dup0 ], [ %call25.dup01840, %invoke.cont89.dup0 ], [ %call25.dup05165, %invoke.cont105.dup0 ], [ %call25.dup01895, %invoke.cont91.dup0 ]
  %call84.dup02091 = phi double* [ %call84.dup02027, %invoke.cont101.dup0 ], [ %call84.dup02011, %invoke.cont99.dup0 ], [ %call84.dup01918, %invoke.cont92.dup0 ], [ %call84.dup01855, %invoke.cont90.dup0 ], [ undef, %invoke.cont7.dup0 ], [ %call84.dup01977, %invoke.cont97.dup0 ], [ %call84.dup01778, %for.end87.dup0 ], [ undef, %invoke.cont15.dup0 ], [ %call84.dup02059, %invoke.cont103.dup0 ], [ %call84.dup01964, %invoke.cont95.dup0 ], [ %call84.dup01946, %invoke.cont93.dup0 ], [ undef, %invoke.cont13.dup0 ], [ undef, %invoke.cont.dup0 ], [ %call84.dup01824, %invoke.cont88.dup0 ], [ undef, %invoke.cont12.dup0 ], [ undef, %invoke.cont10.dup0 ], [ undef, %invoke.cont5.dup0 ], [ %call84.dup05283, %invoke.cont107.dup0 ], [ undef, %entry.dup0 ], [ %call84.dup01839, %invoke.cont89.dup0 ], [ %call84.dup05196, %invoke.cont105.dup0 ], [ %call84.dup01897, %invoke.cont91.dup0 ]
  %call19.dup02092 = phi i32* [ %call19.dup02028, %invoke.cont101.dup0 ], [ %call19.dup02010, %invoke.cont99.dup0 ], [ %call19.dup01917, %invoke.cont92.dup0 ], [ %call19.dup01854, %invoke.cont90.dup0 ], [ undef, %invoke.cont7.dup0 ], [ %call19.dup01978, %invoke.cont97.dup0 ], [ %call19.dup01779, %for.end87.dup0 ], [ undef, %invoke.cont15.dup0 ], [ %call19.dup02058, %invoke.cont103.dup0 ], [ %call19.dup01965, %invoke.cont95.dup0 ], [ %call19.dup01947, %invoke.cont93.dup0 ], [ undef, %invoke.cont13.dup0 ], [ undef, %invoke.cont.dup0 ], [ %call19.dup01825, %invoke.cont88.dup0 ], [ undef, %invoke.cont12.dup0 ], [ undef, %invoke.cont10.dup0 ], [ undef, %invoke.cont5.dup0 ], [ %call19.dup05280, %invoke.cont107.dup0 ], [ undef, %entry.dup0 ], [ %call19.dup01841, %invoke.cont89.dup0 ], [ %call19.dup05193, %invoke.cont105.dup0 ], [ %call19.dup01896, %invoke.cont91.dup0 ]
  %inc56.dup02093 = phi i32 [ %inc56.dup02030, %invoke.cont101.dup0 ], [ %inc56.dup02012, %invoke.cont99.dup0 ], [ %inc56.dup01911, %invoke.cont92.dup0 ], [ %inc56.dup01857, %invoke.cont90.dup0 ], [ undef, %invoke.cont7.dup0 ], [ %inc56.dup01983, %invoke.cont97.dup0 ], [ %inc56.dup01783, %for.end87.dup0 ], [ undef, %invoke.cont15.dup0 ], [ %inc56.dup02057, %invoke.cont103.dup0 ], [ %inc56.dup01960, %invoke.cont95.dup0 ], [ %inc56.dup01932, %invoke.cont93.dup0 ], [ undef, %invoke.cont13.dup0 ], [ undef, %invoke.cont.dup0 ], [ %inc56.dup01826, %invoke.cont88.dup0 ], [ undef, %invoke.cont12.dup0 ], [ undef, %invoke.cont10.dup0 ], [ undef, %invoke.cont5.dup0 ], [ %inc56.dup05278, %invoke.cont107.dup0 ], [ undef, %entry.dup0 ], [ %inc56.dup01838, %invoke.cont89.dup0 ], [ %inc56.dup05191, %invoke.cont105.dup0 ], [ %inc56.dup01894, %invoke.cont91.dup0 ]
  %call79.dup02094 = phi i32* [ %call79.dup02031, %invoke.cont101.dup0 ], [ %call79.dup02007, %invoke.cont99.dup0 ], [ %call79.dup01921, %invoke.cont92.dup0 ], [ %call79.dup01862, %invoke.cont90.dup0 ], [ undef, %invoke.cont7.dup0 ], [ %call79.dup01989, %invoke.cont97.dup0 ], [ %call79.dup01791, %for.end87.dup0 ], [ undef, %invoke.cont15.dup0 ], [ %call79.dup02056, %invoke.cont103.dup0 ], [ %call79.dup01972, %invoke.cont95.dup0 ], [ %call79.dup01942, %invoke.cont93.dup0 ], [ undef, %invoke.cont13.dup0 ], [ undef, %invoke.cont.dup0 ], [ %call79.dup01802, %invoke.cont88.dup0 ], [ undef, %invoke.cont12.dup0 ], [ undef, %invoke.cont10.dup0 ], [ undef, %invoke.cont5.dup0 ], [ %call79.dup05276, %invoke.cont107.dup0 ], [ undef, %entry.dup0 ], [ %call79.dup01848, %invoke.cont89.dup0 ], [ %call79.dup05189, %invoke.cont105.dup0 ], [ %call79.dup01880, %invoke.cont91.dup0 ]
  %i75.0.dup02095 = phi i32 [ %i75.0.dup02043, %invoke.cont101.dup0 ], [ %i75.0.dup02019, %invoke.cont99.dup0 ], [ %i75.0.dup01922, %invoke.cont92.dup0 ], [ %i75.0.dup01864, %invoke.cont90.dup0 ], [ undef, %invoke.cont7.dup0 ], [ %i75.0.dup01999, %invoke.cont97.dup0 ], [ %i75.0.dup01788, %for.end87.dup0 ], [ undef, %invoke.cont15.dup0 ], [ %i75.0.dup02064, %invoke.cont103.dup0 ], [ %i75.0.dup01954, %invoke.cont95.dup0 ], [ %i75.0.dup01938, %invoke.cont93.dup0 ], [ undef, %invoke.cont13.dup0 ], [ undef, %invoke.cont.dup0 ], [ %i75.0.dup01806, %invoke.cont88.dup0 ], [ undef, %invoke.cont12.dup0 ], [ undef, %invoke.cont10.dup0 ], [ undef, %invoke.cont5.dup0 ], [ %i75.0.dup05253, %invoke.cont107.dup0 ], [ undef, %entry.dup0 ], [ %i75.0.dup01850, %invoke.cont89.dup0 ], [ %i75.0.dup05175, %invoke.cont105.dup0 ], [ %i75.0.dup01877, %invoke.cont91.dup0 ]
  %inc39.dup02096 = phi i32 [ %inc39.dup02032, %invoke.cont101.dup0 ], [ %inc39.dup02006, %invoke.cont99.dup0 ], [ %inc39.dup01920, %invoke.cont92.dup0 ], [ %inc39.dup01861, %invoke.cont90.dup0 ], [ undef, %invoke.cont7.dup0 ], [ %inc39.dup01988, %invoke.cont97.dup0 ], [ %inc39.dup01792, %for.end87.dup0 ], [ undef, %invoke.cont15.dup0 ], [ %inc39.dup02055, %invoke.cont103.dup0 ], [ %inc39.dup01971, %invoke.cont95.dup0 ], [ %inc39.dup01943, %invoke.cont93.dup0 ], [ undef, %invoke.cont13.dup0 ], [ undef, %invoke.cont.dup0 ], [ %inc39.dup01803, %invoke.cont88.dup0 ], [ undef, %invoke.cont12.dup0 ], [ undef, %invoke.cont10.dup0 ], [ undef, %invoke.cont5.dup0 ], [ %inc39.dup05250, %invoke.cont107.dup0 ], [ undef, %entry.dup0 ], [ %inc39.dup01847, %invoke.cont89.dup0 ], [ %inc39.dup05177, %invoke.cont105.dup0 ], [ %inc39.dup01881, %invoke.cont91.dup0 ]
  %call50.dup02097 = phi double* [ %call50.dup02033, %invoke.cont101.dup0 ], [ %call50.dup02005, %invoke.cont99.dup0 ], [ %call50.dup01910, %invoke.cont92.dup0 ], [ %call50.dup01867, %invoke.cont90.dup0 ], [ undef, %invoke.cont7.dup0 ], [ %call50.dup01984, %invoke.cont97.dup0 ], [ %call50.dup01790, %for.end87.dup0 ], [ undef, %invoke.cont15.dup0 ], [ %call50.dup02054, %invoke.cont103.dup0 ], [ %call50.dup01959, %invoke.cont95.dup0 ], [ %call50.dup01933, %invoke.cont93.dup0 ], [ undef, %invoke.cont13.dup0 ], [ undef, %invoke.cont.dup0 ], [ %call50.dup01804, %invoke.cont88.dup0 ], [ undef, %invoke.cont12.dup0 ], [ undef, %invoke.cont10.dup0 ], [ undef, %invoke.cont5.dup0 ], [ %call50.dup05275, %invoke.cont107.dup0 ], [ undef, %entry.dup0 ], [ %call50.dup01846, %invoke.cont89.dup0 ], [ %call50.dup05188, %invoke.cont105.dup0 ], [ %call50.dup01882, %invoke.cont91.dup0 ]
  %call62.dup02098 = phi i32* [ %call62.dup02034, %invoke.cont101.dup0 ], [ %call62.dup02004, %invoke.cont99.dup0 ], [ %call62.dup01909, %invoke.cont92.dup0 ], [ %call62.dup01868, %invoke.cont90.dup0 ], [ undef, %invoke.cont7.dup0 ], [ %call62.dup01985, %invoke.cont97.dup0 ], [ %call62.dup01789, %for.end87.dup0 ], [ undef, %invoke.cont15.dup0 ], [ %call62.dup02053, %invoke.cont103.dup0 ], [ %call62.dup01958, %invoke.cont95.dup0 ], [ %call62.dup01934, %invoke.cont93.dup0 ], [ undef, %invoke.cont13.dup0 ], [ undef, %invoke.cont.dup0 ], [ %call62.dup01805, %invoke.cont88.dup0 ], [ undef, %invoke.cont12.dup0 ], [ undef, %invoke.cont10.dup0 ], [ undef, %invoke.cont5.dup0 ], [ %call62.dup05261, %invoke.cont107.dup0 ], [ undef, %entry.dup0 ], [ %call62.dup01845, %invoke.cont89.dup0 ], [ %call62.dup05229, %invoke.cont105.dup0 ], [ %call62.dup01883, %invoke.cont91.dup0 ]
  %inc73.dup02099 = phi i32 [ %inc73.dup02036, %invoke.cont101.dup0 ], [ %inc73.dup02013, %invoke.cont99.dup0 ], [ %inc73.dup01906, %invoke.cont92.dup0 ], [ %inc73.dup01873, %invoke.cont90.dup0 ], [ undef, %invoke.cont7.dup0 ], [ %inc73.dup01996, %invoke.cont97.dup0 ], [ %inc73.dup01799, %for.end87.dup0 ], [ undef, %invoke.cont15.dup0 ], [ %inc73.dup02052, %invoke.cont103.dup0 ], [ %inc73.dup01968, %invoke.cont95.dup0 ], [ %inc73.dup01948, %invoke.cont93.dup0 ], [ undef, %invoke.cont13.dup0 ], [ undef, %invoke.cont.dup0 ], [ %inc73.dup01814, %invoke.cont88.dup0 ], [ undef, %invoke.cont12.dup0 ], [ undef, %invoke.cont10.dup0 ], [ undef, %invoke.cont5.dup0 ], [ %inc73.dup05246, %invoke.cont107.dup0 ], [ undef, %entry.dup0 ], [ %inc73.dup01830, %invoke.cont89.dup0 ], [ %inc73.dup05223, %invoke.cont105.dup0 ], [ %inc73.dup01888, %invoke.cont91.dup0 ]
  %call37.dup02160 = phi double* [ %call37.dup02158, %invoke.cont101.dup0 ], [ %call37.dup02157, %invoke.cont99.dup0 ], [ %call37.dup02153, %invoke.cont92.dup0 ], [ %call37.dup02151, %invoke.cont90.dup0 ], [ undef, %invoke.cont7.dup0 ], [ %call37.dup02156, %invoke.cont97.dup0 ], [ %call37.dup02148, %for.end87.dup0 ], [ undef, %invoke.cont15.dup0 ], [ %call37.dup02159, %invoke.cont103.dup0 ], [ %call37.dup02155, %invoke.cont95.dup0 ], [ %call37.dup02154, %invoke.cont93.dup0 ], [ undef, %invoke.cont13.dup0 ], [ undef, %invoke.cont.dup0 ], [ %call37.dup02149, %invoke.cont88.dup0 ], [ undef, %invoke.cont12.dup0 ], [ undef, %invoke.cont10.dup0 ], [ undef, %invoke.cont5.dup0 ], [ %call37.dup05259, %invoke.cont107.dup0 ], [ undef, %entry.dup0 ], [ %call37.dup02150, %invoke.cont89.dup0 ], [ %call37.dup05164, %invoke.cont105.dup0 ], [ %call37.dup02152, %invoke.cont91.dup0 ]
  %call67.dup05144 = phi double* [ %call67.dup05138, %invoke.cont101.dup0 ], [ %call67.dup05135, %invoke.cont99.dup0 ], [ %call67.dup05123, %invoke.cont92.dup0 ], [ %call67.dup05117, %invoke.cont90.dup0 ], [ undef, %invoke.cont7.dup0 ], [ %call67.dup05132, %invoke.cont97.dup0 ], [ %call67.dup05108, %for.end87.dup0 ], [ undef, %invoke.cont15.dup0 ], [ %call67.dup05141, %invoke.cont103.dup0 ], [ %call67.dup05129, %invoke.cont95.dup0 ], [ %call67.dup05126, %invoke.cont93.dup0 ], [ undef, %invoke.cont13.dup0 ], [ undef, %invoke.cont.dup0 ], [ %call67.dup05111, %invoke.cont88.dup0 ], [ undef, %invoke.cont12.dup0 ], [ undef, %invoke.cont10.dup0 ], [ undef, %invoke.cont5.dup0 ], [ %call67.dup05247, %invoke.cont107.dup0 ], [ undef, %entry.dup0 ], [ %call67.dup05114, %invoke.cont89.dup0 ], [ %call67.dup05169, %invoke.cont105.dup0 ], [ %call67.dup05120, %invoke.cont91.dup0 ]
  %call71.dup05145 = phi double* [ %call71.dup05140, %invoke.cont101.dup0 ], [ %call71.dup05136, %invoke.cont99.dup0 ], [ %call71.dup05124, %invoke.cont92.dup0 ], [ %call71.dup05118, %invoke.cont90.dup0 ], [ undef, %invoke.cont7.dup0 ], [ %call71.dup05133, %invoke.cont97.dup0 ], [ %call71.dup05109, %for.end87.dup0 ], [ undef, %invoke.cont15.dup0 ], [ %call71.dup05142, %invoke.cont103.dup0 ], [ %call71.dup05131, %invoke.cont95.dup0 ], [ %call71.dup05127, %invoke.cont93.dup0 ], [ undef, %invoke.cont13.dup0 ], [ undef, %invoke.cont.dup0 ], [ %call71.dup05113, %invoke.cont88.dup0 ], [ undef, %invoke.cont12.dup0 ], [ undef, %invoke.cont10.dup0 ], [ undef, %invoke.cont5.dup0 ], [ %call71.dup05299, %invoke.cont107.dup0 ], [ undef, %entry.dup0 ], [ %call71.dup05115, %invoke.cont89.dup0 ], [ %call71.dup05212, %invoke.cont105.dup0 ], [ %call71.dup05122, %invoke.cont91.dup0 ]
  %call69.dup05146 = phi double* [ %call69.dup05139, %invoke.cont101.dup0 ], [ %call69.dup05137, %invoke.cont99.dup0 ], [ %call69.dup05125, %invoke.cont92.dup0 ], [ %call69.dup05119, %invoke.cont90.dup0 ], [ undef, %invoke.cont7.dup0 ], [ %call69.dup05134, %invoke.cont97.dup0 ], [ %call69.dup05110, %for.end87.dup0 ], [ undef, %invoke.cont15.dup0 ], [ %call69.dup05143, %invoke.cont103.dup0 ], [ %call69.dup05130, %invoke.cont95.dup0 ], [ %call69.dup05128, %invoke.cont93.dup0 ], [ undef, %invoke.cont13.dup0 ], [ undef, %invoke.cont.dup0 ], [ %call69.dup05112, %invoke.cont88.dup0 ], [ undef, %invoke.cont12.dup0 ], [ undef, %invoke.cont10.dup0 ], [ undef, %invoke.cont5.dup0 ], [ %call69.dup05281, %invoke.cont107.dup0 ], [ undef, %entry.dup0 ], [ %call69.dup05116, %invoke.cont89.dup0 ], [ %call69.dup05194, %invoke.cont105.dup0 ], [ %call69.dup05121, %invoke.cont91.dup0 ]
  %0 = landingpad { i8*, i32 }
          cleanup
  %1 = extractvalue { i8*, i32 } %0, 0
  %2 = extractvalue { i8*, i32 } %0, 1
  br label %ehcleanup200.dup0

invoke.cont101.dup0:                              ; No predecessors!
  %call102.dup0176 = phi double* [ %call102.dup0, %invoke.cont99.dup0 ]
  %call100.dup0177 = phi double* [ %call100.dup048, %invoke.cont99.dup0 ]
  %call98.dup01338 = phi double* [ %call98.dup01337, %invoke.cont99.dup0 ]
  %call96.dup01394 = phi double* [ %call96.dup01393, %invoke.cont99.dup0 ]
  %call94.dup01395 = phi double* [ %call94.dup01392, %invoke.cont99.dup0 ]
  %call84.dup02027 = phi double* [ %call84.dup02011, %invoke.cont99.dup0 ]
  %call19.dup02028 = phi i32* [ %call19.dup02010, %invoke.cont99.dup0 ]
  %call25.dup02029 = phi double* [ %call25.dup02009, %invoke.cont99.dup0 ]
  %inc56.dup02030 = phi i32 [ %inc56.dup02012, %invoke.cont99.dup0 ]
  %call79.dup02031 = phi i32* [ %call79.dup02007, %invoke.cont99.dup0 ]
  %inc39.dup02032 = phi i32 [ %inc39.dup02006, %invoke.cont99.dup0 ]
  %call50.dup02033 = phi double* [ %call50.dup02005, %invoke.cont99.dup0 ]
  %call62.dup02034 = phi i32* [ %call62.dup02004, %invoke.cont99.dup0 ]
  %inc.dup02035 = phi i32 [ %inc.dup02008, %invoke.cont99.dup0 ]
  %inc73.dup02036 = phi i32 [ %inc73.dup02013, %invoke.cont99.dup0 ]
  %i.0.dup02037 = phi i32 [ %i.0.dup02022, %invoke.cont99.dup0 ]
  %inc86.dup02038 = phi i32 [ %inc86.dup02023, %invoke.cont99.dup0 ]
  %call27.dup02039 = phi double* [ %call27.dup02025, %invoke.cont99.dup0 ]
  %i41.0.dup02040 = phi i32 [ %i41.0.dup02024, %invoke.cont99.dup0 ]
  %i58.0.dup02041 = phi i32 [ %i58.0.dup02020, %invoke.cont99.dup0 ]
  %call23.dup02042 = phi double* [ %call23.dup02021, %invoke.cont99.dup0 ]
  %i75.0.dup02043 = phi i32 [ %i75.0.dup02019, %invoke.cont99.dup0 ]
  %i28.0.dup02044 = phi i32 [ %i28.0.dup02018, %invoke.cont99.dup0 ]
  %call11.dup02045 = phi i32* [ %call11.dup02017, %invoke.cont99.dup0 ]
  %call32.dup02046 = phi i32* [ %call32.dup02016, %invoke.cont99.dup0 ]
  %call54.dup02047 = phi double* [ %call54.dup02015, %invoke.cont99.dup0 ]
  %call21.dup02048 = phi double* [ %call21.dup02014, %invoke.cont99.dup0 ]
  %call52.dup02049 = phi double* [ %call52.dup02002, %invoke.cont99.dup0 ]
  %call45.dup02050 = phi i32* [ %call45.dup02003, %invoke.cont99.dup0 ]
  %call14.dup02051 = phi i32* [ %call14.dup02026, %invoke.cont99.dup0 ]
  %call37.dup02158 = phi double* [ %call37.dup02157, %invoke.cont99.dup0 ]
  %m_lzetam.dup04625 = phi %"class.std::vector.0"* [ %m_lzetam.dup04584, %invoke.cont99.dup0 ]
  %m_nodalMass.dup04626 = phi %"class.std::vector"* [ %m_nodalMass.dup04585, %invoke.cont99.dup0 ]
  %m_q.dup04627 = phi %"class.std::vector"* [ %m_q.dup04583, %invoke.cont99.dup0 ]
  %m_yd.dup04628 = phi %"class.std::vector"* [ %m_yd.dup04581, %invoke.cont99.dup0 ]
  %x_local.dup04629 = phi [8 x double]* [ %x_local.dup04582, %invoke.cont99.dup0 ]
  %m_vdov.dup04630 = phi %"class.std::vector"* [ %m_vdov.dup04590, %invoke.cont99.dup0 ]
  %m_symmX.dup04631 = phi %"class.std::vector.0"* [ %m_symmX.dup04591, %invoke.cont99.dup0 ]
  %m_lzetap.dup04632 = phi %"class.std::vector.0"* [ %m_lzetap.dup04592, %invoke.cont99.dup0 ]
  %m_vnew.dup04633 = phi %"class.std::vector"* [ %m_vnew.dup04588, %invoke.cont99.dup0 ]
  %m_z.dup04634 = phi %"class.std::vector"* [ %m_z.dup04587, %invoke.cont99.dup0 ]
  %m_v.dup04635 = phi %"class.std::vector"* [ %m_v.dup04589, %invoke.cont99.dup0 ]
  %m_lxim.dup04636 = phi %"class.std::vector.0"* [ %m_lxim.dup04593, %invoke.cont99.dup0 ]
  %m_lxip.dup04637 = phi %"class.std::vector.0"* [ %m_lxip.dup04623, %invoke.cont99.dup0 ]
  %m_xd.dup04638 = phi %"class.std::vector"* [ %m_xd.dup04603, %invoke.cont99.dup0 ]
  %m_elemBC.dup04639 = phi %"class.std::vector.0"* [ %m_elemBC.dup04594, %invoke.cont99.dup0 ]
  %m_volo.dup04640 = phi %"class.std::vector"* [ %m_volo.dup04586, %invoke.cont99.dup0 ]
  %m_ydd.dup04641 = phi %"class.std::vector"* [ %m_ydd.dup04607, %invoke.cont99.dup0 ]
  %m_xdd.dup04642 = phi %"class.std::vector"* [ %m_xdd.dup04608, %invoke.cont99.dup0 ]
  %m_qq.dup04643 = phi %"class.std::vector"* [ %m_qq.dup04609, %invoke.cont99.dup0 ]
  %m_ql.dup04644 = phi %"class.std::vector"* [ %m_ql.dup04610, %invoke.cont99.dup0 ]
  %call8.dup04645 = phi i8* [ %call8.dup04611, %invoke.cont99.dup0 ]
  %m_zd.dup04646 = phi %"class.std::vector"* [ %m_zd.dup04612, %invoke.cont99.dup0 ]
  %call.dup04647 = phi i32* [ %call.dup04613, %invoke.cont99.dup0 ]
  %m_elemMass.dup04648 = phi %"class.std::vector"* [ %m_elemMass.dup04616, %invoke.cont99.dup0 ]
  %m_symmY.dup04649 = phi %"class.std::vector.0"* [ %m_symmY.dup04617, %invoke.cont99.dup0 ]
  %call6.dup04650 = phi i32* [ %call6.dup04621, %invoke.cont99.dup0 ]
  %m_y.dup04651 = phi %"class.std::vector"* [ %m_y.dup04620, %invoke.cont99.dup0 ]
  %m_symmZ.dup04652 = phi %"class.std::vector.0"* [ %m_symmZ.dup04615, %invoke.cont99.dup0 ]
  %m_p.dup04653 = phi %"class.std::vector"* [ %m_p.dup04614, %invoke.cont99.dup0 ]
  %add.dup04654 = phi i32 [ %add.dup04601, %invoke.cont99.dup0 ]
  %m_e.dup04655 = phi %"class.std::vector"* [ %m_e.dup04622, %invoke.cont99.dup0 ]
  %m_delv.dup04656 = phi %"class.std::vector"* [ %m_delv.dup04595, %invoke.cont99.dup0 ]
  %z_local.dup04657 = phi [8 x double]* [ %z_local.dup04619, %invoke.cont99.dup0 ]
  %y_local.dup04658 = phi [8 x double]* [ %y_local.dup04618, %invoke.cont99.dup0 ]
  %m_zdd.dup04659 = phi %"class.std::vector"* [ %m_zdd.dup04606, %invoke.cont99.dup0 ]
  %m_fx.dup04660 = phi %"class.std::vector"* [ %m_fx.dup04605, %invoke.cont99.dup0 ]
  %m_fy.dup04661 = phi %"class.std::vector"* [ %m_fy.dup04604, %invoke.cont99.dup0 ]
  %m_nodelist.dup04662 = phi %"class.std::vector.0"* [ %m_nodelist.dup04602, %invoke.cont99.dup0 ]
  %m_ss.dup04663 = phi %"class.std::vector"* [ %m_ss.dup04600, %invoke.cont99.dup0 ]
  %m_letap.dup04664 = phi %"class.std::vector.0"* [ %m_letap.dup04599, %invoke.cont99.dup0 ]
  %m_fz.dup04665 = phi %"class.std::vector"* [ %m_fz.dup04598, %invoke.cont99.dup0 ]
  %m_x.dup04666 = phi %"class.std::vector"* [ %m_x.dup04597, %invoke.cont99.dup0 ]
  %m_arealg.dup04667 = phi %"class.std::vector"* [ %m_arealg.dup04596, %invoke.cont99.dup0 ]
  %m_letam.dup04668 = phi %"class.std::vector.0"* [ %m_letam.dup04624, %invoke.cont99.dup0 ]
  %call67.dup05138 = phi double* [ %call67.dup05135, %invoke.cont99.dup0 ]
  %call69.dup05139 = phi double* [ %call69.dup05137, %invoke.cont99.dup0 ]
  %call71.dup05140 = phi double* [ %call71.dup05136, %invoke.cont99.dup0 ]
  store double 1.000000e+20, double* %call102.dup0176, align 8, !tbaa !34
  %call104.dup0 = invoke nonnull align 8 dereferenceable(8) double* @_ZN6Domain7dthydroEv(%class.Domain* %this)
          to label %invoke.cont103 unwind label %lpad

invoke.cont99.dup0:                               ; No predecessors!
  %call100.dup048 = phi double* [ %call100.dup0, %invoke.cont97.dup0 ]
  %call98.dup01337 = phi double* [ %call98.dup01336, %invoke.cont97.dup0 ]
  %call94.dup01392 = phi double* [ %call94.dup01391, %invoke.cont97.dup0 ]
  %call96.dup01393 = phi double* [ %call96.dup01390, %invoke.cont97.dup0 ]
  %call52.dup02002 = phi double* [ %call52.dup01987, %invoke.cont97.dup0 ]
  %call45.dup02003 = phi i32* [ %call45.dup01986, %invoke.cont97.dup0 ]
  %call62.dup02004 = phi i32* [ %call62.dup01985, %invoke.cont97.dup0 ]
  %call50.dup02005 = phi double* [ %call50.dup01984, %invoke.cont97.dup0 ]
  %inc39.dup02006 = phi i32 [ %inc39.dup01988, %invoke.cont97.dup0 ]
  %call79.dup02007 = phi i32* [ %call79.dup01989, %invoke.cont97.dup0 ]
  %inc.dup02008 = phi i32 [ %inc.dup01982, %invoke.cont97.dup0 ]
  %call25.dup02009 = phi double* [ %call25.dup01979, %invoke.cont97.dup0 ]
  %call19.dup02010 = phi i32* [ %call19.dup01978, %invoke.cont97.dup0 ]
  %call84.dup02011 = phi double* [ %call84.dup01977, %invoke.cont97.dup0 ]
  %inc56.dup02012 = phi i32 [ %inc56.dup01983, %invoke.cont97.dup0 ]
  %inc73.dup02013 = phi i32 [ %inc73.dup01996, %invoke.cont97.dup0 ]
  %call21.dup02014 = phi double* [ %call21.dup01997, %invoke.cont97.dup0 ]
  %call54.dup02015 = phi double* [ %call54.dup01991, %invoke.cont97.dup0 ]
  %call32.dup02016 = phi i32* [ %call32.dup01990, %invoke.cont97.dup0 ]
  %call11.dup02017 = phi i32* [ %call11.dup01998, %invoke.cont97.dup0 ]
  %i28.0.dup02018 = phi i32 [ %i28.0.dup02000, %invoke.cont97.dup0 ]
  %i75.0.dup02019 = phi i32 [ %i75.0.dup01999, %invoke.cont97.dup0 ]
  %i58.0.dup02020 = phi i32 [ %i58.0.dup01995, %invoke.cont97.dup0 ]
  %call23.dup02021 = phi double* [ %call23.dup01994, %invoke.cont97.dup0 ]
  %i.0.dup02022 = phi i32 [ %i.0.dup01993, %invoke.cont97.dup0 ]
  %inc86.dup02023 = phi i32 [ %inc86.dup01992, %invoke.cont97.dup0 ]
  %i41.0.dup02024 = phi i32 [ %i41.0.dup01980, %invoke.cont97.dup0 ]
  %call27.dup02025 = phi double* [ %call27.dup01981, %invoke.cont97.dup0 ]
  %call14.dup02026 = phi i32* [ %call14.dup02001, %invoke.cont97.dup0 ]
  %call37.dup02157 = phi double* [ %call37.dup02156, %invoke.cont97.dup0 ]
  %m_yd.dup04581 = phi %"class.std::vector"* [ %m_yd.dup04540, %invoke.cont97.dup0 ]
  %x_local.dup04582 = phi [8 x double]* [ %x_local.dup04541, %invoke.cont97.dup0 ]
  %m_q.dup04583 = phi %"class.std::vector"* [ %m_q.dup04539, %invoke.cont97.dup0 ]
  %m_lzetam.dup04584 = phi %"class.std::vector.0"* [ %m_lzetam.dup04537, %invoke.cont97.dup0 ]
  %m_nodalMass.dup04585 = phi %"class.std::vector"* [ %m_nodalMass.dup04538, %invoke.cont97.dup0 ]
  %m_volo.dup04586 = phi %"class.std::vector"* [ %m_volo.dup04547, %invoke.cont97.dup0 ]
  %m_z.dup04587 = phi %"class.std::vector"* [ %m_z.dup04543, %invoke.cont97.dup0 ]
  %m_vnew.dup04588 = phi %"class.std::vector"* [ %m_vnew.dup04545, %invoke.cont97.dup0 ]
  %m_v.dup04589 = phi %"class.std::vector"* [ %m_v.dup04548, %invoke.cont97.dup0 ]
  %m_vdov.dup04590 = phi %"class.std::vector"* [ %m_vdov.dup04577, %invoke.cont97.dup0 ]
  %m_symmX.dup04591 = phi %"class.std::vector.0"* [ %m_symmX.dup04578, %invoke.cont97.dup0 ]
  %m_lzetap.dup04592 = phi %"class.std::vector.0"* [ %m_lzetap.dup04579, %invoke.cont97.dup0 ]
  %m_lxim.dup04593 = phi %"class.std::vector.0"* [ %m_lxim.dup04549, %invoke.cont97.dup0 ]
  %m_elemBC.dup04594 = phi %"class.std::vector.0"* [ %m_elemBC.dup04550, %invoke.cont97.dup0 ]
  %m_delv.dup04595 = phi %"class.std::vector"* [ %m_delv.dup04542, %invoke.cont97.dup0 ]
  %m_arealg.dup04596 = phi %"class.std::vector"* [ %m_arealg.dup04580, %invoke.cont97.dup0 ]
  %m_x.dup04597 = phi %"class.std::vector"* [ %m_x.dup04562, %invoke.cont97.dup0 ]
  %m_fz.dup04598 = phi %"class.std::vector"* [ %m_fz.dup04567, %invoke.cont97.dup0 ]
  %m_letap.dup04599 = phi %"class.std::vector.0"* [ %m_letap.dup04568, %invoke.cont97.dup0 ]
  %m_ss.dup04600 = phi %"class.std::vector"* [ %m_ss.dup04569, %invoke.cont97.dup0 ]
  %add.dup04601 = phi i32 [ %add.dup04561, %invoke.cont97.dup0 ]
  %m_nodelist.dup04602 = phi %"class.std::vector.0"* [ %m_nodelist.dup04570, %invoke.cont97.dup0 ]
  %m_xd.dup04603 = phi %"class.std::vector"* [ %m_xd.dup04552, %invoke.cont97.dup0 ]
  %m_fy.dup04604 = phi %"class.std::vector"* [ %m_fy.dup04563, %invoke.cont97.dup0 ]
  %m_fx.dup04605 = phi %"class.std::vector"* [ %m_fx.dup04564, %invoke.cont97.dup0 ]
  %m_zdd.dup04606 = phi %"class.std::vector"* [ %m_zdd.dup04565, %invoke.cont97.dup0 ]
  %m_ydd.dup04607 = phi %"class.std::vector"* [ %m_ydd.dup04566, %invoke.cont97.dup0 ]
  %m_xdd.dup04608 = phi %"class.std::vector"* [ %m_xdd.dup04575, %invoke.cont97.dup0 ]
  %m_qq.dup04609 = phi %"class.std::vector"* [ %m_qq.dup04576, %invoke.cont97.dup0 ]
  %m_ql.dup04610 = phi %"class.std::vector"* [ %m_ql.dup04574, %invoke.cont97.dup0 ]
  %call8.dup04611 = phi i8* [ %call8.dup04573, %invoke.cont97.dup0 ]
  %m_zd.dup04612 = phi %"class.std::vector"* [ %m_zd.dup04572, %invoke.cont97.dup0 ]
  %call.dup04613 = phi i32* [ %call.dup04571, %invoke.cont97.dup0 ]
  %m_p.dup04614 = phi %"class.std::vector"* [ %m_p.dup04560, %invoke.cont97.dup0 ]
  %m_symmZ.dup04615 = phi %"class.std::vector.0"* [ %m_symmZ.dup04559, %invoke.cont97.dup0 ]
  %m_elemMass.dup04616 = phi %"class.std::vector"* [ %m_elemMass.dup04558, %invoke.cont97.dup0 ]
  %m_symmY.dup04617 = phi %"class.std::vector.0"* [ %m_symmY.dup04557, %invoke.cont97.dup0 ]
  %y_local.dup04618 = phi [8 x double]* [ %y_local.dup04556, %invoke.cont97.dup0 ]
  %z_local.dup04619 = phi [8 x double]* [ %z_local.dup04555, %invoke.cont97.dup0 ]
  %m_y.dup04620 = phi %"class.std::vector"* [ %m_y.dup04554, %invoke.cont97.dup0 ]
  %call6.dup04621 = phi i32* [ %call6.dup04553, %invoke.cont97.dup0 ]
  %m_e.dup04622 = phi %"class.std::vector"* [ %m_e.dup04544, %invoke.cont97.dup0 ]
  %m_lxip.dup04623 = phi %"class.std::vector.0"* [ %m_lxip.dup04551, %invoke.cont97.dup0 ]
  %m_letam.dup04624 = phi %"class.std::vector.0"* [ %m_letam.dup04546, %invoke.cont97.dup0 ]
  %call67.dup05135 = phi double* [ %call67.dup05132, %invoke.cont97.dup0 ]
  %call71.dup05136 = phi double* [ %call71.dup05133, %invoke.cont97.dup0 ]
  %call69.dup05137 = phi double* [ %call69.dup05134, %invoke.cont97.dup0 ]
  store double 1.200000e+00, double* %call100.dup048, align 8, !tbaa !34
  %call102.dup0 = invoke nonnull align 8 dereferenceable(8) double* @_ZN6Domain9dtcourantEv(%class.Domain* %this)
          to label %invoke.cont101 unwind label %lpad

invoke.cont97.dup0:                               ; No predecessors!
  %call98.dup01336 = phi double* [ %call98.dup0, %invoke.cont95.dup0 ]
  %call96.dup01390 = phi double* [ %call96.dup01388, %invoke.cont95.dup0 ]
  %call94.dup01391 = phi double* [ %call94.dup01389, %invoke.cont95.dup0 ]
  %call84.dup01977 = phi double* [ %call84.dup01964, %invoke.cont95.dup0 ]
  %call19.dup01978 = phi i32* [ %call19.dup01965, %invoke.cont95.dup0 ]
  %call25.dup01979 = phi double* [ %call25.dup01966, %invoke.cont95.dup0 ]
  %i41.0.dup01980 = phi i32 [ %i41.0.dup01963, %invoke.cont95.dup0 ]
  %call27.dup01981 = phi double* [ %call27.dup01962, %invoke.cont95.dup0 ]
  %inc.dup01982 = phi i32 [ %inc.dup01961, %invoke.cont95.dup0 ]
  %inc56.dup01983 = phi i32 [ %inc56.dup01960, %invoke.cont95.dup0 ]
  %call50.dup01984 = phi double* [ %call50.dup01959, %invoke.cont95.dup0 ]
  %call62.dup01985 = phi i32* [ %call62.dup01958, %invoke.cont95.dup0 ]
  %call45.dup01986 = phi i32* [ %call45.dup01957, %invoke.cont95.dup0 ]
  %call52.dup01987 = phi double* [ %call52.dup01956, %invoke.cont95.dup0 ]
  %inc39.dup01988 = phi i32 [ %inc39.dup01971, %invoke.cont95.dup0 ]
  %call79.dup01989 = phi i32* [ %call79.dup01972, %invoke.cont95.dup0 ]
  %call32.dup01990 = phi i32* [ %call32.dup01973, %invoke.cont95.dup0 ]
  %call54.dup01991 = phi double* [ %call54.dup01952, %invoke.cont95.dup0 ]
  %inc86.dup01992 = phi i32 [ %inc86.dup01976, %invoke.cont95.dup0 ]
  %i.0.dup01993 = phi i32 [ %i.0.dup01975, %invoke.cont95.dup0 ]
  %call23.dup01994 = phi double* [ %call23.dup01970, %invoke.cont95.dup0 ]
  %i58.0.dup01995 = phi i32 [ %i58.0.dup01969, %invoke.cont95.dup0 ]
  %inc73.dup01996 = phi i32 [ %inc73.dup01968, %invoke.cont95.dup0 ]
  %call21.dup01997 = phi double* [ %call21.dup01967, %invoke.cont95.dup0 ]
  %call11.dup01998 = phi i32* [ %call11.dup01953, %invoke.cont95.dup0 ]
  %i75.0.dup01999 = phi i32 [ %i75.0.dup01954, %invoke.cont95.dup0 ]
  %i28.0.dup02000 = phi i32 [ %i28.0.dup01955, %invoke.cont95.dup0 ]
  %call14.dup02001 = phi i32* [ %call14.dup01974, %invoke.cont95.dup0 ]
  %call37.dup02156 = phi double* [ %call37.dup02155, %invoke.cont95.dup0 ]
  %m_lzetam.dup04537 = phi %"class.std::vector.0"* [ %m_lzetam.dup04499, %invoke.cont95.dup0 ]
  %m_nodalMass.dup04538 = phi %"class.std::vector"* [ %m_nodalMass.dup04500, %invoke.cont95.dup0 ]
  %m_q.dup04539 = phi %"class.std::vector"* [ %m_q.dup04498, %invoke.cont95.dup0 ]
  %m_yd.dup04540 = phi %"class.std::vector"* [ %m_yd.dup04496, %invoke.cont95.dup0 ]
  %x_local.dup04541 = phi [8 x double]* [ %x_local.dup04497, %invoke.cont95.dup0 ]
  %m_delv.dup04542 = phi %"class.std::vector"* [ %m_delv.dup04495, %invoke.cont95.dup0 ]
  %m_z.dup04543 = phi %"class.std::vector"* [ %m_z.dup04494, %invoke.cont95.dup0 ]
  %m_e.dup04544 = phi %"class.std::vector"* [ %m_e.dup04493, %invoke.cont95.dup0 ]
  %m_vnew.dup04545 = phi %"class.std::vector"* [ %m_vnew.dup04507, %invoke.cont95.dup0 ]
  %m_letam.dup04546 = phi %"class.std::vector.0"* [ %m_letam.dup04502, %invoke.cont95.dup0 ]
  %m_volo.dup04547 = phi %"class.std::vector"* [ %m_volo.dup04501, %invoke.cont95.dup0 ]
  %m_v.dup04548 = phi %"class.std::vector"* [ %m_v.dup04534, %invoke.cont95.dup0 ]
  %m_lxim.dup04549 = phi %"class.std::vector.0"* [ %m_lxim.dup04508, %invoke.cont95.dup0 ]
  %m_elemBC.dup04550 = phi %"class.std::vector.0"* [ %m_elemBC.dup04503, %invoke.cont95.dup0 ]
  %m_lxip.dup04551 = phi %"class.std::vector.0"* [ %m_lxip.dup04535, %invoke.cont95.dup0 ]
  %m_xd.dup04552 = phi %"class.std::vector"* [ %m_xd.dup04528, %invoke.cont95.dup0 ]
  %call6.dup04553 = phi i32* [ %call6.dup04517, %invoke.cont95.dup0 ]
  %m_y.dup04554 = phi %"class.std::vector"* [ %m_y.dup04518, %invoke.cont95.dup0 ]
  %z_local.dup04555 = phi [8 x double]* [ %z_local.dup04522, %invoke.cont95.dup0 ]
  %y_local.dup04556 = phi [8 x double]* [ %y_local.dup04523, %invoke.cont95.dup0 ]
  %m_symmY.dup04557 = phi %"class.std::vector.0"* [ %m_symmY.dup04510, %invoke.cont95.dup0 ]
  %m_elemMass.dup04558 = phi %"class.std::vector"* [ %m_elemMass.dup04509, %invoke.cont95.dup0 ]
  %m_symmZ.dup04559 = phi %"class.std::vector.0"* [ %m_symmZ.dup04524, %invoke.cont95.dup0 ]
  %m_p.dup04560 = phi %"class.std::vector"* [ %m_p.dup04525, %invoke.cont95.dup0 ]
  %add.dup04561 = phi i32 [ %add.dup04526, %invoke.cont95.dup0 ]
  %m_x.dup04562 = phi %"class.std::vector"* [ %m_x.dup04532, %invoke.cont95.dup0 ]
  %m_fy.dup04563 = phi %"class.std::vector"* [ %m_fy.dup04519, %invoke.cont95.dup0 ]
  %m_fx.dup04564 = phi %"class.std::vector"* [ %m_fx.dup04520, %invoke.cont95.dup0 ]
  %m_zdd.dup04565 = phi %"class.std::vector"* [ %m_zdd.dup04521, %invoke.cont95.dup0 ]
  %m_ydd.dup04566 = phi %"class.std::vector"* [ %m_ydd.dup04533, %invoke.cont95.dup0 ]
  %m_fz.dup04567 = phi %"class.std::vector"* [ %m_fz.dup04531, %invoke.cont95.dup0 ]
  %m_letap.dup04568 = phi %"class.std::vector.0"* [ %m_letap.dup04530, %invoke.cont95.dup0 ]
  %m_ss.dup04569 = phi %"class.std::vector"* [ %m_ss.dup04529, %invoke.cont95.dup0 ]
  %m_nodelist.dup04570 = phi %"class.std::vector.0"* [ %m_nodelist.dup04527, %invoke.cont95.dup0 ]
  %call.dup04571 = phi i32* [ %call.dup04516, %invoke.cont95.dup0 ]
  %m_zd.dup04572 = phi %"class.std::vector"* [ %m_zd.dup04515, %invoke.cont95.dup0 ]
  %call8.dup04573 = phi i8* [ %call8.dup04514, %invoke.cont95.dup0 ]
  %m_ql.dup04574 = phi %"class.std::vector"* [ %m_ql.dup04513, %invoke.cont95.dup0 ]
  %m_xdd.dup04575 = phi %"class.std::vector"* [ %m_xdd.dup04512, %invoke.cont95.dup0 ]
  %m_qq.dup04576 = phi %"class.std::vector"* [ %m_qq.dup04511, %invoke.cont95.dup0 ]
  %m_vdov.dup04577 = phi %"class.std::vector"* [ %m_vdov.dup04504, %invoke.cont95.dup0 ]
  %m_symmX.dup04578 = phi %"class.std::vector.0"* [ %m_symmX.dup04506, %invoke.cont95.dup0 ]
  %m_lzetap.dup04579 = phi %"class.std::vector.0"* [ %m_lzetap.dup04505, %invoke.cont95.dup0 ]
  %m_arealg.dup04580 = phi %"class.std::vector"* [ %m_arealg.dup04536, %invoke.cont95.dup0 ]
  %call67.dup05132 = phi double* [ %call67.dup05129, %invoke.cont95.dup0 ]
  %call71.dup05133 = phi double* [ %call71.dup05131, %invoke.cont95.dup0 ]
  %call69.dup05134 = phi double* [ %call69.dup05130, %invoke.cont95.dup0 ]
  store double 1.100000e+00, double* %call98.dup01336, align 8, !tbaa !34
  %call100.dup0 = invoke nonnull align 8 dereferenceable(8) double* @_ZN6Domain15deltatimemultubEv(%class.Domain* %this)
          to label %invoke.cont99 unwind label %lpad

invoke.cont95.dup0:                               ; No predecessors!
  %call96.dup01388 = phi double* [ %call96.dup0, %invoke.cont93.dup0 ]
  %call94.dup01389 = phi double* [ %call94.dup0742, %invoke.cont93.dup0 ]
  %call54.dup01952 = phi double* [ %call54.dup01940, %invoke.cont93.dup0 ]
  %call11.dup01953 = phi i32* [ %call11.dup01939, %invoke.cont93.dup0 ]
  %i75.0.dup01954 = phi i32 [ %i75.0.dup01938, %invoke.cont93.dup0 ]
  %i28.0.dup01955 = phi i32 [ %i28.0.dup01937, %invoke.cont93.dup0 ]
  %call52.dup01956 = phi double* [ %call52.dup01936, %invoke.cont93.dup0 ]
  %call45.dup01957 = phi i32* [ %call45.dup01935, %invoke.cont93.dup0 ]
  %call62.dup01958 = phi i32* [ %call62.dup01934, %invoke.cont93.dup0 ]
  %call50.dup01959 = phi double* [ %call50.dup01933, %invoke.cont93.dup0 ]
  %inc56.dup01960 = phi i32 [ %inc56.dup01932, %invoke.cont93.dup0 ]
  %inc.dup01961 = phi i32 [ %inc.dup01927, %invoke.cont93.dup0 ]
  %call27.dup01962 = phi double* [ %call27.dup01930, %invoke.cont93.dup0 ]
  %i41.0.dup01963 = phi i32 [ %i41.0.dup01931, %invoke.cont93.dup0 ]
  %call84.dup01964 = phi double* [ %call84.dup01946, %invoke.cont93.dup0 ]
  %call19.dup01965 = phi i32* [ %call19.dup01947, %invoke.cont93.dup0 ]
  %call25.dup01966 = phi double* [ %call25.dup01945, %invoke.cont93.dup0 ]
  %call21.dup01967 = phi double* [ %call21.dup01944, %invoke.cont93.dup0 ]
  %inc73.dup01968 = phi i32 [ %inc73.dup01948, %invoke.cont93.dup0 ]
  %i58.0.dup01969 = phi i32 [ %i58.0.dup01950, %invoke.cont93.dup0 ]
  %call23.dup01970 = phi double* [ %call23.dup01949, %invoke.cont93.dup0 ]
  %inc39.dup01971 = phi i32 [ %inc39.dup01943, %invoke.cont93.dup0 ]
  %call79.dup01972 = phi i32* [ %call79.dup01942, %invoke.cont93.dup0 ]
  %call32.dup01973 = phi i32* [ %call32.dup01941, %invoke.cont93.dup0 ]
  %call14.dup01974 = phi i32* [ %call14.dup01951, %invoke.cont93.dup0 ]
  %i.0.dup01975 = phi i32 [ %i.0.dup01929, %invoke.cont93.dup0 ]
  %inc86.dup01976 = phi i32 [ %inc86.dup01928, %invoke.cont93.dup0 ]
  %call37.dup02155 = phi double* [ %call37.dup02154, %invoke.cont93.dup0 ]
  %m_e.dup04493 = phi %"class.std::vector"* [ %m_e.dup04456, %invoke.cont93.dup0 ]
  %m_z.dup04494 = phi %"class.std::vector"* [ %m_z.dup04455, %invoke.cont93.dup0 ]
  %m_delv.dup04495 = phi %"class.std::vector"* [ %m_delv.dup04454, %invoke.cont93.dup0 ]
  %m_yd.dup04496 = phi %"class.std::vector"* [ %m_yd.dup04452, %invoke.cont93.dup0 ]
  %x_local.dup04497 = phi [8 x double]* [ %x_local.dup04453, %invoke.cont93.dup0 ]
  %m_q.dup04498 = phi %"class.std::vector"* [ %m_q.dup04451, %invoke.cont93.dup0 ]
  %m_lzetam.dup04499 = phi %"class.std::vector.0"* [ %m_lzetam.dup04449, %invoke.cont93.dup0 ]
  %m_nodalMass.dup04500 = phi %"class.std::vector"* [ %m_nodalMass.dup04450, %invoke.cont93.dup0 ]
  %m_volo.dup04501 = phi %"class.std::vector"* [ %m_volo.dup04460, %invoke.cont93.dup0 ]
  %m_letam.dup04502 = phi %"class.std::vector.0"* [ %m_letam.dup04459, %invoke.cont93.dup0 ]
  %m_elemBC.dup04503 = phi %"class.std::vector.0"* [ %m_elemBC.dup04462, %invoke.cont93.dup0 ]
  %m_vdov.dup04504 = phi %"class.std::vector"* [ %m_vdov.dup04489, %invoke.cont93.dup0 ]
  %m_lzetap.dup04505 = phi %"class.std::vector.0"* [ %m_lzetap.dup04490, %invoke.cont93.dup0 ]
  %m_symmX.dup04506 = phi %"class.std::vector.0"* [ %m_symmX.dup04491, %invoke.cont93.dup0 ]
  %m_vnew.dup04507 = phi %"class.std::vector"* [ %m_vnew.dup04488, %invoke.cont93.dup0 ]
  %m_lxim.dup04508 = phi %"class.std::vector.0"* [ %m_lxim.dup04461, %invoke.cont93.dup0 ]
  %m_elemMass.dup04509 = phi %"class.std::vector"* [ %m_elemMass.dup04473, %invoke.cont93.dup0 ]
  %m_symmY.dup04510 = phi %"class.std::vector.0"* [ %m_symmY.dup04474, %invoke.cont93.dup0 ]
  %m_qq.dup04511 = phi %"class.std::vector"* [ %m_qq.dup04475, %invoke.cont93.dup0 ]
  %m_xdd.dup04512 = phi %"class.std::vector"* [ %m_xdd.dup04476, %invoke.cont93.dup0 ]
  %m_ql.dup04513 = phi %"class.std::vector"* [ %m_ql.dup04477, %invoke.cont93.dup0 ]
  %call8.dup04514 = phi i8* [ %call8.dup04478, %invoke.cont93.dup0 ]
  %m_zd.dup04515 = phi %"class.std::vector"* [ %m_zd.dup04480, %invoke.cont93.dup0 ]
  %call.dup04516 = phi i32* [ %call.dup04479, %invoke.cont93.dup0 ]
  %call6.dup04517 = phi i32* [ %call6.dup04486, %invoke.cont93.dup0 ]
  %m_y.dup04518 = phi %"class.std::vector"* [ %m_y.dup04485, %invoke.cont93.dup0 ]
  %m_fy.dup04519 = phi %"class.std::vector"* [ %m_fy.dup04481, %invoke.cont93.dup0 ]
  %m_fx.dup04520 = phi %"class.std::vector"* [ %m_fx.dup04487, %invoke.cont93.dup0 ]
  %m_zdd.dup04521 = phi %"class.std::vector"* [ %m_zdd.dup04482, %invoke.cont93.dup0 ]
  %z_local.dup04522 = phi [8 x double]* [ %z_local.dup04484, %invoke.cont93.dup0 ]
  %y_local.dup04523 = phi [8 x double]* [ %y_local.dup04483, %invoke.cont93.dup0 ]
  %m_symmZ.dup04524 = phi %"class.std::vector.0"* [ %m_symmZ.dup04472, %invoke.cont93.dup0 ]
  %m_p.dup04525 = phi %"class.std::vector"* [ %m_p.dup04471, %invoke.cont93.dup0 ]
  %add.dup04526 = phi i32 [ %add.dup04469, %invoke.cont93.dup0 ]
  %m_nodelist.dup04527 = phi %"class.std::vector.0"* [ %m_nodelist.dup04470, %invoke.cont93.dup0 ]
  %m_xd.dup04528 = phi %"class.std::vector"* [ %m_xd.dup04464, %invoke.cont93.dup0 ]
  %m_ss.dup04529 = phi %"class.std::vector"* [ %m_ss.dup04468, %invoke.cont93.dup0 ]
  %m_letap.dup04530 = phi %"class.std::vector.0"* [ %m_letap.dup04467, %invoke.cont93.dup0 ]
  %m_fz.dup04531 = phi %"class.std::vector"* [ %m_fz.dup04466, %invoke.cont93.dup0 ]
  %m_x.dup04532 = phi %"class.std::vector"* [ %m_x.dup04465, %invoke.cont93.dup0 ]
  %m_ydd.dup04533 = phi %"class.std::vector"* [ %m_ydd.dup04457, %invoke.cont93.dup0 ]
  %m_v.dup04534 = phi %"class.std::vector"* [ %m_v.dup04458, %invoke.cont93.dup0 ]
  %m_lxip.dup04535 = phi %"class.std::vector.0"* [ %m_lxip.dup04463, %invoke.cont93.dup0 ]
  %m_arealg.dup04536 = phi %"class.std::vector"* [ %m_arealg.dup04492, %invoke.cont93.dup0 ]
  %call67.dup05129 = phi double* [ %call67.dup05126, %invoke.cont93.dup0 ]
  %call69.dup05130 = phi double* [ %call69.dup05128, %invoke.cont93.dup0 ]
  %call71.dup05131 = phi double* [ %call71.dup05127, %invoke.cont93.dup0 ]
  store double 1.000000e-02, double* %call96.dup01388, align 8, !tbaa !34
  %call98.dup0 = invoke nonnull align 8 dereferenceable(8) double* @_ZN6Domain15deltatimemultlbEv(%class.Domain* %this)
          to label %invoke.cont97 unwind label %lpad

invoke.cont93.dup0:                               ; No predecessors!
  %call94.dup0742 = phi double* [ %call94.dup0, %invoke.cont92.dup0 ]
  %inc.dup01927 = phi i32 [ %inc.dup01916, %invoke.cont92.dup0 ]
  %inc86.dup01928 = phi i32 [ %inc86.dup01915, %invoke.cont92.dup0 ]
  %i.0.dup01929 = phi i32 [ %i.0.dup01914, %invoke.cont92.dup0 ]
  %call27.dup01930 = phi double* [ %call27.dup01913, %invoke.cont92.dup0 ]
  %i41.0.dup01931 = phi i32 [ %i41.0.dup01912, %invoke.cont92.dup0 ]
  %inc56.dup01932 = phi i32 [ %inc56.dup01911, %invoke.cont92.dup0 ]
  %call50.dup01933 = phi double* [ %call50.dup01910, %invoke.cont92.dup0 ]
  %call62.dup01934 = phi i32* [ %call62.dup01909, %invoke.cont92.dup0 ]
  %call45.dup01935 = phi i32* [ %call45.dup01908, %invoke.cont92.dup0 ]
  %call52.dup01936 = phi double* [ %call52.dup01907, %invoke.cont92.dup0 ]
  %i28.0.dup01937 = phi i32 [ %i28.0.dup01923, %invoke.cont92.dup0 ]
  %i75.0.dup01938 = phi i32 [ %i75.0.dup01922, %invoke.cont92.dup0 ]
  %call11.dup01939 = phi i32* [ %call11.dup01924, %invoke.cont92.dup0 ]
  %call54.dup01940 = phi double* [ %call54.dup01926, %invoke.cont92.dup0 ]
  %call32.dup01941 = phi i32* [ %call32.dup01925, %invoke.cont92.dup0 ]
  %call79.dup01942 = phi i32* [ %call79.dup01921, %invoke.cont92.dup0 ]
  %inc39.dup01943 = phi i32 [ %inc39.dup01920, %invoke.cont92.dup0 ]
  %call21.dup01944 = phi double* [ %call21.dup01905, %invoke.cont92.dup0 ]
  %call25.dup01945 = phi double* [ %call25.dup01919, %invoke.cont92.dup0 ]
  %call84.dup01946 = phi double* [ %call84.dup01918, %invoke.cont92.dup0 ]
  %call19.dup01947 = phi i32* [ %call19.dup01917, %invoke.cont92.dup0 ]
  %inc73.dup01948 = phi i32 [ %inc73.dup01906, %invoke.cont92.dup0 ]
  %call23.dup01949 = phi double* [ %call23.dup01904, %invoke.cont92.dup0 ]
  %i58.0.dup01950 = phi i32 [ %i58.0.dup01903, %invoke.cont92.dup0 ]
  %call14.dup01951 = phi i32* [ %call14.dup01902, %invoke.cont92.dup0 ]
  %call37.dup02154 = phi double* [ %call37.dup02153, %invoke.cont92.dup0 ]
  %m_lzetam.dup04449 = phi %"class.std::vector.0"* [ %m_lzetam.dup04413, %invoke.cont92.dup0 ]
  %m_nodalMass.dup04450 = phi %"class.std::vector"* [ %m_nodalMass.dup04414, %invoke.cont92.dup0 ]
  %m_q.dup04451 = phi %"class.std::vector"* [ %m_q.dup04412, %invoke.cont92.dup0 ]
  %m_yd.dup04452 = phi %"class.std::vector"* [ %m_yd.dup04410, %invoke.cont92.dup0 ]
  %x_local.dup04453 = phi [8 x double]* [ %x_local.dup04411, %invoke.cont92.dup0 ]
  %m_delv.dup04454 = phi %"class.std::vector"* [ %m_delv.dup04409, %invoke.cont92.dup0 ]
  %m_z.dup04455 = phi %"class.std::vector"* [ %m_z.dup04408, %invoke.cont92.dup0 ]
  %m_e.dup04456 = phi %"class.std::vector"* [ %m_e.dup04407, %invoke.cont92.dup0 ]
  %m_ydd.dup04457 = phi %"class.std::vector"* [ %m_ydd.dup04406, %invoke.cont92.dup0 ]
  %m_v.dup04458 = phi %"class.std::vector"* [ %m_v.dup04405, %invoke.cont92.dup0 ]
  %m_letam.dup04459 = phi %"class.std::vector.0"* [ %m_letam.dup04420, %invoke.cont92.dup0 ]
  %m_volo.dup04460 = phi %"class.std::vector"* [ %m_volo.dup04440, %invoke.cont92.dup0 ]
  %m_lxim.dup04461 = phi %"class.std::vector.0"* [ %m_lxim.dup04435, %invoke.cont92.dup0 ]
  %m_elemBC.dup04462 = phi %"class.std::vector.0"* [ %m_elemBC.dup04448, %invoke.cont92.dup0 ]
  %m_lxip.dup04463 = phi %"class.std::vector.0"* [ %m_lxip.dup04447, %invoke.cont92.dup0 ]
  %m_xd.dup04464 = phi %"class.std::vector"* [ %m_xd.dup04437, %invoke.cont92.dup0 ]
  %m_x.dup04465 = phi %"class.std::vector"* [ %m_x.dup04431, %invoke.cont92.dup0 ]
  %m_fz.dup04466 = phi %"class.std::vector"* [ %m_fz.dup04432, %invoke.cont92.dup0 ]
  %m_letap.dup04467 = phi %"class.std::vector.0"* [ %m_letap.dup04433, %invoke.cont92.dup0 ]
  %m_ss.dup04468 = phi %"class.std::vector"* [ %m_ss.dup04434, %invoke.cont92.dup0 ]
  %add.dup04469 = phi i32 [ %add.dup04430, %invoke.cont92.dup0 ]
  %m_nodelist.dup04470 = phi %"class.std::vector.0"* [ %m_nodelist.dup04436, %invoke.cont92.dup0 ]
  %m_p.dup04471 = phi %"class.std::vector"* [ %m_p.dup04429, %invoke.cont92.dup0 ]
  %m_symmZ.dup04472 = phi %"class.std::vector.0"* [ %m_symmZ.dup04428, %invoke.cont92.dup0 ]
  %m_elemMass.dup04473 = phi %"class.std::vector"* [ %m_elemMass.dup04427, %invoke.cont92.dup0 ]
  %m_symmY.dup04474 = phi %"class.std::vector.0"* [ %m_symmY.dup04426, %invoke.cont92.dup0 ]
  %m_qq.dup04475 = phi %"class.std::vector"* [ %m_qq.dup04441, %invoke.cont92.dup0 ]
  %m_xdd.dup04476 = phi %"class.std::vector"* [ %m_xdd.dup04442, %invoke.cont92.dup0 ]
  %m_ql.dup04477 = phi %"class.std::vector"* [ %m_ql.dup04444, %invoke.cont92.dup0 ]
  %call8.dup04478 = phi i8* [ %call8.dup04443, %invoke.cont92.dup0 ]
  %call.dup04479 = phi i32* [ %call.dup04446, %invoke.cont92.dup0 ]
  %m_zd.dup04480 = phi %"class.std::vector"* [ %m_zd.dup04445, %invoke.cont92.dup0 ]
  %m_fy.dup04481 = phi %"class.std::vector"* [ %m_fy.dup04438, %invoke.cont92.dup0 ]
  %m_zdd.dup04482 = phi %"class.std::vector"* [ %m_zdd.dup04439, %invoke.cont92.dup0 ]
  %y_local.dup04483 = phi [8 x double]* [ %y_local.dup04425, %invoke.cont92.dup0 ]
  %z_local.dup04484 = phi [8 x double]* [ %z_local.dup04424, %invoke.cont92.dup0 ]
  %m_y.dup04485 = phi %"class.std::vector"* [ %m_y.dup04423, %invoke.cont92.dup0 ]
  %call6.dup04486 = phi i32* [ %call6.dup04422, %invoke.cont92.dup0 ]
  %m_fx.dup04487 = phi %"class.std::vector"* [ %m_fx.dup04421, %invoke.cont92.dup0 ]
  %m_vnew.dup04488 = phi %"class.std::vector"* [ %m_vnew.dup04415, %invoke.cont92.dup0 ]
  %m_vdov.dup04489 = phi %"class.std::vector"* [ %m_vdov.dup04416, %invoke.cont92.dup0 ]
  %m_lzetap.dup04490 = phi %"class.std::vector.0"* [ %m_lzetap.dup04418, %invoke.cont92.dup0 ]
  %m_symmX.dup04491 = phi %"class.std::vector.0"* [ %m_symmX.dup04417, %invoke.cont92.dup0 ]
  %m_arealg.dup04492 = phi %"class.std::vector"* [ %m_arealg.dup04419, %invoke.cont92.dup0 ]
  %call67.dup05126 = phi double* [ %call67.dup05123, %invoke.cont92.dup0 ]
  %call71.dup05127 = phi double* [ %call71.dup05124, %invoke.cont92.dup0 ]
  %call69.dup05128 = phi double* [ %call69.dup05125, %invoke.cont92.dup0 ]
  store double 0xBEB0C6F7A0B5ED8D, double* %call94.dup0742, align 8, !tbaa !34
  %call96.dup0 = invoke nonnull align 8 dereferenceable(8) double* @_ZN6Domain8stoptimeEv(%class.Domain* %this)
          to label %invoke.cont95 unwind label %lpad

invoke.cont92.dup0:                               ; No predecessors!
  %call14.dup01902 = phi i32* [ %call14.dup01892, %invoke.cont91.dup0 ]
  %i58.0.dup01903 = phi i32 [ %i58.0.dup01891, %invoke.cont91.dup0 ]
  %call23.dup01904 = phi double* [ %call23.dup01890, %invoke.cont91.dup0 ]
  %call21.dup01905 = phi double* [ %call21.dup01889, %invoke.cont91.dup0 ]
  %inc73.dup01906 = phi i32 [ %inc73.dup01888, %invoke.cont91.dup0 ]
  %call52.dup01907 = phi double* [ %call52.dup01887, %invoke.cont91.dup0 ]
  %call45.dup01908 = phi i32* [ %call45.dup01886, %invoke.cont91.dup0 ]
  %call62.dup01909 = phi i32* [ %call62.dup01883, %invoke.cont91.dup0 ]
  %call50.dup01910 = phi double* [ %call50.dup01882, %invoke.cont91.dup0 ]
  %inc56.dup01911 = phi i32 [ %inc56.dup01894, %invoke.cont91.dup0 ]
  %i41.0.dup01912 = phi i32 [ %i41.0.dup01899, %invoke.cont91.dup0 ]
  %call27.dup01913 = phi double* [ %call27.dup01898, %invoke.cont91.dup0 ]
  %i.0.dup01914 = phi i32 [ %i.0.dup01901, %invoke.cont91.dup0 ]
  %inc86.dup01915 = phi i32 [ %inc86.dup01900, %invoke.cont91.dup0 ]
  %inc.dup01916 = phi i32 [ %inc.dup01893, %invoke.cont91.dup0 ]
  %call19.dup01917 = phi i32* [ %call19.dup01896, %invoke.cont91.dup0 ]
  %call84.dup01918 = phi double* [ %call84.dup01897, %invoke.cont91.dup0 ]
  %call25.dup01919 = phi double* [ %call25.dup01895, %invoke.cont91.dup0 ]
  %inc39.dup01920 = phi i32 [ %inc39.dup01881, %invoke.cont91.dup0 ]
  %call79.dup01921 = phi i32* [ %call79.dup01880, %invoke.cont91.dup0 ]
  %i75.0.dup01922 = phi i32 [ %i75.0.dup01877, %invoke.cont91.dup0 ]
  %i28.0.dup01923 = phi i32 [ %i28.0.dup01878, %invoke.cont91.dup0 ]
  %call11.dup01924 = phi i32* [ %call11.dup01879, %invoke.cont91.dup0 ]
  %call32.dup01925 = phi i32* [ %call32.dup01884, %invoke.cont91.dup0 ]
  %call54.dup01926 = phi double* [ %call54.dup01885, %invoke.cont91.dup0 ]
  %call37.dup02153 = phi double* [ %call37.dup02152, %invoke.cont91.dup0 ]
  %m_v.dup04405 = phi %"class.std::vector"* [ %m_v.dup04370, %invoke.cont91.dup0 ]
  %m_ydd.dup04406 = phi %"class.std::vector"* [ %m_ydd.dup04369, %invoke.cont91.dup0 ]
  %m_e.dup04407 = phi %"class.std::vector"* [ %m_e.dup04368, %invoke.cont91.dup0 ]
  %m_z.dup04408 = phi %"class.std::vector"* [ %m_z.dup04367, %invoke.cont91.dup0 ]
  %m_delv.dup04409 = phi %"class.std::vector"* [ %m_delv.dup04366, %invoke.cont91.dup0 ]
  %m_yd.dup04410 = phi %"class.std::vector"* [ %m_yd.dup04364, %invoke.cont91.dup0 ]
  %x_local.dup04411 = phi [8 x double]* [ %x_local.dup04365, %invoke.cont91.dup0 ]
  %m_q.dup04412 = phi %"class.std::vector"* [ %m_q.dup04363, %invoke.cont91.dup0 ]
  %m_lzetam.dup04413 = phi %"class.std::vector.0"* [ %m_lzetam.dup04361, %invoke.cont91.dup0 ]
  %m_nodalMass.dup04414 = phi %"class.std::vector"* [ %m_nodalMass.dup04362, %invoke.cont91.dup0 ]
  %m_vnew.dup04415 = phi %"class.std::vector"* [ %m_vnew.dup04388, %invoke.cont91.dup0 ]
  %m_vdov.dup04416 = phi %"class.std::vector"* [ %m_vdov.dup04376, %invoke.cont91.dup0 ]
  %m_symmX.dup04417 = phi %"class.std::vector.0"* [ %m_symmX.dup04377, %invoke.cont91.dup0 ]
  %m_lzetap.dup04418 = phi %"class.std::vector.0"* [ %m_lzetap.dup04378, %invoke.cont91.dup0 ]
  %m_arealg.dup04419 = phi %"class.std::vector"* [ %m_arealg.dup04375, %invoke.cont91.dup0 ]
  %m_letam.dup04420 = phi %"class.std::vector.0"* [ %m_letam.dup04404, %invoke.cont91.dup0 ]
  %m_fx.dup04421 = phi %"class.std::vector"* [ %m_fx.dup04387, %invoke.cont91.dup0 ]
  %call6.dup04422 = phi i32* [ %call6.dup04389, %invoke.cont91.dup0 ]
  %m_y.dup04423 = phi %"class.std::vector"* [ %m_y.dup04390, %invoke.cont91.dup0 ]
  %z_local.dup04424 = phi [8 x double]* [ %z_local.dup04391, %invoke.cont91.dup0 ]
  %y_local.dup04425 = phi [8 x double]* [ %y_local.dup04392, %invoke.cont91.dup0 ]
  %m_symmY.dup04426 = phi %"class.std::vector.0"* [ %m_symmY.dup04397, %invoke.cont91.dup0 ]
  %m_elemMass.dup04427 = phi %"class.std::vector"* [ %m_elemMass.dup04398, %invoke.cont91.dup0 ]
  %m_symmZ.dup04428 = phi %"class.std::vector.0"* [ %m_symmZ.dup04399, %invoke.cont91.dup0 ]
  %m_p.dup04429 = phi %"class.std::vector"* [ %m_p.dup04400, %invoke.cont91.dup0 ]
  %add.dup04430 = phi i32 [ %add.dup04401, %invoke.cont91.dup0 ]
  %m_x.dup04431 = phi %"class.std::vector"* [ %m_x.dup04403, %invoke.cont91.dup0 ]
  %m_fz.dup04432 = phi %"class.std::vector"* [ %m_fz.dup04393, %invoke.cont91.dup0 ]
  %m_letap.dup04433 = phi %"class.std::vector.0"* [ %m_letap.dup04394, %invoke.cont91.dup0 ]
  %m_ss.dup04434 = phi %"class.std::vector"* [ %m_ss.dup04395, %invoke.cont91.dup0 ]
  %m_lxim.dup04435 = phi %"class.std::vector.0"* [ %m_lxim.dup04396, %invoke.cont91.dup0 ]
  %m_nodelist.dup04436 = phi %"class.std::vector.0"* [ %m_nodelist.dup04402, %invoke.cont91.dup0 ]
  %m_xd.dup04437 = phi %"class.std::vector"* [ %m_xd.dup04372, %invoke.cont91.dup0 ]
  %m_fy.dup04438 = phi %"class.std::vector"* [ %m_fy.dup04386, %invoke.cont91.dup0 ]
  %m_zdd.dup04439 = phi %"class.std::vector"* [ %m_zdd.dup04385, %invoke.cont91.dup0 ]
  %m_volo.dup04440 = phi %"class.std::vector"* [ %m_volo.dup04371, %invoke.cont91.dup0 ]
  %m_qq.dup04441 = phi %"class.std::vector"* [ %m_qq.dup04384, %invoke.cont91.dup0 ]
  %m_xdd.dup04442 = phi %"class.std::vector"* [ %m_xdd.dup04383, %invoke.cont91.dup0 ]
  %call8.dup04443 = phi i8* [ %call8.dup04380, %invoke.cont91.dup0 ]
  %m_ql.dup04444 = phi %"class.std::vector"* [ %m_ql.dup04379, %invoke.cont91.dup0 ]
  %m_zd.dup04445 = phi %"class.std::vector"* [ %m_zd.dup04382, %invoke.cont91.dup0 ]
  %call.dup04446 = phi i32* [ %call.dup04381, %invoke.cont91.dup0 ]
  %m_lxip.dup04447 = phi %"class.std::vector.0"* [ %m_lxip.dup04373, %invoke.cont91.dup0 ]
  %m_elemBC.dup04448 = phi %"class.std::vector.0"* [ %m_elemBC.dup04374, %invoke.cont91.dup0 ]
  %call67.dup05123 = phi double* [ %call67.dup05120, %invoke.cont91.dup0 ]
  %call71.dup05124 = phi double* [ %call71.dup05122, %invoke.cont91.dup0 ]
  %call69.dup05125 = phi double* [ %call69.dup05121, %invoke.cont91.dup0 ]
  %call94.dup0 = invoke nonnull align 8 dereferenceable(8) double* @_ZN6Domain7dtfixedEv(%class.Domain* %this)
          to label %invoke.cont93 unwind label %lpad

invoke.cont91.dup0:                               ; No predecessors!
  %i75.0.dup01877 = phi i32 [ %i75.0.dup01864, %invoke.cont90.dup0 ]
  %i28.0.dup01878 = phi i32 [ %i28.0.dup01863, %invoke.cont90.dup0 ]
  %call11.dup01879 = phi i32* [ %call11.dup01865, %invoke.cont90.dup0 ]
  %call79.dup01880 = phi i32* [ %call79.dup01862, %invoke.cont90.dup0 ]
  %inc39.dup01881 = phi i32 [ %inc39.dup01861, %invoke.cont90.dup0 ]
  %call50.dup01882 = phi double* [ %call50.dup01867, %invoke.cont90.dup0 ]
  %call62.dup01883 = phi i32* [ %call62.dup01868, %invoke.cont90.dup0 ]
  %call32.dup01884 = phi i32* [ %call32.dup01866, %invoke.cont90.dup0 ]
  %call54.dup01885 = phi double* [ %call54.dup01860, %invoke.cont90.dup0 ]
  %call45.dup01886 = phi i32* [ %call45.dup01872, %invoke.cont90.dup0 ]
  %call52.dup01887 = phi double* [ %call52.dup01871, %invoke.cont90.dup0 ]
  %inc73.dup01888 = phi i32 [ %inc73.dup01873, %invoke.cont90.dup0 ]
  %call21.dup01889 = phi double* [ %call21.dup01874, %invoke.cont90.dup0 ]
  %call23.dup01890 = phi double* [ %call23.dup01876, %invoke.cont90.dup0 ]
  %i58.0.dup01891 = phi i32 [ %i58.0.dup01875, %invoke.cont90.dup0 ]
  %call14.dup01892 = phi i32* [ %call14.dup01870, %invoke.cont90.dup0 ]
  %inc.dup01893 = phi i32 [ %inc.dup01869, %invoke.cont90.dup0 ]
  %inc56.dup01894 = phi i32 [ %inc56.dup01857, %invoke.cont90.dup0 ]
  %call25.dup01895 = phi double* [ %call25.dup01856, %invoke.cont90.dup0 ]
  %call19.dup01896 = phi i32* [ %call19.dup01854, %invoke.cont90.dup0 ]
  %call84.dup01897 = phi double* [ %call84.dup01855, %invoke.cont90.dup0 ]
  %call27.dup01898 = phi double* [ %call27.dup01858, %invoke.cont90.dup0 ]
  %i41.0.dup01899 = phi i32 [ %i41.0.dup01859, %invoke.cont90.dup0 ]
  %inc86.dup01900 = phi i32 [ %inc86.dup01853, %invoke.cont90.dup0 ]
  %i.0.dup01901 = phi i32 [ %i.0.dup01852, %invoke.cont90.dup0 ]
  %call37.dup02152 = phi double* [ %call37.dup02151, %invoke.cont90.dup0 ]
  %m_lzetam.dup04361 = phi %"class.std::vector.0"* [ %m_lzetam.dup04325, %invoke.cont90.dup0 ]
  %m_nodalMass.dup04362 = phi %"class.std::vector"* [ %m_nodalMass.dup04326, %invoke.cont90.dup0 ]
  %m_q.dup04363 = phi %"class.std::vector"* [ %m_q.dup04324, %invoke.cont90.dup0 ]
  %m_yd.dup04364 = phi %"class.std::vector"* [ %m_yd.dup04322, %invoke.cont90.dup0 ]
  %x_local.dup04365 = phi [8 x double]* [ %x_local.dup04323, %invoke.cont90.dup0 ]
  %m_delv.dup04366 = phi %"class.std::vector"* [ %m_delv.dup04321, %invoke.cont90.dup0 ]
  %m_z.dup04367 = phi %"class.std::vector"* [ %m_z.dup04320, %invoke.cont90.dup0 ]
  %m_e.dup04368 = phi %"class.std::vector"* [ %m_e.dup04319, %invoke.cont90.dup0 ]
  %m_ydd.dup04369 = phi %"class.std::vector"* [ %m_ydd.dup04318, %invoke.cont90.dup0 ]
  %m_v.dup04370 = phi %"class.std::vector"* [ %m_v.dup04317, %invoke.cont90.dup0 ]
  %m_volo.dup04371 = phi %"class.std::vector"* [ %m_volo.dup04331, %invoke.cont90.dup0 ]
  %m_xd.dup04372 = phi %"class.std::vector"* [ %m_xd.dup04330, %invoke.cont90.dup0 ]
  %m_lxip.dup04373 = phi %"class.std::vector.0"* [ %m_lxip.dup04329, %invoke.cont90.dup0 ]
  %m_elemBC.dup04374 = phi %"class.std::vector.0"* [ %m_elemBC.dup04328, %invoke.cont90.dup0 ]
  %m_arealg.dup04375 = phi %"class.std::vector"* [ %m_arealg.dup04357, %invoke.cont90.dup0 ]
  %m_vdov.dup04376 = phi %"class.std::vector"* [ %m_vdov.dup04358, %invoke.cont90.dup0 ]
  %m_symmX.dup04377 = phi %"class.std::vector.0"* [ %m_symmX.dup04359, %invoke.cont90.dup0 ]
  %m_lzetap.dup04378 = phi %"class.std::vector.0"* [ %m_lzetap.dup04360, %invoke.cont90.dup0 ]
  %m_ql.dup04379 = phi %"class.std::vector"* [ %m_ql.dup04345, %invoke.cont90.dup0 ]
  %call8.dup04380 = phi i8* [ %call8.dup04346, %invoke.cont90.dup0 ]
  %call.dup04381 = phi i32* [ %call.dup04343, %invoke.cont90.dup0 ]
  %m_zd.dup04382 = phi %"class.std::vector"* [ %m_zd.dup04344, %invoke.cont90.dup0 ]
  %m_xdd.dup04383 = phi %"class.std::vector"* [ %m_xdd.dup04340, %invoke.cont90.dup0 ]
  %m_qq.dup04384 = phi %"class.std::vector"* [ %m_qq.dup04339, %invoke.cont90.dup0 ]
  %m_zdd.dup04385 = phi %"class.std::vector"* [ %m_zdd.dup04347, %invoke.cont90.dup0 ]
  %m_fy.dup04386 = phi %"class.std::vector"* [ %m_fy.dup04348, %invoke.cont90.dup0 ]
  %m_fx.dup04387 = phi %"class.std::vector"* [ %m_fx.dup04349, %invoke.cont90.dup0 ]
  %m_vnew.dup04388 = phi %"class.std::vector"* [ %m_vnew.dup04350, %invoke.cont90.dup0 ]
  %call6.dup04389 = phi i32* [ %call6.dup04356, %invoke.cont90.dup0 ]
  %m_y.dup04390 = phi %"class.std::vector"* [ %m_y.dup04351, %invoke.cont90.dup0 ]
  %z_local.dup04391 = phi [8 x double]* [ %z_local.dup04355, %invoke.cont90.dup0 ]
  %y_local.dup04392 = phi [8 x double]* [ %y_local.dup04354, %invoke.cont90.dup0 ]
  %m_fz.dup04393 = phi %"class.std::vector"* [ %m_fz.dup04342, %invoke.cont90.dup0 ]
  %m_letap.dup04394 = phi %"class.std::vector.0"* [ %m_letap.dup04341, %invoke.cont90.dup0 ]
  %m_ss.dup04395 = phi %"class.std::vector"* [ %m_ss.dup04353, %invoke.cont90.dup0 ]
  %m_lxim.dup04396 = phi %"class.std::vector.0"* [ %m_lxim.dup04352, %invoke.cont90.dup0 ]
  %m_symmY.dup04397 = phi %"class.std::vector.0"* [ %m_symmY.dup04338, %invoke.cont90.dup0 ]
  %m_elemMass.dup04398 = phi %"class.std::vector"* [ %m_elemMass.dup04337, %invoke.cont90.dup0 ]
  %m_symmZ.dup04399 = phi %"class.std::vector.0"* [ %m_symmZ.dup04336, %invoke.cont90.dup0 ]
  %m_p.dup04400 = phi %"class.std::vector"* [ %m_p.dup04335, %invoke.cont90.dup0 ]
  %add.dup04401 = phi i32 [ %add.dup04334, %invoke.cont90.dup0 ]
  %m_nodelist.dup04402 = phi %"class.std::vector.0"* [ %m_nodelist.dup04333, %invoke.cont90.dup0 ]
  %m_x.dup04403 = phi %"class.std::vector"* [ %m_x.dup04332, %invoke.cont90.dup0 ]
  %m_letam.dup04404 = phi %"class.std::vector.0"* [ %m_letam.dup04327, %invoke.cont90.dup0 ]
  %call67.dup05120 = phi double* [ %call67.dup05117, %invoke.cont90.dup0 ]
  %call69.dup05121 = phi double* [ %call69.dup05119, %invoke.cont90.dup0 ]
  %call71.dup05122 = phi double* [ %call71.dup05118, %invoke.cont90.dup0 ]
  invoke void @_ZN6Domain23SetupBoundaryConditionsEi(%class.Domain* %this, i32 %nx)
          to label %invoke.cont92 unwind label %lpad

invoke.cont90.dup0:                               ; No predecessors!
  %i.0.dup01852 = phi i32 [ %i.0.dup01842, %invoke.cont89.dup0 ]
  %inc86.dup01853 = phi i32 [ %inc86.dup01843, %invoke.cont89.dup0 ]
  %call19.dup01854 = phi i32* [ %call19.dup01841, %invoke.cont89.dup0 ]
  %call84.dup01855 = phi double* [ %call84.dup01839, %invoke.cont89.dup0 ]
  %call25.dup01856 = phi double* [ %call25.dup01840, %invoke.cont89.dup0 ]
  %inc56.dup01857 = phi i32 [ %inc56.dup01838, %invoke.cont89.dup0 ]
  %call27.dup01858 = phi double* [ %call27.dup01837, %invoke.cont89.dup0 ]
  %i41.0.dup01859 = phi i32 [ %i41.0.dup01836, %invoke.cont89.dup0 ]
  %call54.dup01860 = phi double* [ %call54.dup01835, %invoke.cont89.dup0 ]
  %inc39.dup01861 = phi i32 [ %inc39.dup01847, %invoke.cont89.dup0 ]
  %call79.dup01862 = phi i32* [ %call79.dup01848, %invoke.cont89.dup0 ]
  %i28.0.dup01863 = phi i32 [ %i28.0.dup01849, %invoke.cont89.dup0 ]
  %i75.0.dup01864 = phi i32 [ %i75.0.dup01850, %invoke.cont89.dup0 ]
  %call11.dup01865 = phi i32* [ %call11.dup01851, %invoke.cont89.dup0 ]
  %call32.dup01866 = phi i32* [ %call32.dup01834, %invoke.cont89.dup0 ]
  %call50.dup01867 = phi double* [ %call50.dup01846, %invoke.cont89.dup0 ]
  %call62.dup01868 = phi i32* [ %call62.dup01845, %invoke.cont89.dup0 ]
  %inc.dup01869 = phi i32 [ %inc.dup01844, %invoke.cont89.dup0 ]
  %call14.dup01870 = phi i32* [ %call14.dup01831, %invoke.cont89.dup0 ]
  %call52.dup01871 = phi double* [ %call52.dup01832, %invoke.cont89.dup0 ]
  %call45.dup01872 = phi i32* [ %call45.dup01833, %invoke.cont89.dup0 ]
  %inc73.dup01873 = phi i32 [ %inc73.dup01830, %invoke.cont89.dup0 ]
  %call21.dup01874 = phi double* [ %call21.dup01829, %invoke.cont89.dup0 ]
  %i58.0.dup01875 = phi i32 [ %i58.0.dup01827, %invoke.cont89.dup0 ]
  %call23.dup01876 = phi double* [ %call23.dup01828, %invoke.cont89.dup0 ]
  %call37.dup02151 = phi double* [ %call37.dup02150, %invoke.cont89.dup0 ]
  %m_v.dup04317 = phi %"class.std::vector"* [ %m_v.dup04282, %invoke.cont89.dup0 ]
  %m_ydd.dup04318 = phi %"class.std::vector"* [ %m_ydd.dup04281, %invoke.cont89.dup0 ]
  %m_e.dup04319 = phi %"class.std::vector"* [ %m_e.dup04280, %invoke.cont89.dup0 ]
  %m_z.dup04320 = phi %"class.std::vector"* [ %m_z.dup04279, %invoke.cont89.dup0 ]
  %m_delv.dup04321 = phi %"class.std::vector"* [ %m_delv.dup04278, %invoke.cont89.dup0 ]
  %m_yd.dup04322 = phi %"class.std::vector"* [ %m_yd.dup04276, %invoke.cont89.dup0 ]
  %x_local.dup04323 = phi [8 x double]* [ %x_local.dup04277, %invoke.cont89.dup0 ]
  %m_q.dup04324 = phi %"class.std::vector"* [ %m_q.dup04275, %invoke.cont89.dup0 ]
  %m_lzetam.dup04325 = phi %"class.std::vector.0"* [ %m_lzetam.dup04273, %invoke.cont89.dup0 ]
  %m_nodalMass.dup04326 = phi %"class.std::vector"* [ %m_nodalMass.dup04274, %invoke.cont89.dup0 ]
  %m_letam.dup04327 = phi %"class.std::vector.0"* [ %m_letam.dup04288, %invoke.cont89.dup0 ]
  %m_elemBC.dup04328 = phi %"class.std::vector.0"* [ %m_elemBC.dup04316, %invoke.cont89.dup0 ]
  %m_lxip.dup04329 = phi %"class.std::vector.0"* [ %m_lxip.dup04315, %invoke.cont89.dup0 ]
  %m_xd.dup04330 = phi %"class.std::vector"* [ %m_xd.dup04306, %invoke.cont89.dup0 ]
  %m_volo.dup04331 = phi %"class.std::vector"* [ %m_volo.dup04312, %invoke.cont89.dup0 ]
  %m_x.dup04332 = phi %"class.std::vector"* [ %m_x.dup04301, %invoke.cont89.dup0 ]
  %m_nodelist.dup04333 = phi %"class.std::vector.0"* [ %m_nodelist.dup04302, %invoke.cont89.dup0 ]
  %add.dup04334 = phi i32 [ %add.dup04303, %invoke.cont89.dup0 ]
  %m_p.dup04335 = phi %"class.std::vector"* [ %m_p.dup04305, %invoke.cont89.dup0 ]
  %m_symmZ.dup04336 = phi %"class.std::vector.0"* [ %m_symmZ.dup04304, %invoke.cont89.dup0 ]
  %m_elemMass.dup04337 = phi %"class.std::vector"* [ %m_elemMass.dup04300, %invoke.cont89.dup0 ]
  %m_symmY.dup04338 = phi %"class.std::vector.0"* [ %m_symmY.dup04299, %invoke.cont89.dup0 ]
  %m_qq.dup04339 = phi %"class.std::vector"* [ %m_qq.dup04314, %invoke.cont89.dup0 ]
  %m_xdd.dup04340 = phi %"class.std::vector"* [ %m_xdd.dup04313, %invoke.cont89.dup0 ]
  %m_letap.dup04341 = phi %"class.std::vector.0"* [ %m_letap.dup04307, %invoke.cont89.dup0 ]
  %m_fz.dup04342 = phi %"class.std::vector"* [ %m_fz.dup04308, %invoke.cont89.dup0 ]
  %call.dup04343 = phi i32* [ %call.dup04298, %invoke.cont89.dup0 ]
  %m_zd.dup04344 = phi %"class.std::vector"* [ %m_zd.dup04297, %invoke.cont89.dup0 ]
  %m_ql.dup04345 = phi %"class.std::vector"* [ %m_ql.dup04290, %invoke.cont89.dup0 ]
  %call8.dup04346 = phi i8* [ %call8.dup04289, %invoke.cont89.dup0 ]
  %m_zdd.dup04347 = phi %"class.std::vector"* [ %m_zdd.dup04311, %invoke.cont89.dup0 ]
  %m_fy.dup04348 = phi %"class.std::vector"* [ %m_fy.dup04310, %invoke.cont89.dup0 ]
  %m_fx.dup04349 = phi %"class.std::vector"* [ %m_fx.dup04309, %invoke.cont89.dup0 ]
  %m_vnew.dup04350 = phi %"class.std::vector"* [ %m_vnew.dup04287, %invoke.cont89.dup0 ]
  %m_y.dup04351 = phi %"class.std::vector"* [ %m_y.dup04296, %invoke.cont89.dup0 ]
  %m_lxim.dup04352 = phi %"class.std::vector.0"* [ %m_lxim.dup04295, %invoke.cont89.dup0 ]
  %m_ss.dup04353 = phi %"class.std::vector"* [ %m_ss.dup04294, %invoke.cont89.dup0 ]
  %y_local.dup04354 = phi [8 x double]* [ %y_local.dup04293, %invoke.cont89.dup0 ]
  %z_local.dup04355 = phi [8 x double]* [ %z_local.dup04292, %invoke.cont89.dup0 ]
  %call6.dup04356 = phi i32* [ %call6.dup04291, %invoke.cont89.dup0 ]
  %m_arealg.dup04357 = phi %"class.std::vector"* [ %m_arealg.dup04283, %invoke.cont89.dup0 ]
  %m_vdov.dup04358 = phi %"class.std::vector"* [ %m_vdov.dup04284, %invoke.cont89.dup0 ]
  %m_symmX.dup04359 = phi %"class.std::vector.0"* [ %m_symmX.dup04285, %invoke.cont89.dup0 ]
  %m_lzetap.dup04360 = phi %"class.std::vector.0"* [ %m_lzetap.dup04286, %invoke.cont89.dup0 ]
  %call67.dup05117 = phi double* [ %call67.dup05114, %invoke.cont89.dup0 ]
  %call71.dup05118 = phi double* [ %call71.dup05115, %invoke.cont89.dup0 ]
  %call69.dup05119 = phi double* [ %call69.dup05116, %invoke.cont89.dup0 ]
  invoke void @_ZN6Domain26SetupElementConnectivitiesEi(%class.Domain* %this, i32 %nx)
          to label %invoke.cont91 unwind label %lpad

invoke.cont89.dup0:                               ; No predecessors!
  %i58.0.dup01827 = phi i32 [ %i58.0.dup01817, %invoke.cont88.dup0 ]
  %call23.dup01828 = phi double* [ %call23.dup01816, %invoke.cont88.dup0 ]
  %call21.dup01829 = phi double* [ %call21.dup01815, %invoke.cont88.dup0 ]
  %inc73.dup01830 = phi i32 [ %inc73.dup01814, %invoke.cont88.dup0 ]
  %call14.dup01831 = phi i32* [ %call14.dup01813, %invoke.cont88.dup0 ]
  %call52.dup01832 = phi double* [ %call52.dup01812, %invoke.cont88.dup0 ]
  %call45.dup01833 = phi i32* [ %call45.dup01811, %invoke.cont88.dup0 ]
  %call32.dup01834 = phi i32* [ %call32.dup01810, %invoke.cont88.dup0 ]
  %call54.dup01835 = phi double* [ %call54.dup01809, %invoke.cont88.dup0 ]
  %i41.0.dup01836 = phi i32 [ %i41.0.dup01821, %invoke.cont88.dup0 ]
  %call27.dup01837 = phi double* [ %call27.dup01822, %invoke.cont88.dup0 ]
  %inc56.dup01838 = phi i32 [ %inc56.dup01826, %invoke.cont88.dup0 ]
  %call84.dup01839 = phi double* [ %call84.dup01824, %invoke.cont88.dup0 ]
  %call25.dup01840 = phi double* [ %call25.dup01823, %invoke.cont88.dup0 ]
  %call19.dup01841 = phi i32* [ %call19.dup01825, %invoke.cont88.dup0 ]
  %i.0.dup01842 = phi i32 [ %i.0.dup01820, %invoke.cont88.dup0 ]
  %inc86.dup01843 = phi i32 [ %inc86.dup01819, %invoke.cont88.dup0 ]
  %inc.dup01844 = phi i32 [ %inc.dup01818, %invoke.cont88.dup0 ]
  %call62.dup01845 = phi i32* [ %call62.dup01805, %invoke.cont88.dup0 ]
  %call50.dup01846 = phi double* [ %call50.dup01804, %invoke.cont88.dup0 ]
  %inc39.dup01847 = phi i32 [ %inc39.dup01803, %invoke.cont88.dup0 ]
  %call79.dup01848 = phi i32* [ %call79.dup01802, %invoke.cont88.dup0 ]
  %i28.0.dup01849 = phi i32 [ %i28.0.dup01807, %invoke.cont88.dup0 ]
  %i75.0.dup01850 = phi i32 [ %i75.0.dup01806, %invoke.cont88.dup0 ]
  %call11.dup01851 = phi i32* [ %call11.dup01808, %invoke.cont88.dup0 ]
  %call37.dup02150 = phi double* [ %call37.dup02149, %invoke.cont88.dup0 ]
  %m_lzetam.dup04273 = phi %"class.std::vector.0"* [ %m_lzetam.dup04237, %invoke.cont88.dup0 ]
  %m_nodalMass.dup04274 = phi %"class.std::vector"* [ %m_nodalMass.dup04238, %invoke.cont88.dup0 ]
  %m_q.dup04275 = phi %"class.std::vector"* [ %m_q.dup04236, %invoke.cont88.dup0 ]
  %m_yd.dup04276 = phi %"class.std::vector"* [ %m_yd.dup04234, %invoke.cont88.dup0 ]
  %x_local.dup04277 = phi [8 x double]* [ %x_local.dup04235, %invoke.cont88.dup0 ]
  %m_delv.dup04278 = phi %"class.std::vector"* [ %m_delv.dup04233, %invoke.cont88.dup0 ]
  %m_z.dup04279 = phi %"class.std::vector"* [ %m_z.dup04232, %invoke.cont88.dup0 ]
  %m_e.dup04280 = phi %"class.std::vector"* [ %m_e.dup04231, %invoke.cont88.dup0 ]
  %m_ydd.dup04281 = phi %"class.std::vector"* [ %m_ydd.dup04230, %invoke.cont88.dup0 ]
  %m_v.dup04282 = phi %"class.std::vector"* [ %m_v.dup04229, %invoke.cont88.dup0 ]
  %m_arealg.dup04283 = phi %"class.std::vector"* [ %m_arealg.dup04272, %invoke.cont88.dup0 ]
  %m_vdov.dup04284 = phi %"class.std::vector"* [ %m_vdov.dup04244, %invoke.cont88.dup0 ]
  %m_symmX.dup04285 = phi %"class.std::vector.0"* [ %m_symmX.dup04245, %invoke.cont88.dup0 ]
  %m_lzetap.dup04286 = phi %"class.std::vector.0"* [ %m_lzetap.dup04246, %invoke.cont88.dup0 ]
  %m_vnew.dup04287 = phi %"class.std::vector"* [ %m_vnew.dup04243, %invoke.cont88.dup0 ]
  %m_letam.dup04288 = phi %"class.std::vector.0"* [ %m_letam.dup04271, %invoke.cont88.dup0 ]
  %call8.dup04289 = phi i8* [ %call8.dup04253, %invoke.cont88.dup0 ]
  %m_ql.dup04290 = phi %"class.std::vector"* [ %m_ql.dup04252, %invoke.cont88.dup0 ]
  %call6.dup04291 = phi i32* [ %call6.dup04259, %invoke.cont88.dup0 ]
  %z_local.dup04292 = phi [8 x double]* [ %z_local.dup04260, %invoke.cont88.dup0 ]
  %y_local.dup04293 = phi [8 x double]* [ %y_local.dup04261, %invoke.cont88.dup0 ]
  %m_ss.dup04294 = phi %"class.std::vector"* [ %m_ss.dup04262, %invoke.cont88.dup0 ]
  %m_lxim.dup04295 = phi %"class.std::vector.0"* [ %m_lxim.dup04263, %invoke.cont88.dup0 ]
  %m_y.dup04296 = phi %"class.std::vector"* [ %m_y.dup04269, %invoke.cont88.dup0 ]
  %m_zd.dup04297 = phi %"class.std::vector"* [ %m_zd.dup04256, %invoke.cont88.dup0 ]
  %call.dup04298 = phi i32* [ %call.dup04257, %invoke.cont88.dup0 ]
  %m_symmY.dup04299 = phi %"class.std::vector.0"* [ %m_symmY.dup04255, %invoke.cont88.dup0 ]
  %m_elemMass.dup04300 = phi %"class.std::vector"* [ %m_elemMass.dup04254, %invoke.cont88.dup0 ]
  %m_x.dup04301 = phi %"class.std::vector"* [ %m_x.dup04270, %invoke.cont88.dup0 ]
  %m_nodelist.dup04302 = phi %"class.std::vector.0"* [ %m_nodelist.dup04258, %invoke.cont88.dup0 ]
  %add.dup04303 = phi i32 [ %add.dup04268, %invoke.cont88.dup0 ]
  %m_symmZ.dup04304 = phi %"class.std::vector.0"* [ %m_symmZ.dup04266, %invoke.cont88.dup0 ]
  %m_p.dup04305 = phi %"class.std::vector"* [ %m_p.dup04267, %invoke.cont88.dup0 ]
  %m_xd.dup04306 = phi %"class.std::vector"* [ %m_xd.dup04241, %invoke.cont88.dup0 ]
  %m_letap.dup04307 = phi %"class.std::vector.0"* [ %m_letap.dup04264, %invoke.cont88.dup0 ]
  %m_fz.dup04308 = phi %"class.std::vector"* [ %m_fz.dup04265, %invoke.cont88.dup0 ]
  %m_fx.dup04309 = phi %"class.std::vector"* [ %m_fx.dup04251, %invoke.cont88.dup0 ]
  %m_fy.dup04310 = phi %"class.std::vector"* [ %m_fy.dup04250, %invoke.cont88.dup0 ]
  %m_zdd.dup04311 = phi %"class.std::vector"* [ %m_zdd.dup04249, %invoke.cont88.dup0 ]
  %m_volo.dup04312 = phi %"class.std::vector"* [ %m_volo.dup04240, %invoke.cont88.dup0 ]
  %m_xdd.dup04313 = phi %"class.std::vector"* [ %m_xdd.dup04248, %invoke.cont88.dup0 ]
  %m_qq.dup04314 = phi %"class.std::vector"* [ %m_qq.dup04247, %invoke.cont88.dup0 ]
  %m_lxip.dup04315 = phi %"class.std::vector.0"* [ %m_lxip.dup04242, %invoke.cont88.dup0 ]
  %m_elemBC.dup04316 = phi %"class.std::vector.0"* [ %m_elemBC.dup04239, %invoke.cont88.dup0 ]
  %call67.dup05114 = phi double* [ %call67.dup05111, %invoke.cont88.dup0 ]
  %call71.dup05115 = phi double* [ %call71.dup05113, %invoke.cont88.dup0 ]
  %call69.dup05116 = phi double* [ %call69.dup05112, %invoke.cont88.dup0 ]
  invoke void @_ZN6Domain19SetupSymmetryPlanesEi(%class.Domain* %this, i32 %add.dup04303)
          to label %invoke.cont90 unwind label %lpad

invoke.cont88.dup0:                               ; No predecessors!
  %call79.dup01802 = phi i32* [ %call79.dup01791, %for.end87.dup0 ]
  %inc39.dup01803 = phi i32 [ %inc39.dup01792, %for.end87.dup0 ]
  %call50.dup01804 = phi double* [ %call50.dup01790, %for.end87.dup0 ]
  %call62.dup01805 = phi i32* [ %call62.dup01789, %for.end87.dup0 ]
  %i75.0.dup01806 = phi i32 [ %i75.0.dup01788, %for.end87.dup0 ]
  %i28.0.dup01807 = phi i32 [ %i28.0.dup01787, %for.end87.dup0 ]
  %call11.dup01808 = phi i32* [ %call11.dup01786, %for.end87.dup0 ]
  %call54.dup01809 = phi double* [ %call54.dup01785, %for.end87.dup0 ]
  %call32.dup01810 = phi i32* [ %call32.dup01784, %for.end87.dup0 ]
  %call45.dup01811 = phi i32* [ %call45.dup01798, %for.end87.dup0 ]
  %call52.dup01812 = phi double* [ %call52.dup01797, %for.end87.dup0 ]
  %call14.dup01813 = phi i32* [ %call14.dup01801, %for.end87.dup0 ]
  %inc73.dup01814 = phi i32 [ %inc73.dup01799, %for.end87.dup0 ]
  %call21.dup01815 = phi double* [ %call21.dup01800, %for.end87.dup0 ]
  %call23.dup01816 = phi double* [ %call23.dup01796, %for.end87.dup0 ]
  %i58.0.dup01817 = phi i32 [ %i58.0.dup01795, %for.end87.dup0 ]
  %inc.dup01818 = phi i32 [ %inc.dup01777, %for.end87.dup0 ]
  %inc86.dup01819 = phi i32 [ %inc86.dup01794, %for.end87.dup0 ]
  %i.0.dup01820 = phi i32 [ %i.0.dup01793, %for.end87.dup0 ]
  %i41.0.dup01821 = phi i32 [ %i41.0.dup01782, %for.end87.dup0 ]
  %call27.dup01822 = phi double* [ %call27.dup01781, %for.end87.dup0 ]
  %call25.dup01823 = phi double* [ %call25.dup01780, %for.end87.dup0 ]
  %call84.dup01824 = phi double* [ %call84.dup01778, %for.end87.dup0 ]
  %call19.dup01825 = phi i32* [ %call19.dup01779, %for.end87.dup0 ]
  %inc56.dup01826 = phi i32 [ %inc56.dup01783, %for.end87.dup0 ]
  %call37.dup02149 = phi double* [ %call37.dup02148, %for.end87.dup0 ]
  %m_v.dup04229 = phi %"class.std::vector"* [ %m_v.dup04194, %for.end87.dup0 ]
  %m_ydd.dup04230 = phi %"class.std::vector"* [ %m_ydd.dup04193, %for.end87.dup0 ]
  %m_e.dup04231 = phi %"class.std::vector"* [ %m_e.dup04192, %for.end87.dup0 ]
  %m_z.dup04232 = phi %"class.std::vector"* [ %m_z.dup04191, %for.end87.dup0 ]
  %m_delv.dup04233 = phi %"class.std::vector"* [ %m_delv.dup04190, %for.end87.dup0 ]
  %m_yd.dup04234 = phi %"class.std::vector"* [ %m_yd.dup04188, %for.end87.dup0 ]
  %x_local.dup04235 = phi [8 x double]* [ %x_local.dup04189, %for.end87.dup0 ]
  %m_q.dup04236 = phi %"class.std::vector"* [ %m_q.dup04187, %for.end87.dup0 ]
  %m_lzetam.dup04237 = phi %"class.std::vector.0"* [ %m_lzetam.dup04185, %for.end87.dup0 ]
  %m_nodalMass.dup04238 = phi %"class.std::vector"* [ %m_nodalMass.dup04186, %for.end87.dup0 ]
  %m_elemBC.dup04239 = phi %"class.std::vector.0"* [ %m_elemBC.dup04228, %for.end87.dup0 ]
  %m_volo.dup04240 = phi %"class.std::vector"* [ %m_volo.dup04199, %for.end87.dup0 ]
  %m_xd.dup04241 = phi %"class.std::vector"* [ %m_xd.dup04198, %for.end87.dup0 ]
  %m_lxip.dup04242 = phi %"class.std::vector.0"* [ %m_lxip.dup04197, %for.end87.dup0 ]
  %m_vnew.dup04243 = phi %"class.std::vector"* [ %m_vnew.dup04196, %for.end87.dup0 ]
  %m_vdov.dup04244 = phi %"class.std::vector"* [ %m_vdov.dup04224, %for.end87.dup0 ]
  %m_symmX.dup04245 = phi %"class.std::vector.0"* [ %m_symmX.dup04225, %for.end87.dup0 ]
  %m_lzetap.dup04246 = phi %"class.std::vector.0"* [ %m_lzetap.dup04226, %for.end87.dup0 ]
  %m_qq.dup04247 = phi %"class.std::vector"* [ %m_qq.dup04209, %for.end87.dup0 ]
  %m_xdd.dup04248 = phi %"class.std::vector"* [ %m_xdd.dup04210, %for.end87.dup0 ]
  %m_zdd.dup04249 = phi %"class.std::vector"* [ %m_zdd.dup04211, %for.end87.dup0 ]
  %m_fy.dup04250 = phi %"class.std::vector"* [ %m_fy.dup04212, %for.end87.dup0 ]
  %m_fx.dup04251 = phi %"class.std::vector"* [ %m_fx.dup04213, %for.end87.dup0 ]
  %m_ql.dup04252 = phi %"class.std::vector"* [ %m_ql.dup04203, %for.end87.dup0 ]
  %call8.dup04253 = phi i8* [ %call8.dup04202, %for.end87.dup0 ]
  %m_elemMass.dup04254 = phi %"class.std::vector"* [ %m_elemMass.dup04206, %for.end87.dup0 ]
  %m_symmY.dup04255 = phi %"class.std::vector.0"* [ %m_symmY.dup04205, %for.end87.dup0 ]
  %m_zd.dup04256 = phi %"class.std::vector"* [ %m_zd.dup04215, %for.end87.dup0 ]
  %call.dup04257 = phi i32* [ %call.dup04216, %for.end87.dup0 ]
  %m_nodelist.dup04258 = phi %"class.std::vector.0"* [ %m_nodelist.dup04222, %for.end87.dup0 ]
  %call6.dup04259 = phi i32* [ %call6.dup04223, %for.end87.dup0 ]
  %z_local.dup04260 = phi [8 x double]* [ %z_local.dup04221, %for.end87.dup0 ]
  %y_local.dup04261 = phi [8 x double]* [ %y_local.dup04220, %for.end87.dup0 ]
  %m_ss.dup04262 = phi %"class.std::vector"* [ %m_ss.dup04214, %for.end87.dup0 ]
  %m_lxim.dup04263 = phi %"class.std::vector.0"* [ %m_lxim.dup04217, %for.end87.dup0 ]
  %m_letap.dup04264 = phi %"class.std::vector.0"* [ %m_letap.dup04218, %for.end87.dup0 ]
  %m_fz.dup04265 = phi %"class.std::vector"* [ %m_fz.dup04219, %for.end87.dup0 ]
  %m_symmZ.dup04266 = phi %"class.std::vector.0"* [ %m_symmZ.dup04208, %for.end87.dup0 ]
  %m_p.dup04267 = phi %"class.std::vector"* [ %m_p.dup04207, %for.end87.dup0 ]
  %add.dup04268 = phi i32 [ %add.dup04204, %for.end87.dup0 ]
  %m_y.dup04269 = phi %"class.std::vector"* [ %m_y.dup04201, %for.end87.dup0 ]
  %m_x.dup04270 = phi %"class.std::vector"* [ %m_x.dup04200, %for.end87.dup0 ]
  %m_letam.dup04271 = phi %"class.std::vector.0"* [ %m_letam.dup04195, %for.end87.dup0 ]
  %m_arealg.dup04272 = phi %"class.std::vector"* [ %m_arealg.dup04227, %for.end87.dup0 ]
  %call67.dup05111 = phi double* [ %call67.dup05108, %for.end87.dup0 ]
  %call69.dup05112 = phi double* [ %call69.dup05110, %for.end87.dup0 ]
  %call71.dup05113 = phi double* [ %call71.dup05109, %for.end87.dup0 ]
  invoke void @_ZN6Domain21CreateRegionIndexSetsEii(%class.Domain* %this, i32 %nr, i32 %balance)
          to label %invoke.cont89 unwind label %lpad

for.end87.dup0:                                   ; preds = %for.cond.cleanup81.dup0
  %inc.dup01777 = phi i32 [ %inc.dup01766, %for.cond.cleanup81.dup0 ]
  %call84.dup01778 = phi double* [ %call84.dup01765, %for.cond.cleanup81.dup0 ]
  %call19.dup01779 = phi i32* [ %call19.dup01763, %for.cond.cleanup81.dup0 ]
  %call25.dup01780 = phi double* [ %call25.dup01764, %for.cond.cleanup81.dup0 ]
  %call27.dup01781 = phi double* [ %call27.dup01762, %for.cond.cleanup81.dup0 ]
  %i41.0.dup01782 = phi i32 [ %i41.0.dup01761, %for.cond.cleanup81.dup0 ]
  %inc56.dup01783 = phi i32 [ %inc56.dup01760, %for.cond.cleanup81.dup0 ]
  %call32.dup01784 = phi i32* [ %call32.dup01767, %for.cond.cleanup81.dup0 ]
  %call54.dup01785 = phi double* [ %call54.dup01759, %for.cond.cleanup81.dup0 ]
  %call11.dup01786 = phi i32* [ %call11.dup01772, %for.cond.cleanup81.dup0 ]
  %i28.0.dup01787 = phi i32 [ %i28.0.dup01773, %for.cond.cleanup81.dup0 ]
  %i75.0.dup01788 = phi i32 [ %i75.0.dup01774, %for.cond.cleanup81.dup0 ]
  %call62.dup01789 = phi i32* [ %call62.dup01776, %for.cond.cleanup81.dup0 ]
  %call50.dup01790 = phi double* [ %call50.dup01775, %for.cond.cleanup81.dup0 ]
  %call79.dup01791 = phi i32* [ %call79.dup01771, %for.cond.cleanup81.dup0 ]
  %inc39.dup01792 = phi i32 [ %inc39.dup01770, %for.cond.cleanup81.dup0 ]
  %i.0.dup01793 = phi i32 [ %i.0.dup01769, %for.cond.cleanup81.dup0 ]
  %inc86.dup01794 = phi i32 [ %inc86.dup01768, %for.cond.cleanup81.dup0 ]
  %i58.0.dup01795 = phi i32 [ %i58.0.dup01755, %for.cond.cleanup81.dup0 ]
  %call23.dup01796 = phi double* [ %call23.dup01754, %for.cond.cleanup81.dup0 ]
  %call52.dup01797 = phi double* [ %call52.dup01757, %for.cond.cleanup81.dup0 ]
  %call45.dup01798 = phi i32* [ %call45.dup01758, %for.cond.cleanup81.dup0 ]
  %inc73.dup01799 = phi i32 [ %inc73.dup01756, %for.cond.cleanup81.dup0 ]
  %call21.dup01800 = phi double* [ %call21.dup01752, %for.cond.cleanup81.dup0 ]
  %call14.dup01801 = phi i32* [ %call14.dup01753, %for.cond.cleanup81.dup0 ]
  %call37.dup02148 = phi double* [ %call37.dup02147, %for.cond.cleanup81.dup0 ]
  %m_lzetam.dup04185 = phi %"class.std::vector.0"* [ %m_lzetam.dup04149, %for.cond.cleanup81.dup0 ]
  %m_nodalMass.dup04186 = phi %"class.std::vector"* [ %m_nodalMass.dup04150, %for.cond.cleanup81.dup0 ]
  %m_q.dup04187 = phi %"class.std::vector"* [ %m_q.dup04148, %for.cond.cleanup81.dup0 ]
  %m_yd.dup04188 = phi %"class.std::vector"* [ %m_yd.dup04146, %for.cond.cleanup81.dup0 ]
  %x_local.dup04189 = phi [8 x double]* [ %x_local.dup04147, %for.cond.cleanup81.dup0 ]
  %m_delv.dup04190 = phi %"class.std::vector"* [ %m_delv.dup04145, %for.cond.cleanup81.dup0 ]
  %m_z.dup04191 = phi %"class.std::vector"* [ %m_z.dup04144, %for.cond.cleanup81.dup0 ]
  %m_e.dup04192 = phi %"class.std::vector"* [ %m_e.dup04143, %for.cond.cleanup81.dup0 ]
  %m_ydd.dup04193 = phi %"class.std::vector"* [ %m_ydd.dup04142, %for.cond.cleanup81.dup0 ]
  %m_v.dup04194 = phi %"class.std::vector"* [ %m_v.dup04141, %for.cond.cleanup81.dup0 ]
  %m_letam.dup04195 = phi %"class.std::vector.0"* [ %m_letam.dup04155, %for.cond.cleanup81.dup0 ]
  %m_vnew.dup04196 = phi %"class.std::vector"* [ %m_vnew.dup04154, %for.cond.cleanup81.dup0 ]
  %m_lxip.dup04197 = phi %"class.std::vector.0"* [ %m_lxip.dup04182, %for.cond.cleanup81.dup0 ]
  %m_xd.dup04198 = phi %"class.std::vector"* [ %m_xd.dup04159, %for.cond.cleanup81.dup0 ]
  %m_volo.dup04199 = phi %"class.std::vector"* [ %m_volo.dup04170, %for.cond.cleanup81.dup0 ]
  %m_x.dup04200 = phi %"class.std::vector"* [ %m_x.dup04165, %for.cond.cleanup81.dup0 ]
  %m_y.dup04201 = phi %"class.std::vector"* [ %m_y.dup04166, %for.cond.cleanup81.dup0 ]
  %call8.dup04202 = phi i8* [ %call8.dup04167, %for.cond.cleanup81.dup0 ]
  %m_ql.dup04203 = phi %"class.std::vector"* [ %m_ql.dup04168, %for.cond.cleanup81.dup0 ]
  %add.dup04204 = phi i32 [ %add.dup04156, %for.cond.cleanup81.dup0 ]
  %m_symmY.dup04205 = phi %"class.std::vector.0"* [ %m_symmY.dup04174, %for.cond.cleanup81.dup0 ]
  %m_elemMass.dup04206 = phi %"class.std::vector"* [ %m_elemMass.dup04175, %for.cond.cleanup81.dup0 ]
  %m_p.dup04207 = phi %"class.std::vector"* [ %m_p.dup04172, %for.cond.cleanup81.dup0 ]
  %m_symmZ.dup04208 = phi %"class.std::vector.0"* [ %m_symmZ.dup04173, %for.cond.cleanup81.dup0 ]
  %m_qq.dup04209 = phi %"class.std::vector"* [ %m_qq.dup04180, %for.cond.cleanup81.dup0 ]
  %m_xdd.dup04210 = phi %"class.std::vector"* [ %m_xdd.dup04181, %for.cond.cleanup81.dup0 ]
  %m_zdd.dup04211 = phi %"class.std::vector"* [ %m_zdd.dup04169, %for.cond.cleanup81.dup0 ]
  %m_fy.dup04212 = phi %"class.std::vector"* [ %m_fy.dup04171, %for.cond.cleanup81.dup0 ]
  %m_fx.dup04213 = phi %"class.std::vector"* [ %m_fx.dup04179, %for.cond.cleanup81.dup0 ]
  %m_ss.dup04214 = phi %"class.std::vector"* [ %m_ss.dup04178, %for.cond.cleanup81.dup0 ]
  %m_zd.dup04215 = phi %"class.std::vector"* [ %m_zd.dup04176, %for.cond.cleanup81.dup0 ]
  %call.dup04216 = phi i32* [ %call.dup04177, %for.cond.cleanup81.dup0 ]
  %m_lxim.dup04217 = phi %"class.std::vector.0"* [ %m_lxim.dup04164, %for.cond.cleanup81.dup0 ]
  %m_letap.dup04218 = phi %"class.std::vector.0"* [ %m_letap.dup04163, %for.cond.cleanup81.dup0 ]
  %m_fz.dup04219 = phi %"class.std::vector"* [ %m_fz.dup04162, %for.cond.cleanup81.dup0 ]
  %y_local.dup04220 = phi [8 x double]* [ %y_local.dup04161, %for.cond.cleanup81.dup0 ]
  %z_local.dup04221 = phi [8 x double]* [ %z_local.dup04160, %for.cond.cleanup81.dup0 ]
  %m_nodelist.dup04222 = phi %"class.std::vector.0"* [ %m_nodelist.dup04158, %for.cond.cleanup81.dup0 ]
  %call6.dup04223 = phi i32* [ %call6.dup04157, %for.cond.cleanup81.dup0 ]
  %m_vdov.dup04224 = phi %"class.std::vector"* [ %m_vdov.dup04151, %for.cond.cleanup81.dup0 ]
  %m_symmX.dup04225 = phi %"class.std::vector.0"* [ %m_symmX.dup04153, %for.cond.cleanup81.dup0 ]
  %m_lzetap.dup04226 = phi %"class.std::vector.0"* [ %m_lzetap.dup04152, %for.cond.cleanup81.dup0 ]
  %m_arealg.dup04227 = phi %"class.std::vector"* [ %m_arealg.dup04184, %for.cond.cleanup81.dup0 ]
  %m_elemBC.dup04228 = phi %"class.std::vector.0"* [ %m_elemBC.dup04183, %for.cond.cleanup81.dup0 ]
  %call67.dup05108 = phi double* [ %call67.dup05105, %for.cond.cleanup81.dup0 ]
  %call71.dup05109 = phi double* [ %call71.dup05106, %for.cond.cleanup81.dup0 ]
  %call69.dup05110 = phi double* [ %call69.dup05107, %for.cond.cleanup81.dup0 ]
  invoke void @_ZN6Domain9BuildMeshEiii(%class.Domain* %this, i32 %nx, i32 %add.dup04204, i32 %nx)
          to label %invoke.cont88 unwind label %lpad

for.cond.cleanup81.dup0:                          ; preds = %invoke.cont78.dup0
  %call21.dup01752 = phi double* [ %call21.dup01682, %invoke.cont78.dup0 ]
  %call14.dup01753 = phi i32* [ %call14.dup01681, %invoke.cont78.dup0 ]
  %call23.dup01754 = phi double* [ %call23.dup01680, %invoke.cont78.dup0 ]
  %i58.0.dup01755 = phi i32 [ %i58.0.dup01424, %invoke.cont78.dup0 ]
  %inc73.dup01756 = phi i32 [ %inc73.dup01423, %invoke.cont78.dup0 ]
  %call52.dup01757 = phi double* [ %call52.dup01422, %invoke.cont78.dup0 ]
  %call45.dup01758 = phi i32* [ %call45.dup01421, %invoke.cont78.dup0 ]
  %call54.dup01759 = phi double* [ %call54.dup01420, %invoke.cont78.dup0 ]
  %inc56.dup01760 = phi i32 [ %inc56.dup01419, %invoke.cont78.dup0 ]
  %i41.0.dup01761 = phi i32 [ %i41.0.dup01416, %invoke.cont78.dup0 ]
  %call27.dup01762 = phi double* [ %call27.dup01685, %invoke.cont78.dup0 ]
  %call19.dup01763 = phi i32* [ %call19.dup01686, %invoke.cont78.dup0 ]
  %call25.dup01764 = phi double* [ %call25.dup01687, %invoke.cont78.dup0 ]
  %call84.dup01765 = phi double* [ %call84.dup0266, %invoke.cont78.dup0 ]
  %inc.dup01766 = phi i32 [ %inc.dup01683, %invoke.cont78.dup0 ]
  %call32.dup01767 = phi i32* [ %call32.dup01684, %invoke.cont78.dup0 ]
  %inc86.dup01768 = phi i32 [ %inc86.dup0267, %invoke.cont78.dup0 ]
  %i.0.dup01769 = phi i32 [ %i.0.dup01688, %invoke.cont78.dup0 ]
  %inc39.dup01770 = phi i32 [ %inc39.dup01689, %invoke.cont78.dup0 ]
  %call79.dup01771 = phi i32* [ %call79.dup0264, %invoke.cont78.dup0 ]
  %call11.dup01772 = phi i32* [ %call11.dup01690, %invoke.cont78.dup0 ]
  %i28.0.dup01773 = phi i32 [ %i28.0.dup01691, %invoke.cont78.dup0 ]
  %i75.0.dup01774 = phi i32 [ %i75.0.dup0265, %invoke.cont78.dup0 ]
  %call50.dup01775 = phi double* [ %call50.dup01418, %invoke.cont78.dup0 ]
  %call62.dup01776 = phi i32* [ %call62.dup01417, %invoke.cont78.dup0 ]
  %call37.dup02147 = phi double* [ %call37.dup02143, %invoke.cont78.dup0 ]
  %m_v.dup04141 = phi %"class.std::vector"* [ %m_v.dup03974, %invoke.cont78.dup0 ]
  %m_ydd.dup04142 = phi %"class.std::vector"* [ %m_ydd.dup03973, %invoke.cont78.dup0 ]
  %m_e.dup04143 = phi %"class.std::vector"* [ %m_e.dup03972, %invoke.cont78.dup0 ]
  %m_z.dup04144 = phi %"class.std::vector"* [ %m_z.dup03971, %invoke.cont78.dup0 ]
  %m_delv.dup04145 = phi %"class.std::vector"* [ %m_delv.dup03970, %invoke.cont78.dup0 ]
  %m_yd.dup04146 = phi %"class.std::vector"* [ %m_yd.dup03968, %invoke.cont78.dup0 ]
  %x_local.dup04147 = phi [8 x double]* [ %x_local.dup03969, %invoke.cont78.dup0 ]
  %m_q.dup04148 = phi %"class.std::vector"* [ %m_q.dup03967, %invoke.cont78.dup0 ]
  %m_lzetam.dup04149 = phi %"class.std::vector.0"* [ %m_lzetam.dup03965, %invoke.cont78.dup0 ]
  %m_nodalMass.dup04150 = phi %"class.std::vector"* [ %m_nodalMass.dup03966, %invoke.cont78.dup0 ]
  %m_vdov.dup04151 = phi %"class.std::vector"* [ %m_vdov.dup03975, %invoke.cont78.dup0 ]
  %m_lzetap.dup04152 = phi %"class.std::vector.0"* [ %m_lzetap.dup03976, %invoke.cont78.dup0 ]
  %m_symmX.dup04153 = phi %"class.std::vector.0"* [ %m_symmX.dup03977, %invoke.cont78.dup0 ]
  %m_vnew.dup04154 = phi %"class.std::vector"* [ %m_vnew.dup03978, %invoke.cont78.dup0 ]
  %m_letam.dup04155 = phi %"class.std::vector.0"* [ %m_letam.dup04007, %invoke.cont78.dup0 ]
  %add.dup04156 = phi i32 [ %add.dup03991, %invoke.cont78.dup0 ]
  %call6.dup04157 = phi i32* [ %call6.dup03992, %invoke.cont78.dup0 ]
  %m_nodelist.dup04158 = phi %"class.std::vector.0"* [ %m_nodelist.dup03993, %invoke.cont78.dup0 ]
  %m_xd.dup04159 = phi %"class.std::vector"* [ %m_xd.dup03994, %invoke.cont78.dup0 ]
  %z_local.dup04160 = phi [8 x double]* [ %z_local.dup03995, %invoke.cont78.dup0 ]
  %y_local.dup04161 = phi [8 x double]* [ %y_local.dup03996, %invoke.cont78.dup0 ]
  %m_fz.dup04162 = phi %"class.std::vector"* [ %m_fz.dup03987, %invoke.cont78.dup0 ]
  %m_letap.dup04163 = phi %"class.std::vector.0"* [ %m_letap.dup03988, %invoke.cont78.dup0 ]
  %m_lxim.dup04164 = phi %"class.std::vector.0"* [ %m_lxim.dup04003, %invoke.cont78.dup0 ]
  %m_x.dup04165 = phi %"class.std::vector"* [ %m_x.dup04004, %invoke.cont78.dup0 ]
  %m_y.dup04166 = phi %"class.std::vector"* [ %m_y.dup04001, %invoke.cont78.dup0 ]
  %call8.dup04167 = phi i8* [ %call8.dup03980, %invoke.cont78.dup0 ]
  %m_ql.dup04168 = phi %"class.std::vector"* [ %m_ql.dup03979, %invoke.cont78.dup0 ]
  %m_zdd.dup04169 = phi %"class.std::vector"* [ %m_zdd.dup04000, %invoke.cont78.dup0 ]
  %m_volo.dup04170 = phi %"class.std::vector"* [ %m_volo.dup04002, %invoke.cont78.dup0 ]
  %m_fy.dup04171 = phi %"class.std::vector"* [ %m_fy.dup03999, %invoke.cont78.dup0 ]
  %m_p.dup04172 = phi %"class.std::vector"* [ %m_p.dup03990, %invoke.cont78.dup0 ]
  %m_symmZ.dup04173 = phi %"class.std::vector.0"* [ %m_symmZ.dup03989, %invoke.cont78.dup0 ]
  %m_symmY.dup04174 = phi %"class.std::vector.0"* [ %m_symmY.dup03985, %invoke.cont78.dup0 ]
  %m_elemMass.dup04175 = phi %"class.std::vector"* [ %m_elemMass.dup03984, %invoke.cont78.dup0 ]
  %m_zd.dup04176 = phi %"class.std::vector"* [ %m_zd.dup03997, %invoke.cont78.dup0 ]
  %call.dup04177 = phi i32* [ %call.dup03998, %invoke.cont78.dup0 ]
  %m_ss.dup04178 = phi %"class.std::vector"* [ %m_ss.dup03986, %invoke.cont78.dup0 ]
  %m_fx.dup04179 = phi %"class.std::vector"* [ %m_fx.dup03983, %invoke.cont78.dup0 ]
  %m_qq.dup04180 = phi %"class.std::vector"* [ %m_qq.dup03982, %invoke.cont78.dup0 ]
  %m_xdd.dup04181 = phi %"class.std::vector"* [ %m_xdd.dup03981, %invoke.cont78.dup0 ]
  %m_lxip.dup04182 = phi %"class.std::vector.0"* [ %m_lxip.dup04005, %invoke.cont78.dup0 ]
  %m_elemBC.dup04183 = phi %"class.std::vector.0"* [ %m_elemBC.dup04006, %invoke.cont78.dup0 ]
  %m_arealg.dup04184 = phi %"class.std::vector"* [ %m_arealg.dup04008, %invoke.cont78.dup0 ]
  %call67.dup05105 = phi double* [ %call67.dup05093, %invoke.cont78.dup0 ]
  %call71.dup05106 = phi double* [ %call71.dup05094, %invoke.cont78.dup0 ]
  %call69.dup05107 = phi double* [ %call69.dup05095, %invoke.cont78.dup0 ]
  br label %for.end87.dup0

invoke.cont78.dup0:                               ; No predecessors!
  %call79.dup0264 = phi i32* [ %call79.dup0, %for.cond76.dup0 ]
  %i75.0.dup0265 = phi i32 [ %i75.0.dup0, %for.cond76.dup0 ]
  %call84.dup0266 = phi double* [ %call84.dup0131, %for.cond76.dup0 ]
  %inc86.dup0267 = phi i32 [ %inc86.dup039, %for.cond76.dup0 ]
  %i41.0.dup01416 = phi i32 [ %i41.0.dup01412, %for.cond76.dup0 ]
  %call62.dup01417 = phi i32* [ %call62.dup01408, %for.cond76.dup0 ]
  %call50.dup01418 = phi double* [ %call50.dup01407, %for.cond76.dup0 ]
  %inc56.dup01419 = phi i32 [ %inc56.dup01409, %for.cond76.dup0 ]
  %call54.dup01420 = phi double* [ %call54.dup01415, %for.cond76.dup0 ]
  %call45.dup01421 = phi i32* [ %call45.dup01414, %for.cond76.dup0 ]
  %call52.dup01422 = phi double* [ %call52.dup01413, %for.cond76.dup0 ]
  %inc73.dup01423 = phi i32 [ %inc73.dup01410, %for.cond76.dup0 ]
  %i58.0.dup01424 = phi i32 [ %i58.0.dup01411, %for.cond76.dup0 ]
  %call23.dup01680 = phi double* [ %call23.dup01669, %for.cond76.dup0 ]
  %call14.dup01681 = phi i32* [ %call14.dup01668, %for.cond76.dup0 ]
  %call21.dup01682 = phi double* [ %call21.dup01677, %for.cond76.dup0 ]
  %inc.dup01683 = phi i32 [ %inc.dup01674, %for.cond76.dup0 ]
  %call32.dup01684 = phi i32* [ %call32.dup01679, %for.cond76.dup0 ]
  %call27.dup01685 = phi double* [ %call27.dup01678, %for.cond76.dup0 ]
  %call19.dup01686 = phi i32* [ %call19.dup01675, %for.cond76.dup0 ]
  %call25.dup01687 = phi double* [ %call25.dup01676, %for.cond76.dup0 ]
  %i.0.dup01688 = phi i32 [ %i.0.dup01673, %for.cond76.dup0 ]
  %inc39.dup01689 = phi i32 [ %inc39.dup01672, %for.cond76.dup0 ]
  %call11.dup01690 = phi i32* [ %call11.dup01671, %for.cond76.dup0 ]
  %i28.0.dup01691 = phi i32 [ %i28.0.dup01670, %for.cond76.dup0 ]
  %call37.dup02143 = phi double* [ %call37.dup02140, %for.cond76.dup0 ]
  %m_lzetam.dup03965 = phi %"class.std::vector.0"* [ %m_lzetam.dup03929, %for.cond76.dup0 ]
  %m_nodalMass.dup03966 = phi %"class.std::vector"* [ %m_nodalMass.dup03930, %for.cond76.dup0 ]
  %m_q.dup03967 = phi %"class.std::vector"* [ %m_q.dup03928, %for.cond76.dup0 ]
  %m_yd.dup03968 = phi %"class.std::vector"* [ %m_yd.dup03926, %for.cond76.dup0 ]
  %x_local.dup03969 = phi [8 x double]* [ %x_local.dup03927, %for.cond76.dup0 ]
  %m_delv.dup03970 = phi %"class.std::vector"* [ %m_delv.dup03925, %for.cond76.dup0 ]
  %m_z.dup03971 = phi %"class.std::vector"* [ %m_z.dup03924, %for.cond76.dup0 ]
  %m_e.dup03972 = phi %"class.std::vector"* [ %m_e.dup03923, %for.cond76.dup0 ]
  %m_ydd.dup03973 = phi %"class.std::vector"* [ %m_ydd.dup03922, %for.cond76.dup0 ]
  %m_v.dup03974 = phi %"class.std::vector"* [ %m_v.dup03921, %for.cond76.dup0 ]
  %m_vdov.dup03975 = phi %"class.std::vector"* [ %m_vdov.dup03962, %for.cond76.dup0 ]
  %m_lzetap.dup03976 = phi %"class.std::vector.0"* [ %m_lzetap.dup03963, %for.cond76.dup0 ]
  %m_symmX.dup03977 = phi %"class.std::vector.0"* [ %m_symmX.dup03964, %for.cond76.dup0 ]
  %m_vnew.dup03978 = phi %"class.std::vector"* [ %m_vnew.dup03945, %for.cond76.dup0 ]
  %m_ql.dup03979 = phi %"class.std::vector"* [ %m_ql.dup03934, %for.cond76.dup0 ]
  %call8.dup03980 = phi i8* [ %call8.dup03933, %for.cond76.dup0 ]
  %m_xdd.dup03981 = phi %"class.std::vector"* [ %m_xdd.dup03942, %for.cond76.dup0 ]
  %m_qq.dup03982 = phi %"class.std::vector"* [ %m_qq.dup03943, %for.cond76.dup0 ]
  %m_fx.dup03983 = phi %"class.std::vector"* [ %m_fx.dup03944, %for.cond76.dup0 ]
  %m_elemMass.dup03984 = phi %"class.std::vector"* [ %m_elemMass.dup03946, %for.cond76.dup0 ]
  %m_symmY.dup03985 = phi %"class.std::vector.0"* [ %m_symmY.dup03947, %for.cond76.dup0 ]
  %m_ss.dup03986 = phi %"class.std::vector"* [ %m_ss.dup03949, %for.cond76.dup0 ]
  %m_fz.dup03987 = phi %"class.std::vector"* [ %m_fz.dup03950, %for.cond76.dup0 ]
  %m_letap.dup03988 = phi %"class.std::vector.0"* [ %m_letap.dup03951, %for.cond76.dup0 ]
  %m_symmZ.dup03989 = phi %"class.std::vector.0"* [ %m_symmZ.dup03954, %for.cond76.dup0 ]
  %m_p.dup03990 = phi %"class.std::vector"* [ %m_p.dup03955, %for.cond76.dup0 ]
  %add.dup03991 = phi i32 [ %add.dup03956, %for.cond76.dup0 ]
  %call6.dup03992 = phi i32* [ %call6.dup03959, %for.cond76.dup0 ]
  %m_nodelist.dup03993 = phi %"class.std::vector.0"* [ %m_nodelist.dup03957, %for.cond76.dup0 ]
  %m_xd.dup03994 = phi %"class.std::vector"* [ %m_xd.dup03958, %for.cond76.dup0 ]
  %z_local.dup03995 = phi [8 x double]* [ %z_local.dup03952, %for.cond76.dup0 ]
  %y_local.dup03996 = phi [8 x double]* [ %y_local.dup03953, %for.cond76.dup0 ]
  %m_zd.dup03997 = phi %"class.std::vector"* [ %m_zd.dup03941, %for.cond76.dup0 ]
  %call.dup03998 = phi i32* [ %call.dup03940, %for.cond76.dup0 ]
  %m_fy.dup03999 = phi %"class.std::vector"* [ %m_fy.dup03939, %for.cond76.dup0 ]
  %m_zdd.dup04000 = phi %"class.std::vector"* [ %m_zdd.dup03937, %for.cond76.dup0 ]
  %m_y.dup04001 = phi %"class.std::vector"* [ %m_y.dup03936, %for.cond76.dup0 ]
  %m_volo.dup04002 = phi %"class.std::vector"* [ %m_volo.dup03938, %for.cond76.dup0 ]
  %m_lxim.dup04003 = phi %"class.std::vector.0"* [ %m_lxim.dup03932, %for.cond76.dup0 ]
  %m_x.dup04004 = phi %"class.std::vector"* [ %m_x.dup03931, %for.cond76.dup0 ]
  %m_lxip.dup04005 = phi %"class.std::vector.0"* [ %m_lxip.dup03961, %for.cond76.dup0 ]
  %m_elemBC.dup04006 = phi %"class.std::vector.0"* [ %m_elemBC.dup03960, %for.cond76.dup0 ]
  %m_letam.dup04007 = phi %"class.std::vector.0"* [ %m_letam.dup03948, %for.cond76.dup0 ]
  %m_arealg.dup04008 = phi %"class.std::vector"* [ %m_arealg.dup03935, %for.cond76.dup0 ]
  %call67.dup05093 = phi double* [ %call67.dup05090, %for.cond76.dup0 ]
  %call71.dup05094 = phi double* [ %call71.dup05092, %for.cond76.dup0 ]
  %call69.dup05095 = phi double* [ %call69.dup05091, %for.cond76.dup0 ]
  %3 = load i32, i32* %call79.dup0264, align 4, !tbaa !35
  %cmp80.dup0 = icmp slt i32 %i75.0.dup0265, %3
  br i1 %cmp80.dup0, label %for.body82.dup0, label %for.cond.cleanup81.dup0

for.cond76.dup0:                                  ; preds = %for.end74.dup0, %for.inc85.dup0
  %i75.0.dup0 = phi i32 [ %inc86.dup0, %for.inc85.dup0 ], [ 0, %for.end74.dup0 ]
  %inc86.dup039 = phi i32 [ undef, %for.end74.dup0 ], [ %inc86.dup0, %for.inc85.dup0 ]
  %call84.dup0131 = phi double* [ undef, %for.end74.dup0 ], [ %call84.dup0130, %for.inc85.dup0 ]
  %call50.dup01407 = phi double* [ %call50.dup01403, %for.end74.dup0 ], [ %call50.dup01445, %for.inc85.dup0 ]
  %call62.dup01408 = phi i32* [ %call62.dup01402, %for.end74.dup0 ], [ %call62.dup01444, %for.inc85.dup0 ]
  %inc56.dup01409 = phi i32 [ %inc56.dup01401, %for.end74.dup0 ], [ %inc56.dup01450, %for.inc85.dup0 ]
  %inc73.dup01410 = phi i32 [ %inc73.dup01399, %for.end74.dup0 ], [ %inc73.dup01446, %for.inc85.dup0 ]
  %i58.0.dup01411 = phi i32 [ %i58.0.dup01406, %for.end74.dup0 ], [ %i58.0.dup01447, %for.inc85.dup0 ]
  %i41.0.dup01412 = phi i32 [ %i41.0.dup01400, %for.end74.dup0 ], [ %i41.0.dup01443, %for.inc85.dup0 ]
  %call52.dup01413 = phi double* [ %call52.dup01405, %for.end74.dup0 ], [ %call52.dup01448, %for.inc85.dup0 ]
  %call45.dup01414 = phi i32* [ %call45.dup01404, %for.end74.dup0 ], [ %call45.dup01449, %for.inc85.dup0 ]
  %call54.dup01415 = phi double* [ %call54.dup01398, %for.end74.dup0 ], [ %call54.dup01451, %for.inc85.dup0 ]
  %call14.dup01668 = phi i32* [ %call14.dup01659, %for.end74.dup0 ], [ %call14.dup01717, %for.inc85.dup0 ]
  %call23.dup01669 = phi double* [ %call23.dup01658, %for.end74.dup0 ], [ %call23.dup01718, %for.inc85.dup0 ]
  %i28.0.dup01670 = phi i32 [ %i28.0.dup01656, %for.end74.dup0 ], [ %i28.0.dup01727, %for.inc85.dup0 ]
  %call11.dup01671 = phi i32* [ %call11.dup01657, %for.end74.dup0 ], [ %call11.dup01726, %for.inc85.dup0 ]
  %inc39.dup01672 = phi i32 [ %inc39.dup01660, %for.end74.dup0 ], [ %inc39.dup01724, %for.inc85.dup0 ]
  %i.0.dup01673 = phi i32 [ %i.0.dup01663, %for.end74.dup0 ], [ %i.0.dup01725, %for.inc85.dup0 ]
  %inc.dup01674 = phi i32 [ %inc.dup01667, %for.end74.dup0 ], [ %inc.dup01722, %for.inc85.dup0 ]
  %call19.dup01675 = phi i32* [ %call19.dup01664, %for.end74.dup0 ], [ %call19.dup01720, %for.inc85.dup0 ]
  %call25.dup01676 = phi double* [ %call25.dup01665, %for.end74.dup0 ], [ %call25.dup01721, %for.inc85.dup0 ]
  %call21.dup01677 = phi double* [ %call21.dup01666, %for.end74.dup0 ], [ %call21.dup01716, %for.inc85.dup0 ]
  %call27.dup01678 = phi double* [ %call27.dup01662, %for.end74.dup0 ], [ %call27.dup01719, %for.inc85.dup0 ]
  %call32.dup01679 = phi i32* [ %call32.dup01661, %for.end74.dup0 ], [ %call32.dup01723, %for.inc85.dup0 ]
  %call37.dup02140 = phi double* [ %call37.dup02139, %for.end74.dup0 ], [ %call37.dup02146, %for.inc85.dup0 ]
  %m_v.dup03921 = phi %"class.std::vector"* [ %m_v.dup03890, %for.end74.dup0 ], [ %m_v.dup04097, %for.inc85.dup0 ]
  %m_ydd.dup03922 = phi %"class.std::vector"* [ %m_ydd.dup03889, %for.end74.dup0 ], [ %m_ydd.dup04098, %for.inc85.dup0 ]
  %m_e.dup03923 = phi %"class.std::vector"* [ %m_e.dup03888, %for.end74.dup0 ], [ %m_e.dup04099, %for.inc85.dup0 ]
  %m_z.dup03924 = phi %"class.std::vector"* [ %m_z.dup03887, %for.end74.dup0 ], [ %m_z.dup04100, %for.inc85.dup0 ]
  %m_delv.dup03925 = phi %"class.std::vector"* [ %m_delv.dup03886, %for.end74.dup0 ], [ %m_delv.dup04101, %for.inc85.dup0 ]
  %m_yd.dup03926 = phi %"class.std::vector"* [ %m_yd.dup03884, %for.end74.dup0 ], [ %m_yd.dup04102, %for.inc85.dup0 ]
  %x_local.dup03927 = phi [8 x double]* [ %x_local.dup03885, %for.end74.dup0 ], [ %x_local.dup04103, %for.inc85.dup0 ]
  %m_q.dup03928 = phi %"class.std::vector"* [ %m_q.dup03883, %for.end74.dup0 ], [ %m_q.dup04104, %for.inc85.dup0 ]
  %m_lzetam.dup03929 = phi %"class.std::vector.0"* [ %m_lzetam.dup03881, %for.end74.dup0 ], [ %m_lzetam.dup04105, %for.inc85.dup0 ]
  %m_nodalMass.dup03930 = phi %"class.std::vector"* [ %m_nodalMass.dup03882, %for.end74.dup0 ], [ %m_nodalMass.dup04106, %for.inc85.dup0 ]
  %m_x.dup03931 = phi %"class.std::vector"* [ %m_x.dup03880, %for.end74.dup0 ], [ %m_x.dup04137, %for.inc85.dup0 ]
  %m_lxim.dup03932 = phi %"class.std::vector.0"* [ %m_lxim.dup03879, %for.end74.dup0 ], [ %m_lxim.dup04128, %for.inc85.dup0 ]
  %call8.dup03933 = phi i8* [ %call8.dup03878, %for.end74.dup0 ], [ %call8.dup04118, %for.inc85.dup0 ]
  %m_ql.dup03934 = phi %"class.std::vector"* [ %m_ql.dup03877, %for.end74.dup0 ], [ %m_ql.dup04117, %for.inc85.dup0 ]
  %m_arealg.dup03935 = phi %"class.std::vector"* [ %m_arealg.dup03920, %for.end74.dup0 ], [ %m_arealg.dup04140, %for.inc85.dup0 ]
  %m_y.dup03936 = phi %"class.std::vector"* [ %m_y.dup03903, %for.end74.dup0 ], [ %m_y.dup04135, %for.inc85.dup0 ]
  %m_zdd.dup03937 = phi %"class.std::vector"* [ %m_zdd.dup03904, %for.end74.dup0 ], [ %m_zdd.dup04114, %for.inc85.dup0 ]
  %m_volo.dup03938 = phi %"class.std::vector"* [ %m_volo.dup03891, %for.end74.dup0 ], [ %m_volo.dup04136, %for.inc85.dup0 ]
  %m_fy.dup03939 = phi %"class.std::vector"* [ %m_fy.dup03905, %for.end74.dup0 ], [ %m_fy.dup04115, %for.inc85.dup0 ]
  %call.dup03940 = phi i32* [ %call.dup03906, %for.end74.dup0 ], [ %call.dup04122, %for.inc85.dup0 ]
  %m_zd.dup03941 = phi %"class.std::vector"* [ %m_zd.dup03907, %for.end74.dup0 ], [ %m_zd.dup04121, %for.inc85.dup0 ]
  %m_xdd.dup03942 = phi %"class.std::vector"* [ %m_xdd.dup03908, %for.end74.dup0 ], [ %m_xdd.dup04113, %for.inc85.dup0 ]
  %m_qq.dup03943 = phi %"class.std::vector"* [ %m_qq.dup03909, %for.end74.dup0 ], [ %m_qq.dup04112, %for.inc85.dup0 ]
  %m_fx.dup03944 = phi %"class.std::vector"* [ %m_fx.dup03910, %for.end74.dup0 ], [ %m_fx.dup04116, %for.inc85.dup0 ]
  %m_vnew.dup03945 = phi %"class.std::vector"* [ %m_vnew.dup03911, %for.end74.dup0 ], [ %m_vnew.dup04111, %for.inc85.dup0 ]
  %m_elemMass.dup03946 = phi %"class.std::vector"* [ %m_elemMass.dup03902, %for.end74.dup0 ], [ %m_elemMass.dup04119, %for.inc85.dup0 ]
  %m_symmY.dup03947 = phi %"class.std::vector.0"* [ %m_symmY.dup03901, %for.end74.dup0 ], [ %m_symmY.dup04120, %for.inc85.dup0 ]
  %m_letam.dup03948 = phi %"class.std::vector.0"* [ %m_letam.dup03916, %for.end74.dup0 ], [ %m_letam.dup04110, %for.inc85.dup0 ]
  %m_ss.dup03949 = phi %"class.std::vector"* [ %m_ss.dup03915, %for.end74.dup0 ], [ %m_ss.dup04127, %for.inc85.dup0 ]
  %m_fz.dup03950 = phi %"class.std::vector"* [ %m_fz.dup03914, %for.end74.dup0 ], [ %m_fz.dup04130, %for.inc85.dup0 ]
  %m_letap.dup03951 = phi %"class.std::vector.0"* [ %m_letap.dup03913, %for.end74.dup0 ], [ %m_letap.dup04129, %for.inc85.dup0 ]
  %z_local.dup03952 = phi [8 x double]* [ %z_local.dup03917, %for.end74.dup0 ], [ %z_local.dup04125, %for.inc85.dup0 ]
  %y_local.dup03953 = phi [8 x double]* [ %y_local.dup03912, %for.end74.dup0 ], [ %y_local.dup04126, %for.inc85.dup0 ]
  %m_symmZ.dup03954 = phi %"class.std::vector.0"* [ %m_symmZ.dup03900, %for.end74.dup0 ], [ %m_symmZ.dup04131, %for.inc85.dup0 ]
  %m_p.dup03955 = phi %"class.std::vector"* [ %m_p.dup03899, %for.end74.dup0 ], [ %m_p.dup04132, %for.inc85.dup0 ]
  %add.dup03956 = phi i32 [ %add.dup03896, %for.end74.dup0 ], [ %add.dup04133, %for.inc85.dup0 ]
  %m_nodelist.dup03957 = phi %"class.std::vector.0"* [ %m_nodelist.dup03897, %for.end74.dup0 ], [ %m_nodelist.dup04123, %for.inc85.dup0 ]
  %m_xd.dup03958 = phi %"class.std::vector"* [ %m_xd.dup03898, %for.end74.dup0 ], [ %m_xd.dup04134, %for.inc85.dup0 ]
  %call6.dup03959 = phi i32* [ %call6.dup03895, %for.end74.dup0 ], [ %call6.dup04124, %for.inc85.dup0 ]
  %m_elemBC.dup03960 = phi %"class.std::vector.0"* [ %m_elemBC.dup03918, %for.end74.dup0 ], [ %m_elemBC.dup04139, %for.inc85.dup0 ]
  %m_lxip.dup03961 = phi %"class.std::vector.0"* [ %m_lxip.dup03919, %for.end74.dup0 ], [ %m_lxip.dup04138, %for.inc85.dup0 ]
  %m_vdov.dup03962 = phi %"class.std::vector"* [ %m_vdov.dup03892, %for.end74.dup0 ], [ %m_vdov.dup04107, %for.inc85.dup0 ]
  %m_lzetap.dup03963 = phi %"class.std::vector.0"* [ %m_lzetap.dup03894, %for.end74.dup0 ], [ %m_lzetap.dup04108, %for.inc85.dup0 ]
  %m_symmX.dup03964 = phi %"class.std::vector.0"* [ %m_symmX.dup03893, %for.end74.dup0 ], [ %m_symmX.dup04109, %for.inc85.dup0 ]
  %call67.dup05090 = phi double* [ %call67.dup05087, %for.end74.dup0 ], [ %call67.dup05102, %for.inc85.dup0 ]
  %call69.dup05091 = phi double* [ %call69.dup05088, %for.end74.dup0 ], [ %call69.dup05103, %for.inc85.dup0 ]
  %call71.dup05092 = phi double* [ %call71.dup05089, %for.end74.dup0 ], [ %call71.dup05104, %for.inc85.dup0 ]
  %call79.dup0 = invoke nonnull align 4 dereferenceable(4) i32* @_ZN6Domain7numNodeEv(%class.Domain* %this)
          to label %invoke.cont78 unwind label %lpad77

for.end74.dup0:                                   ; preds = %for.cond.cleanup64.dup0
  %call54.dup01398 = phi double* [ %call54.dup01376, %for.cond.cleanup64.dup0 ]
  %inc73.dup01399 = phi i32 [ %inc73.dup01332, %for.cond.cleanup64.dup0 ]
  %i41.0.dup01400 = phi i32 [ %i41.0.dup01377, %for.cond.cleanup64.dup0 ]
  %inc56.dup01401 = phi i32 [ %inc56.dup01379, %for.cond.cleanup64.dup0 ]
  %call62.dup01402 = phi i32* [ %call62.dup0123, %for.cond.cleanup64.dup0 ]
  %call50.dup01403 = phi double* [ %call50.dup01378, %for.cond.cleanup64.dup0 ]
  %call45.dup01404 = phi i32* [ %call45.dup01380, %for.cond.cleanup64.dup0 ]
  %call52.dup01405 = phi double* [ %call52.dup01381, %for.cond.cleanup64.dup0 ]
  %i58.0.dup01406 = phi i32 [ %i58.0.dup0122, %for.cond.cleanup64.dup0 ]
  %i28.0.dup01656 = phi i32 [ %i28.0.dup01650, %for.cond.cleanup64.dup0 ]
  %call11.dup01657 = phi i32* [ %call11.dup01649, %for.cond.cleanup64.dup0 ]
  %call23.dup01658 = phi double* [ %call23.dup01647, %for.cond.cleanup64.dup0 ]
  %call14.dup01659 = phi i32* [ %call14.dup01646, %for.cond.cleanup64.dup0 ]
  %inc39.dup01660 = phi i32 [ %inc39.dup01651, %for.cond.cleanup64.dup0 ]
  %call32.dup01661 = phi i32* [ %call32.dup01648, %for.cond.cleanup64.dup0 ]
  %call27.dup01662 = phi double* [ %call27.dup01652, %for.cond.cleanup64.dup0 ]
  %i.0.dup01663 = phi i32 [ %i.0.dup01655, %for.cond.cleanup64.dup0 ]
  %call19.dup01664 = phi i32* [ %call19.dup01653, %for.cond.cleanup64.dup0 ]
  %call25.dup01665 = phi double* [ %call25.dup01654, %for.cond.cleanup64.dup0 ]
  %call21.dup01666 = phi double* [ %call21.dup01644, %for.cond.cleanup64.dup0 ]
  %inc.dup01667 = phi i32 [ %inc.dup01645, %for.cond.cleanup64.dup0 ]
  %call37.dup02139 = phi double* [ %call37.dup02138, %for.cond.cleanup64.dup0 ]
  %m_ql.dup03877 = phi %"class.std::vector"* [ %m_ql.dup03846, %for.cond.cleanup64.dup0 ]
  %call8.dup03878 = phi i8* [ %call8.dup03845, %for.cond.cleanup64.dup0 ]
  %m_lxim.dup03879 = phi %"class.std::vector.0"* [ %m_lxim.dup03844, %for.cond.cleanup64.dup0 ]
  %m_x.dup03880 = phi %"class.std::vector"* [ %m_x.dup03843, %for.cond.cleanup64.dup0 ]
  %m_lzetam.dup03881 = phi %"class.std::vector.0"* [ %m_lzetam.dup03841, %for.cond.cleanup64.dup0 ]
  %m_nodalMass.dup03882 = phi %"class.std::vector"* [ %m_nodalMass.dup03842, %for.cond.cleanup64.dup0 ]
  %m_q.dup03883 = phi %"class.std::vector"* [ %m_q.dup03840, %for.cond.cleanup64.dup0 ]
  %m_yd.dup03884 = phi %"class.std::vector"* [ %m_yd.dup03838, %for.cond.cleanup64.dup0 ]
  %x_local.dup03885 = phi [8 x double]* [ %x_local.dup03839, %for.cond.cleanup64.dup0 ]
  %m_delv.dup03886 = phi %"class.std::vector"* [ %m_delv.dup03837, %for.cond.cleanup64.dup0 ]
  %m_z.dup03887 = phi %"class.std::vector"* [ %m_z.dup03836, %for.cond.cleanup64.dup0 ]
  %m_e.dup03888 = phi %"class.std::vector"* [ %m_e.dup03835, %for.cond.cleanup64.dup0 ]
  %m_ydd.dup03889 = phi %"class.std::vector"* [ %m_ydd.dup03834, %for.cond.cleanup64.dup0 ]
  %m_v.dup03890 = phi %"class.std::vector"* [ %m_v.dup03833, %for.cond.cleanup64.dup0 ]
  %m_volo.dup03891 = phi %"class.std::vector"* [ %m_volo.dup03847, %for.cond.cleanup64.dup0 ]
  %m_vdov.dup03892 = phi %"class.std::vector"* [ %m_vdov.dup03848, %for.cond.cleanup64.dup0 ]
  %m_symmX.dup03893 = phi %"class.std::vector.0"* [ %m_symmX.dup03849, %for.cond.cleanup64.dup0 ]
  %m_lzetap.dup03894 = phi %"class.std::vector.0"* [ %m_lzetap.dup03850, %for.cond.cleanup64.dup0 ]
  %call6.dup03895 = phi i32* [ %call6.dup03859, %for.cond.cleanup64.dup0 ]
  %add.dup03896 = phi i32 [ %add.dup03860, %for.cond.cleanup64.dup0 ]
  %m_nodelist.dup03897 = phi %"class.std::vector.0"* [ %m_nodelist.dup03863, %for.cond.cleanup64.dup0 ]
  %m_xd.dup03898 = phi %"class.std::vector"* [ %m_xd.dup03864, %for.cond.cleanup64.dup0 ]
  %m_p.dup03899 = phi %"class.std::vector"* [ %m_p.dup03862, %for.cond.cleanup64.dup0 ]
  %m_symmZ.dup03900 = phi %"class.std::vector.0"* [ %m_symmZ.dup03861, %for.cond.cleanup64.dup0 ]
  %m_symmY.dup03901 = phi %"class.std::vector.0"* [ %m_symmY.dup03854, %for.cond.cleanup64.dup0 ]
  %m_elemMass.dup03902 = phi %"class.std::vector"* [ %m_elemMass.dup03853, %for.cond.cleanup64.dup0 ]
  %m_y.dup03903 = phi %"class.std::vector"* [ %m_y.dup03874, %for.cond.cleanup64.dup0 ]
  %m_zdd.dup03904 = phi %"class.std::vector"* [ %m_zdd.dup03865, %for.cond.cleanup64.dup0 ]
  %m_fy.dup03905 = phi %"class.std::vector"* [ %m_fy.dup03866, %for.cond.cleanup64.dup0 ]
  %call.dup03906 = phi i32* [ %call.dup03868, %for.cond.cleanup64.dup0 ]
  %m_zd.dup03907 = phi %"class.std::vector"* [ %m_zd.dup03867, %for.cond.cleanup64.dup0 ]
  %m_xdd.dup03908 = phi %"class.std::vector"* [ %m_xdd.dup03870, %for.cond.cleanup64.dup0 ]
  %m_qq.dup03909 = phi %"class.std::vector"* [ %m_qq.dup03871, %for.cond.cleanup64.dup0 ]
  %m_fx.dup03910 = phi %"class.std::vector"* [ %m_fx.dup03872, %for.cond.cleanup64.dup0 ]
  %m_vnew.dup03911 = phi %"class.std::vector"* [ %m_vnew.dup03873, %for.cond.cleanup64.dup0 ]
  %y_local.dup03912 = phi [8 x double]* [ %y_local.dup03869, %for.cond.cleanup64.dup0 ]
  %m_letap.dup03913 = phi %"class.std::vector.0"* [ %m_letap.dup03858, %for.cond.cleanup64.dup0 ]
  %m_fz.dup03914 = phi %"class.std::vector"* [ %m_fz.dup03857, %for.cond.cleanup64.dup0 ]
  %m_ss.dup03915 = phi %"class.std::vector"* [ %m_ss.dup03856, %for.cond.cleanup64.dup0 ]
  %m_letam.dup03916 = phi %"class.std::vector.0"* [ %m_letam.dup03855, %for.cond.cleanup64.dup0 ]
  %z_local.dup03917 = phi [8 x double]* [ %z_local.dup03852, %for.cond.cleanup64.dup0 ]
  %m_elemBC.dup03918 = phi %"class.std::vector.0"* [ %m_elemBC.dup03875, %for.cond.cleanup64.dup0 ]
  %m_lxip.dup03919 = phi %"class.std::vector.0"* [ %m_lxip.dup03876, %for.cond.cleanup64.dup0 ]
  %m_arealg.dup03920 = phi %"class.std::vector"* [ %m_arealg.dup03851, %for.cond.cleanup64.dup0 ]
  %call67.dup05087 = phi double* [ %call67.dup05084, %for.cond.cleanup64.dup0 ]
  %call69.dup05088 = phi double* [ %call69.dup05085, %for.cond.cleanup64.dup0 ]
  %call71.dup05089 = phi double* [ %call71.dup05086, %for.cond.cleanup64.dup0 ]
  br label %for.cond76.dup0

for.cond.cleanup64.dup0:                          ; preds = %invoke.cont61.dup0
  %i58.0.dup0122 = phi i32 [ %i58.0.dup034, %invoke.cont61.dup0 ]
  %call62.dup0123 = phi i32* [ %call62.dup035, %invoke.cont61.dup0 ]
  %inc73.dup01332 = phi i32 [ %inc73.dup01328, %invoke.cont61.dup0 ]
  %call54.dup01376 = phi double* [ %call54.dup01352, %invoke.cont61.dup0 ]
  %i41.0.dup01377 = phi i32 [ %i41.0.dup01353, %invoke.cont61.dup0 ]
  %call50.dup01378 = phi double* [ %call50.dup01355, %invoke.cont61.dup0 ]
  %inc56.dup01379 = phi i32 [ %inc56.dup01354, %invoke.cont61.dup0 ]
  %call45.dup01380 = phi i32* [ %call45.dup01356, %invoke.cont61.dup0 ]
  %call52.dup01381 = phi double* [ %call52.dup01357, %invoke.cont61.dup0 ]
  %call21.dup01644 = phi double* [ %call21.dup01601, %invoke.cont61.dup0 ]
  %inc.dup01645 = phi i32 [ %inc.dup01599, %invoke.cont61.dup0 ]
  %call14.dup01646 = phi i32* [ %call14.dup01598, %invoke.cont61.dup0 ]
  %call23.dup01647 = phi double* [ %call23.dup01597, %invoke.cont61.dup0 ]
  %call32.dup01648 = phi i32* [ %call32.dup01600, %invoke.cont61.dup0 ]
  %call11.dup01649 = phi i32* [ %call11.dup01604, %invoke.cont61.dup0 ]
  %i28.0.dup01650 = phi i32 [ %i28.0.dup01605, %invoke.cont61.dup0 ]
  %inc39.dup01651 = phi i32 [ %inc39.dup01607, %invoke.cont61.dup0 ]
  %call27.dup01652 = phi double* [ %call27.dup01606, %invoke.cont61.dup0 ]
  %call19.dup01653 = phi i32* [ %call19.dup01602, %invoke.cont61.dup0 ]
  %call25.dup01654 = phi double* [ %call25.dup01603, %invoke.cont61.dup0 ]
  %i.0.dup01655 = phi i32 [ %i.0.dup01596, %invoke.cont61.dup0 ]
  %call37.dup02138 = phi double* [ %call37.dup02134, %invoke.cont61.dup0 ]
  %m_v.dup03833 = phi %"class.std::vector"* [ %m_v.dup03670, %invoke.cont61.dup0 ]
  %m_ydd.dup03834 = phi %"class.std::vector"* [ %m_ydd.dup03669, %invoke.cont61.dup0 ]
  %m_e.dup03835 = phi %"class.std::vector"* [ %m_e.dup03668, %invoke.cont61.dup0 ]
  %m_z.dup03836 = phi %"class.std::vector"* [ %m_z.dup03667, %invoke.cont61.dup0 ]
  %m_delv.dup03837 = phi %"class.std::vector"* [ %m_delv.dup03666, %invoke.cont61.dup0 ]
  %m_yd.dup03838 = phi %"class.std::vector"* [ %m_yd.dup03664, %invoke.cont61.dup0 ]
  %x_local.dup03839 = phi [8 x double]* [ %x_local.dup03665, %invoke.cont61.dup0 ]
  %m_q.dup03840 = phi %"class.std::vector"* [ %m_q.dup03663, %invoke.cont61.dup0 ]
  %m_lzetam.dup03841 = phi %"class.std::vector.0"* [ %m_lzetam.dup03661, %invoke.cont61.dup0 ]
  %m_nodalMass.dup03842 = phi %"class.std::vector"* [ %m_nodalMass.dup03662, %invoke.cont61.dup0 ]
  %m_x.dup03843 = phi %"class.std::vector"* [ %m_x.dup03660, %invoke.cont61.dup0 ]
  %m_lxim.dup03844 = phi %"class.std::vector.0"* [ %m_lxim.dup03659, %invoke.cont61.dup0 ]
  %call8.dup03845 = phi i8* [ %call8.dup03658, %invoke.cont61.dup0 ]
  %m_ql.dup03846 = phi %"class.std::vector"* [ %m_ql.dup03657, %invoke.cont61.dup0 ]
  %m_volo.dup03847 = phi %"class.std::vector"* [ %m_volo.dup03672, %invoke.cont61.dup0 ]
  %m_vdov.dup03848 = phi %"class.std::vector"* [ %m_vdov.dup03698, %invoke.cont61.dup0 ]
  %m_symmX.dup03849 = phi %"class.std::vector.0"* [ %m_symmX.dup03699, %invoke.cont61.dup0 ]
  %m_lzetap.dup03850 = phi %"class.std::vector.0"* [ %m_lzetap.dup03700, %invoke.cont61.dup0 ]
  %m_arealg.dup03851 = phi %"class.std::vector"* [ %m_arealg.dup03697, %invoke.cont61.dup0 ]
  %z_local.dup03852 = phi [8 x double]* [ %z_local.dup03678, %invoke.cont61.dup0 ]
  %m_elemMass.dup03853 = phi %"class.std::vector"* [ %m_elemMass.dup03679, %invoke.cont61.dup0 ]
  %m_symmY.dup03854 = phi %"class.std::vector.0"* [ %m_symmY.dup03680, %invoke.cont61.dup0 ]
  %m_letam.dup03855 = phi %"class.std::vector.0"* [ %m_letam.dup03681, %invoke.cont61.dup0 ]
  %m_ss.dup03856 = phi %"class.std::vector"* [ %m_ss.dup03682, %invoke.cont61.dup0 ]
  %m_fz.dup03857 = phi %"class.std::vector"* [ %m_fz.dup03683, %invoke.cont61.dup0 ]
  %m_letap.dup03858 = phi %"class.std::vector.0"* [ %m_letap.dup03684, %invoke.cont61.dup0 ]
  %call6.dup03859 = phi i32* [ %call6.dup03685, %invoke.cont61.dup0 ]
  %add.dup03860 = phi i32 [ %add.dup03692, %invoke.cont61.dup0 ]
  %m_symmZ.dup03861 = phi %"class.std::vector.0"* [ %m_symmZ.dup03690, %invoke.cont61.dup0 ]
  %m_p.dup03862 = phi %"class.std::vector"* [ %m_p.dup03691, %invoke.cont61.dup0 ]
  %m_nodelist.dup03863 = phi %"class.std::vector.0"* [ %m_nodelist.dup03693, %invoke.cont61.dup0 ]
  %m_xd.dup03864 = phi %"class.std::vector"* [ %m_xd.dup03694, %invoke.cont61.dup0 ]
  %m_zdd.dup03865 = phi %"class.std::vector"* [ %m_zdd.dup03686, %invoke.cont61.dup0 ]
  %m_fy.dup03866 = phi %"class.std::vector"* [ %m_fy.dup03687, %invoke.cont61.dup0 ]
  %m_zd.dup03867 = phi %"class.std::vector"* [ %m_zd.dup03689, %invoke.cont61.dup0 ]
  %call.dup03868 = phi i32* [ %call.dup03688, %invoke.cont61.dup0 ]
  %y_local.dup03869 = phi [8 x double]* [ %y_local.dup03677, %invoke.cont61.dup0 ]
  %m_xdd.dup03870 = phi %"class.std::vector"* [ %m_xdd.dup03676, %invoke.cont61.dup0 ]
  %m_qq.dup03871 = phi %"class.std::vector"* [ %m_qq.dup03675, %invoke.cont61.dup0 ]
  %m_fx.dup03872 = phi %"class.std::vector"* [ %m_fx.dup03674, %invoke.cont61.dup0 ]
  %m_vnew.dup03873 = phi %"class.std::vector"* [ %m_vnew.dup03673, %invoke.cont61.dup0 ]
  %m_y.dup03874 = phi %"class.std::vector"* [ %m_y.dup03671, %invoke.cont61.dup0 ]
  %m_elemBC.dup03875 = phi %"class.std::vector.0"* [ %m_elemBC.dup03695, %invoke.cont61.dup0 ]
  %m_lxip.dup03876 = phi %"class.std::vector.0"* [ %m_lxip.dup03696, %invoke.cont61.dup0 ]
  %call67.dup05084 = phi double* [ %call67.dup05078, %invoke.cont61.dup0 ]
  %call69.dup05085 = phi double* [ %call69.dup05080, %invoke.cont61.dup0 ]
  %call71.dup05086 = phi double* [ %call71.dup05079, %invoke.cont61.dup0 ]
  br label %for.end74.dup0

invoke.cont61.dup0:                               ; No predecessors!
  %i58.0.dup034 = phi i32 [ %i58.0.dup0, %for.cond59.dup0 ]
  %call62.dup035 = phi i32* [ %call62.dup0, %for.cond59.dup0 ]
  %inc73.dup01328 = phi i32 [ %inc73.dup01327, %for.cond59.dup0 ]
  %call54.dup01352 = phi double* [ %call54.dup01346, %for.cond59.dup0 ]
  %i41.0.dup01353 = phi i32 [ %i41.0.dup01347, %for.cond59.dup0 ]
  %inc56.dup01354 = phi i32 [ %inc56.dup01351, %for.cond59.dup0 ]
  %call50.dup01355 = phi double* [ %call50.dup01348, %for.cond59.dup0 ]
  %call45.dup01356 = phi i32* [ %call45.dup01350, %for.cond59.dup0 ]
  %call52.dup01357 = phi double* [ %call52.dup01349, %for.cond59.dup0 ]
  %i.0.dup01596 = phi i32 [ %i.0.dup01588, %for.cond59.dup0 ]
  %call23.dup01597 = phi double* [ %call23.dup01587, %for.cond59.dup0 ]
  %call14.dup01598 = phi i32* [ %call14.dup01585, %for.cond59.dup0 ]
  %inc.dup01599 = phi i32 [ %inc.dup01584, %for.cond59.dup0 ]
  %call32.dup01600 = phi i32* [ %call32.dup01586, %for.cond59.dup0 ]
  %call21.dup01601 = phi double* [ %call21.dup01591, %for.cond59.dup0 ]
  %call19.dup01602 = phi i32* [ %call19.dup01592, %for.cond59.dup0 ]
  %call25.dup01603 = phi double* [ %call25.dup01593, %for.cond59.dup0 ]
  %call11.dup01604 = phi i32* [ %call11.dup01594, %for.cond59.dup0 ]
  %i28.0.dup01605 = phi i32 [ %i28.0.dup01595, %for.cond59.dup0 ]
  %call27.dup01606 = phi double* [ %call27.dup01589, %for.cond59.dup0 ]
  %inc39.dup01607 = phi i32 [ %inc39.dup01590, %for.cond59.dup0 ]
  %call37.dup02134 = phi double* [ %call37.dup02133, %for.cond59.dup0 ]
  %m_ql.dup03657 = phi %"class.std::vector"* [ %m_ql.dup03625, %for.cond59.dup0 ]
  %call8.dup03658 = phi i8* [ %call8.dup03624, %for.cond59.dup0 ]
  %m_lxim.dup03659 = phi %"class.std::vector.0"* [ %m_lxim.dup03623, %for.cond59.dup0 ]
  %m_x.dup03660 = phi %"class.std::vector"* [ %m_x.dup03622, %for.cond59.dup0 ]
  %m_lzetam.dup03661 = phi %"class.std::vector.0"* [ %m_lzetam.dup03620, %for.cond59.dup0 ]
  %m_nodalMass.dup03662 = phi %"class.std::vector"* [ %m_nodalMass.dup03621, %for.cond59.dup0 ]
  %m_q.dup03663 = phi %"class.std::vector"* [ %m_q.dup03619, %for.cond59.dup0 ]
  %m_yd.dup03664 = phi %"class.std::vector"* [ %m_yd.dup03617, %for.cond59.dup0 ]
  %x_local.dup03665 = phi [8 x double]* [ %x_local.dup03618, %for.cond59.dup0 ]
  %m_delv.dup03666 = phi %"class.std::vector"* [ %m_delv.dup03616, %for.cond59.dup0 ]
  %m_z.dup03667 = phi %"class.std::vector"* [ %m_z.dup03615, %for.cond59.dup0 ]
  %m_e.dup03668 = phi %"class.std::vector"* [ %m_e.dup03614, %for.cond59.dup0 ]
  %m_ydd.dup03669 = phi %"class.std::vector"* [ %m_ydd.dup03613, %for.cond59.dup0 ]
  %m_v.dup03670 = phi %"class.std::vector"* [ %m_v.dup03627, %for.cond59.dup0 ]
  %m_y.dup03671 = phi %"class.std::vector"* [ %m_y.dup03626, %for.cond59.dup0 ]
  %m_volo.dup03672 = phi %"class.std::vector"* [ %m_volo.dup03639, %for.cond59.dup0 ]
  %m_vnew.dup03673 = phi %"class.std::vector"* [ %m_vnew.dup03637, %for.cond59.dup0 ]
  %m_fx.dup03674 = phi %"class.std::vector"* [ %m_fx.dup03638, %for.cond59.dup0 ]
  %m_qq.dup03675 = phi %"class.std::vector"* [ %m_qq.dup03641, %for.cond59.dup0 ]
  %m_xdd.dup03676 = phi %"class.std::vector"* [ %m_xdd.dup03642, %for.cond59.dup0 ]
  %y_local.dup03677 = phi [8 x double]* [ %y_local.dup03643, %for.cond59.dup0 ]
  %z_local.dup03678 = phi [8 x double]* [ %z_local.dup03644, %for.cond59.dup0 ]
  %m_elemMass.dup03679 = phi %"class.std::vector"* [ %m_elemMass.dup03634, %for.cond59.dup0 ]
  %m_symmY.dup03680 = phi %"class.std::vector.0"* [ %m_symmY.dup03633, %for.cond59.dup0 ]
  %m_letam.dup03681 = phi %"class.std::vector.0"* [ %m_letam.dup03645, %for.cond59.dup0 ]
  %m_ss.dup03682 = phi %"class.std::vector"* [ %m_ss.dup03652, %for.cond59.dup0 ]
  %m_fz.dup03683 = phi %"class.std::vector"* [ %m_fz.dup03651, %for.cond59.dup0 ]
  %m_letap.dup03684 = phi %"class.std::vector.0"* [ %m_letap.dup03650, %for.cond59.dup0 ]
  %call6.dup03685 = phi i32* [ %call6.dup03649, %for.cond59.dup0 ]
  %m_zdd.dup03686 = phi %"class.std::vector"* [ %m_zdd.dup03640, %for.cond59.dup0 ]
  %m_fy.dup03687 = phi %"class.std::vector"* [ %m_fy.dup03648, %for.cond59.dup0 ]
  %call.dup03688 = phi i32* [ %call.dup03646, %for.cond59.dup0 ]
  %m_zd.dup03689 = phi %"class.std::vector"* [ %m_zd.dup03647, %for.cond59.dup0 ]
  %m_symmZ.dup03690 = phi %"class.std::vector.0"* [ %m_symmZ.dup03636, %for.cond59.dup0 ]
  %m_p.dup03691 = phi %"class.std::vector"* [ %m_p.dup03635, %for.cond59.dup0 ]
  %add.dup03692 = phi i32 [ %add.dup03631, %for.cond59.dup0 ]
  %m_nodelist.dup03693 = phi %"class.std::vector.0"* [ %m_nodelist.dup03630, %for.cond59.dup0 ]
  %m_xd.dup03694 = phi %"class.std::vector"* [ %m_xd.dup03632, %for.cond59.dup0 ]
  %m_elemBC.dup03695 = phi %"class.std::vector.0"* [ %m_elemBC.dup03628, %for.cond59.dup0 ]
  %m_lxip.dup03696 = phi %"class.std::vector.0"* [ %m_lxip.dup03629, %for.cond59.dup0 ]
  %m_arealg.dup03697 = phi %"class.std::vector"* [ %m_arealg.dup03653, %for.cond59.dup0 ]
  %m_vdov.dup03698 = phi %"class.std::vector"* [ %m_vdov.dup03654, %for.cond59.dup0 ]
  %m_symmX.dup03699 = phi %"class.std::vector.0"* [ %m_symmX.dup03655, %for.cond59.dup0 ]
  %m_lzetap.dup03700 = phi %"class.std::vector.0"* [ %m_lzetap.dup03656, %for.cond59.dup0 ]
  %call67.dup05078 = phi double* [ %call67.dup05077, %for.cond59.dup0 ]
  %call71.dup05079 = phi double* [ %call71.dup05076, %for.cond59.dup0 ]
  %call69.dup05080 = phi double* [ %call69.dup05075, %for.cond59.dup0 ]
  %4 = load i32, i32* %call62.dup035, align 4, !tbaa !35
  %cmp63.dup0 = icmp slt i32 %i58.0.dup034, %4
  br i1 %cmp63.dup0, label %for.body65.dup0, label %for.cond.cleanup64.dup0

for.cond59.dup0:                                  ; preds = %for.end57.dup0, %for.inc72.dup0
  %i58.0.dup0 = phi i32 [ %inc73.dup0, %for.inc72.dup0 ], [ 0, %for.end57.dup0 ]
  %inc73.dup01327 = phi i32 [ undef, %for.end57.dup0 ], [ %inc73.dup0, %for.inc72.dup0 ]
  %call54.dup01346 = phi double* [ %call54.dup01345, %for.end57.dup0 ], [ %call54.dup05014, %for.inc72.dup0 ]
  %i41.0.dup01347 = phi i32 [ %i41.0.dup01343, %for.end57.dup0 ], [ %i41.0.dup05050, %for.inc72.dup0 ]
  %call50.dup01348 = phi double* [ %call50.dup01342, %for.end57.dup0 ], [ %call50.dup05056, %for.inc72.dup0 ]
  %call52.dup01349 = phi double* [ %call52.dup01344, %for.end57.dup0 ], [ %call52.dup05011, %for.inc72.dup0 ]
  %call45.dup01350 = phi i32* [ %call45.dup01340, %for.end57.dup0 ], [ %call45.dup05008, %for.inc72.dup0 ]
  %inc56.dup01351 = phi i32 [ %inc56.dup01341, %for.end57.dup0 ], [ %inc56.dup05047, %for.inc72.dup0 ]
  %inc.dup01584 = phi i32 [ %inc.dup01581, %for.end57.dup0 ], [ %inc.dup05041, %for.inc72.dup0 ]
  %call14.dup01585 = phi i32* [ %call14.dup01577, %for.end57.dup0 ], [ %call14.dup05044, %for.inc72.dup0 ]
  %call32.dup01586 = phi i32* [ %call32.dup01574, %for.end57.dup0 ], [ %call32.dup05035, %for.inc72.dup0 ]
  %call23.dup01587 = phi double* [ %call23.dup01583, %for.end57.dup0 ], [ %call23.dup05023, %for.inc72.dup0 ]
  %i.0.dup01588 = phi i32 [ %i.0.dup01582, %for.end57.dup0 ], [ %i.0.dup05020, %for.inc72.dup0 ]
  %call27.dup01589 = phi double* [ %call27.dup01573, %for.end57.dup0 ], [ %call27.dup05019, %for.inc72.dup0 ]
  %inc39.dup01590 = phi i32 [ %inc39.dup01578, %for.end57.dup0 ], [ %inc39.dup05054, %for.inc72.dup0 ]
  %call21.dup01591 = phi double* [ %call21.dup01572, %for.end57.dup0 ], [ %call21.dup05039, %for.inc72.dup0 ]
  %call19.dup01592 = phi i32* [ %call19.dup01579, %for.end57.dup0 ], [ %call19.dup05021, %for.inc72.dup0 ]
  %call25.dup01593 = phi double* [ %call25.dup01580, %for.end57.dup0 ], [ %call25.dup05022, %for.inc72.dup0 ]
  %call11.dup01594 = phi i32* [ %call11.dup01576, %for.end57.dup0 ], [ %call11.dup05025, %for.inc72.dup0 ]
  %i28.0.dup01595 = phi i32 [ %i28.0.dup01575, %for.end57.dup0 ], [ %i28.0.dup05024, %for.inc72.dup0 ]
  %call37.dup02133 = phi double* [ %call37.dup02132, %for.end57.dup0 ], [ %call37.dup05069, %for.inc72.dup0 ]
  %m_ydd.dup03613 = phi %"class.std::vector"* [ %m_ydd.dup03582, %for.end57.dup0 ], [ %m_ydd.dup05033, %for.inc72.dup0 ]
  %m_e.dup03614 = phi %"class.std::vector"* [ %m_e.dup03581, %for.end57.dup0 ], [ %m_e.dup05036, %for.inc72.dup0 ]
  %m_z.dup03615 = phi %"class.std::vector"* [ %m_z.dup03580, %for.end57.dup0 ], [ %m_z.dup05037, %for.inc72.dup0 ]
  %m_delv.dup03616 = phi %"class.std::vector"* [ %m_delv.dup03579, %for.end57.dup0 ], [ %m_delv.dup05074, %for.inc72.dup0 ]
  %m_yd.dup03617 = phi %"class.std::vector"* [ %m_yd.dup03577, %for.end57.dup0 ], [ %m_yd.dup05030, %for.inc72.dup0 ]
  %x_local.dup03618 = phi [8 x double]* [ %x_local.dup03578, %for.end57.dup0 ], [ %x_local.dup05031, %for.inc72.dup0 ]
  %m_q.dup03619 = phi %"class.std::vector"* [ %m_q.dup03576, %for.end57.dup0 ], [ %m_q.dup05032, %for.inc72.dup0 ]
  %m_lzetam.dup03620 = phi %"class.std::vector.0"* [ %m_lzetam.dup03574, %for.end57.dup0 ], [ %m_lzetam.dup05026, %for.inc72.dup0 ]
  %m_nodalMass.dup03621 = phi %"class.std::vector"* [ %m_nodalMass.dup03575, %for.end57.dup0 ], [ %m_nodalMass.dup05027, %for.inc72.dup0 ]
  %m_x.dup03622 = phi %"class.std::vector"* [ %m_x.dup03573, %for.end57.dup0 ], [ %m_x.dup05034, %for.inc72.dup0 ]
  %m_lxim.dup03623 = phi %"class.std::vector.0"* [ %m_lxim.dup03572, %for.end57.dup0 ], [ %m_lxim.dup05028, %for.inc72.dup0 ]
  %call8.dup03624 = phi i8* [ %call8.dup03571, %for.end57.dup0 ], [ %call8.dup05059, %for.inc72.dup0 ]
  %m_ql.dup03625 = phi %"class.std::vector"* [ %m_ql.dup03570, %for.end57.dup0 ], [ %m_ql.dup05060, %for.inc72.dup0 ]
  %m_y.dup03626 = phi %"class.std::vector"* [ %m_y.dup03569, %for.end57.dup0 ], [ %m_y.dup05042, %for.inc72.dup0 ]
  %m_v.dup03627 = phi %"class.std::vector"* [ %m_v.dup03587, %for.end57.dup0 ], [ %m_v.dup05015, %for.inc72.dup0 ]
  %m_elemBC.dup03628 = phi %"class.std::vector.0"* [ %m_elemBC.dup03583, %for.end57.dup0 ], [ %m_elemBC.dup05043, %for.inc72.dup0 ]
  %m_lxip.dup03629 = phi %"class.std::vector.0"* [ %m_lxip.dup03584, %for.end57.dup0 ], [ %m_lxip.dup05010, %for.inc72.dup0 ]
  %m_nodelist.dup03630 = phi %"class.std::vector.0"* [ %m_nodelist.dup03585, %for.end57.dup0 ], [ %m_nodelist.dup05067, %for.inc72.dup0 ]
  %add.dup03631 = phi i32 [ %add.dup03591, %for.end57.dup0 ], [ %add.dup05053, %for.inc72.dup0 ]
  %m_xd.dup03632 = phi %"class.std::vector"* [ %m_xd.dup03586, %for.end57.dup0 ], [ %m_xd.dup05009, %for.inc72.dup0 ]
  %m_symmY.dup03633 = phi %"class.std::vector.0"* [ %m_symmY.dup03595, %for.end57.dup0 ], [ %m_symmY.dup05065, %for.inc72.dup0 ]
  %m_elemMass.dup03634 = phi %"class.std::vector"* [ %m_elemMass.dup03596, %for.end57.dup0 ], [ %m_elemMass.dup05066, %for.inc72.dup0 ]
  %m_p.dup03635 = phi %"class.std::vector"* [ %m_p.dup03593, %for.end57.dup0 ], [ %m_p.dup05063, %for.inc72.dup0 ]
  %m_symmZ.dup03636 = phi %"class.std::vector.0"* [ %m_symmZ.dup03594, %for.end57.dup0 ], [ %m_symmZ.dup05064, %for.inc72.dup0 ]
  %m_vnew.dup03637 = phi %"class.std::vector"* [ %m_vnew.dup03597, %for.end57.dup0 ], [ %m_vnew.dup05017, %for.inc72.dup0 ]
  %m_fx.dup03638 = phi %"class.std::vector"* [ %m_fx.dup03598, %for.end57.dup0 ], [ %m_fx.dup05018, %for.inc72.dup0 ]
  %m_volo.dup03639 = phi %"class.std::vector"* [ %m_volo.dup03599, %for.end57.dup0 ], [ %m_volo.dup05016, %for.inc72.dup0 ]
  %m_zdd.dup03640 = phi %"class.std::vector"* [ %m_zdd.dup03600, %for.end57.dup0 ], [ %m_zdd.dup05046, %for.inc72.dup0 ]
  %m_qq.dup03641 = phi %"class.std::vector"* [ %m_qq.dup03601, %for.end57.dup0 ], [ %m_qq.dup05062, %for.inc72.dup0 ]
  %m_xdd.dup03642 = phi %"class.std::vector"* [ %m_xdd.dup03602, %for.end57.dup0 ], [ %m_xdd.dup05061, %for.inc72.dup0 ]
  %y_local.dup03643 = phi [8 x double]* [ %y_local.dup03607, %for.end57.dup0 ], [ %y_local.dup05073, %for.inc72.dup0 ]
  %z_local.dup03644 = phi [8 x double]* [ %z_local.dup03608, %for.end57.dup0 ], [ %z_local.dup05012, %for.inc72.dup0 ]
  %m_letam.dup03645 = phi %"class.std::vector.0"* [ %m_letam.dup03606, %for.end57.dup0 ], [ %m_letam.dup05045, %for.inc72.dup0 ]
  %call.dup03646 = phi i32* [ %call.dup03604, %for.end57.dup0 ], [ %call.dup05057, %for.inc72.dup0 ]
  %m_zd.dup03647 = phi %"class.std::vector"* [ %m_zd.dup03605, %for.end57.dup0 ], [ %m_zd.dup05058, %for.inc72.dup0 ]
  %m_fy.dup03648 = phi %"class.std::vector"* [ %m_fy.dup03603, %for.end57.dup0 ], [ %m_fy.dup05040, %for.inc72.dup0 ]
  %call6.dup03649 = phi i32* [ %call6.dup03592, %for.end57.dup0 ], [ %call6.dup05068, %for.inc72.dup0 ]
  %m_letap.dup03650 = phi %"class.std::vector.0"* [ %m_letap.dup03590, %for.end57.dup0 ], [ %m_letap.dup05070, %for.inc72.dup0 ]
  %m_fz.dup03651 = phi %"class.std::vector"* [ %m_fz.dup03589, %for.end57.dup0 ], [ %m_fz.dup05071, %for.inc72.dup0 ]
  %m_ss.dup03652 = phi %"class.std::vector"* [ %m_ss.dup03588, %for.end57.dup0 ], [ %m_ss.dup05072, %for.inc72.dup0 ]
  %m_arealg.dup03653 = phi %"class.std::vector"* [ %m_arealg.dup03609, %for.end57.dup0 ], [ %m_arealg.dup05048, %for.inc72.dup0 ]
  %m_vdov.dup03654 = phi %"class.std::vector"* [ %m_vdov.dup03610, %for.end57.dup0 ], [ %m_vdov.dup05052, %for.inc72.dup0 ]
  %m_symmX.dup03655 = phi %"class.std::vector.0"* [ %m_symmX.dup03612, %for.end57.dup0 ], [ %m_symmX.dup05051, %for.inc72.dup0 ]
  %m_lzetap.dup03656 = phi %"class.std::vector.0"* [ %m_lzetap.dup03611, %for.end57.dup0 ], [ %m_lzetap.dup05049, %for.inc72.dup0 ]
  %call69.dup05075 = phi double* [ undef, %for.end57.dup0 ], [ %call69.dup05007, %for.inc72.dup0 ]
  %call71.dup05076 = phi double* [ undef, %for.end57.dup0 ], [ %call71.dup05013, %for.inc72.dup0 ]
  %call67.dup05077 = phi double* [ undef, %for.end57.dup0 ], [ %call67.dup05029, %for.inc72.dup0 ]
  %call62.dup0 = invoke nonnull align 4 dereferenceable(4) i32* @_ZN6Domain7numNodeEv(%class.Domain* %this)
          to label %invoke.cont61 unwind label %lpad60

for.end57.dup0:                                   ; preds = %for.cond.cleanup47.dup0
  %call45.dup01340 = phi i32* [ %call45.dup0614, %for.cond.cleanup47.dup0 ]
  %inc56.dup01341 = phi i32 [ %inc56.dup0613, %for.cond.cleanup47.dup0 ]
  %call50.dup01342 = phi double* [ %call50.dup0821, %for.cond.cleanup47.dup0 ]
  %i41.0.dup01343 = phi i32 [ %i41.0.dup0615, %for.cond.cleanup47.dup0 ]
  %call52.dup01344 = phi double* [ %call52.dup0822, %for.cond.cleanup47.dup0 ]
  %call54.dup01345 = phi double* [ %call54.dup0616, %for.cond.cleanup47.dup0 ]
  %call21.dup01572 = phi double* [ %call21.dup01568, %for.cond.cleanup47.dup0 ]
  %call27.dup01573 = phi double* [ %call27.dup01563, %for.cond.cleanup47.dup0 ]
  %call32.dup01574 = phi i32* [ %call32.dup01562, %for.cond.cleanup47.dup0 ]
  %i28.0.dup01575 = phi i32 [ %i28.0.dup01566, %for.cond.cleanup47.dup0 ]
  %call11.dup01576 = phi i32* [ %call11.dup01565, %for.cond.cleanup47.dup0 ]
  %call14.dup01577 = phi i32* [ %call14.dup01571, %for.cond.cleanup47.dup0 ]
  %inc39.dup01578 = phi i32 [ %inc39.dup01567, %for.cond.cleanup47.dup0 ]
  %call19.dup01579 = phi i32* [ %call19.dup01569, %for.cond.cleanup47.dup0 ]
  %call25.dup01580 = phi double* [ %call25.dup01570, %for.cond.cleanup47.dup0 ]
  %inc.dup01581 = phi i32 [ %inc.dup01560, %for.cond.cleanup47.dup0 ]
  %i.0.dup01582 = phi i32 [ %i.0.dup01561, %for.cond.cleanup47.dup0 ]
  %call23.dup01583 = phi double* [ %call23.dup01564, %for.cond.cleanup47.dup0 ]
  %call37.dup02132 = phi double* [ %call37.dup02131, %for.cond.cleanup47.dup0 ]
  %m_y.dup03569 = phi %"class.std::vector"* [ %m_y.dup03538, %for.cond.cleanup47.dup0 ]
  %m_ql.dup03570 = phi %"class.std::vector"* [ %m_ql.dup03537, %for.cond.cleanup47.dup0 ]
  %call8.dup03571 = phi i8* [ %call8.dup03536, %for.cond.cleanup47.dup0 ]
  %m_lxim.dup03572 = phi %"class.std::vector.0"* [ %m_lxim.dup03535, %for.cond.cleanup47.dup0 ]
  %m_x.dup03573 = phi %"class.std::vector"* [ %m_x.dup03534, %for.cond.cleanup47.dup0 ]
  %m_lzetam.dup03574 = phi %"class.std::vector.0"* [ %m_lzetam.dup03532, %for.cond.cleanup47.dup0 ]
  %m_nodalMass.dup03575 = phi %"class.std::vector"* [ %m_nodalMass.dup03533, %for.cond.cleanup47.dup0 ]
  %m_q.dup03576 = phi %"class.std::vector"* [ %m_q.dup03531, %for.cond.cleanup47.dup0 ]
  %m_yd.dup03577 = phi %"class.std::vector"* [ %m_yd.dup03529, %for.cond.cleanup47.dup0 ]
  %x_local.dup03578 = phi [8 x double]* [ %x_local.dup03530, %for.cond.cleanup47.dup0 ]
  %m_delv.dup03579 = phi %"class.std::vector"* [ %m_delv.dup03528, %for.cond.cleanup47.dup0 ]
  %m_z.dup03580 = phi %"class.std::vector"* [ %m_z.dup03527, %for.cond.cleanup47.dup0 ]
  %m_e.dup03581 = phi %"class.std::vector"* [ %m_e.dup03526, %for.cond.cleanup47.dup0 ]
  %m_ydd.dup03582 = phi %"class.std::vector"* [ %m_ydd.dup03525, %for.cond.cleanup47.dup0 ]
  %m_elemBC.dup03583 = phi %"class.std::vector.0"* [ %m_elemBC.dup03539, %for.cond.cleanup47.dup0 ]
  %m_lxip.dup03584 = phi %"class.std::vector.0"* [ %m_lxip.dup03540, %for.cond.cleanup47.dup0 ]
  %m_nodelist.dup03585 = phi %"class.std::vector.0"* [ %m_nodelist.dup03541, %for.cond.cleanup47.dup0 ]
  %m_xd.dup03586 = phi %"class.std::vector"* [ %m_xd.dup03542, %for.cond.cleanup47.dup0 ]
  %m_v.dup03587 = phi %"class.std::vector"* [ %m_v.dup03565, %for.cond.cleanup47.dup0 ]
  %m_ss.dup03588 = phi %"class.std::vector"* [ %m_ss.dup03548, %for.cond.cleanup47.dup0 ]
  %m_fz.dup03589 = phi %"class.std::vector"* [ %m_fz.dup03549, %for.cond.cleanup47.dup0 ]
  %m_letap.dup03590 = phi %"class.std::vector.0"* [ %m_letap.dup03550, %for.cond.cleanup47.dup0 ]
  %add.dup03591 = phi i32 [ %add.dup03562, %for.cond.cleanup47.dup0 ]
  %call6.dup03592 = phi i32* [ %call6.dup03563, %for.cond.cleanup47.dup0 ]
  %m_p.dup03593 = phi %"class.std::vector"* [ %m_p.dup03561, %for.cond.cleanup47.dup0 ]
  %m_symmZ.dup03594 = phi %"class.std::vector.0"* [ %m_symmZ.dup03560, %for.cond.cleanup47.dup0 ]
  %m_symmY.dup03595 = phi %"class.std::vector.0"* [ %m_symmY.dup03546, %for.cond.cleanup47.dup0 ]
  %m_elemMass.dup03596 = phi %"class.std::vector"* [ %m_elemMass.dup03545, %for.cond.cleanup47.dup0 ]
  %m_vnew.dup03597 = phi %"class.std::vector"* [ %m_vnew.dup03551, %for.cond.cleanup47.dup0 ]
  %m_fx.dup03598 = phi %"class.std::vector"* [ %m_fx.dup03552, %for.cond.cleanup47.dup0 ]
  %m_volo.dup03599 = phi %"class.std::vector"* [ %m_volo.dup03553, %for.cond.cleanup47.dup0 ]
  %m_zdd.dup03600 = phi %"class.std::vector"* [ %m_zdd.dup03554, %for.cond.cleanup47.dup0 ]
  %m_qq.dup03601 = phi %"class.std::vector"* [ %m_qq.dup03555, %for.cond.cleanup47.dup0 ]
  %m_xdd.dup03602 = phi %"class.std::vector"* [ %m_xdd.dup03556, %for.cond.cleanup47.dup0 ]
  %m_fy.dup03603 = phi %"class.std::vector"* [ %m_fy.dup03559, %for.cond.cleanup47.dup0 ]
  %call.dup03604 = phi i32* [ %call.dup03557, %for.cond.cleanup47.dup0 ]
  %m_zd.dup03605 = phi %"class.std::vector"* [ %m_zd.dup03558, %for.cond.cleanup47.dup0 ]
  %m_letam.dup03606 = phi %"class.std::vector.0"* [ %m_letam.dup03547, %for.cond.cleanup47.dup0 ]
  %y_local.dup03607 = phi [8 x double]* [ %y_local.dup03544, %for.cond.cleanup47.dup0 ]
  %z_local.dup03608 = phi [8 x double]* [ %z_local.dup03543, %for.cond.cleanup47.dup0 ]
  %m_arealg.dup03609 = phi %"class.std::vector"* [ %m_arealg.dup03564, %for.cond.cleanup47.dup0 ]
  %m_vdov.dup03610 = phi %"class.std::vector"* [ %m_vdov.dup03566, %for.cond.cleanup47.dup0 ]
  %m_lzetap.dup03611 = phi %"class.std::vector.0"* [ %m_lzetap.dup03568, %for.cond.cleanup47.dup0 ]
  %m_symmX.dup03612 = phi %"class.std::vector.0"* [ %m_symmX.dup03567, %for.cond.cleanup47.dup0 ]
  br label %for.cond59.dup0

for.cond.cleanup47.dup0:                          ; preds = %invoke.cont44.dup0
  %inc56.dup0613 = phi i32 [ %inc56.dup0602, %invoke.cont44.dup0 ]
  %call45.dup0614 = phi i32* [ %call45.dup0601, %invoke.cont44.dup0 ]
  %i41.0.dup0615 = phi i32 [ %i41.0.dup0604, %invoke.cont44.dup0 ]
  %call54.dup0616 = phi double* [ %call54.dup0603, %invoke.cont44.dup0 ]
  %call50.dup0821 = phi double* [ %call50.dup0818, %invoke.cont44.dup0 ]
  %call52.dup0822 = phi double* [ %call52.dup0819, %invoke.cont44.dup0 ]
  %inc.dup01560 = phi i32 [ %inc.dup01496, %invoke.cont44.dup0 ]
  %i.0.dup01561 = phi i32 [ %i.0.dup01491, %invoke.cont44.dup0 ]
  %call32.dup01562 = phi i32* [ %call32.dup01489, %invoke.cont44.dup0 ]
  %call27.dup01563 = phi double* [ %call27.dup01492, %invoke.cont44.dup0 ]
  %call23.dup01564 = phi double* [ %call23.dup01499, %invoke.cont44.dup0 ]
  %call11.dup01565 = phi i32* [ %call11.dup01497, %invoke.cont44.dup0 ]
  %i28.0.dup01566 = phi i32 [ %i28.0.dup01498, %invoke.cont44.dup0 ]
  %inc39.dup01567 = phi i32 [ %inc39.dup01493, %invoke.cont44.dup0 ]
  %call21.dup01568 = phi double* [ %call21.dup01488, %invoke.cont44.dup0 ]
  %call19.dup01569 = phi i32* [ %call19.dup01495, %invoke.cont44.dup0 ]
  %call25.dup01570 = phi double* [ %call25.dup01494, %invoke.cont44.dup0 ]
  %call14.dup01571 = phi i32* [ %call14.dup01490, %invoke.cont44.dup0 ]
  %call37.dup02131 = phi double* [ %call37.dup02125, %invoke.cont44.dup0 ]
  %m_ydd.dup03525 = phi %"class.std::vector"* [ %m_ydd.dup02922, %invoke.cont44.dup0 ]
  %m_e.dup03526 = phi %"class.std::vector"* [ %m_e.dup02921, %invoke.cont44.dup0 ]
  %m_z.dup03527 = phi %"class.std::vector"* [ %m_z.dup02920, %invoke.cont44.dup0 ]
  %m_delv.dup03528 = phi %"class.std::vector"* [ %m_delv.dup02919, %invoke.cont44.dup0 ]
  %m_yd.dup03529 = phi %"class.std::vector"* [ %m_yd.dup02917, %invoke.cont44.dup0 ]
  %x_local.dup03530 = phi [8 x double]* [ %x_local.dup02918, %invoke.cont44.dup0 ]
  %m_q.dup03531 = phi %"class.std::vector"* [ %m_q.dup02916, %invoke.cont44.dup0 ]
  %m_lzetam.dup03532 = phi %"class.std::vector.0"* [ %m_lzetam.dup02914, %invoke.cont44.dup0 ]
  %m_nodalMass.dup03533 = phi %"class.std::vector"* [ %m_nodalMass.dup02915, %invoke.cont44.dup0 ]
  %m_x.dup03534 = phi %"class.std::vector"* [ %m_x.dup02913, %invoke.cont44.dup0 ]
  %m_lxim.dup03535 = phi %"class.std::vector.0"* [ %m_lxim.dup02912, %invoke.cont44.dup0 ]
  %call8.dup03536 = phi i8* [ %call8.dup02911, %invoke.cont44.dup0 ]
  %m_ql.dup03537 = phi %"class.std::vector"* [ %m_ql.dup02910, %invoke.cont44.dup0 ]
  %m_y.dup03538 = phi %"class.std::vector"* [ %m_y.dup02909, %invoke.cont44.dup0 ]
  %m_elemBC.dup03539 = phi %"class.std::vector.0"* [ %m_elemBC.dup02923, %invoke.cont44.dup0 ]
  %m_lxip.dup03540 = phi %"class.std::vector.0"* [ %m_lxip.dup02924, %invoke.cont44.dup0 ]
  %m_nodelist.dup03541 = phi %"class.std::vector.0"* [ %m_nodelist.dup02925, %invoke.cont44.dup0 ]
  %m_xd.dup03542 = phi %"class.std::vector"* [ %m_xd.dup02926, %invoke.cont44.dup0 ]
  %z_local.dup03543 = phi [8 x double]* [ %z_local.dup02938, %invoke.cont44.dup0 ]
  %y_local.dup03544 = phi [8 x double]* [ %y_local.dup02939, %invoke.cont44.dup0 ]
  %m_elemMass.dup03545 = phi %"class.std::vector"* [ %m_elemMass.dup02933, %invoke.cont44.dup0 ]
  %m_symmY.dup03546 = phi %"class.std::vector.0"* [ %m_symmY.dup02930, %invoke.cont44.dup0 ]
  %m_letam.dup03547 = phi %"class.std::vector.0"* [ %m_letam.dup02940, %invoke.cont44.dup0 ]
  %m_ss.dup03548 = phi %"class.std::vector"* [ %m_ss.dup02941, %invoke.cont44.dup0 ]
  %m_fz.dup03549 = phi %"class.std::vector"* [ %m_fz.dup02942, %invoke.cont44.dup0 ]
  %m_letap.dup03550 = phi %"class.std::vector.0"* [ %m_letap.dup02943, %invoke.cont44.dup0 ]
  %m_vnew.dup03551 = phi %"class.std::vector"* [ %m_vnew.dup02934, %invoke.cont44.dup0 ]
  %m_fx.dup03552 = phi %"class.std::vector"* [ %m_fx.dup02935, %invoke.cont44.dup0 ]
  %m_volo.dup03553 = phi %"class.std::vector"* [ %m_volo.dup02947, %invoke.cont44.dup0 ]
  %m_zdd.dup03554 = phi %"class.std::vector"* [ %m_zdd.dup02948, %invoke.cont44.dup0 ]
  %m_qq.dup03555 = phi %"class.std::vector"* [ %m_qq.dup02945, %invoke.cont44.dup0 ]
  %m_xdd.dup03556 = phi %"class.std::vector"* [ %m_xdd.dup02946, %invoke.cont44.dup0 ]
  %call.dup03557 = phi i32* [ %call.dup02937, %invoke.cont44.dup0 ]
  %m_zd.dup03558 = phi %"class.std::vector"* [ %m_zd.dup02936, %invoke.cont44.dup0 ]
  %m_fy.dup03559 = phi %"class.std::vector"* [ %m_fy.dup02944, %invoke.cont44.dup0 ]
  %m_symmZ.dup03560 = phi %"class.std::vector.0"* [ %m_symmZ.dup02932, %invoke.cont44.dup0 ]
  %m_p.dup03561 = phi %"class.std::vector"* [ %m_p.dup02931, %invoke.cont44.dup0 ]
  %add.dup03562 = phi i32 [ %add.dup02928, %invoke.cont44.dup0 ]
  %call6.dup03563 = phi i32* [ %call6.dup02929, %invoke.cont44.dup0 ]
  %m_arealg.dup03564 = phi %"class.std::vector"* [ %m_arealg.dup02949, %invoke.cont44.dup0 ]
  %m_v.dup03565 = phi %"class.std::vector"* [ %m_v.dup02927, %invoke.cont44.dup0 ]
  %m_vdov.dup03566 = phi %"class.std::vector"* [ %m_vdov.dup02950, %invoke.cont44.dup0 ]
  %m_symmX.dup03567 = phi %"class.std::vector.0"* [ %m_symmX.dup02951, %invoke.cont44.dup0 ]
  %m_lzetap.dup03568 = phi %"class.std::vector.0"* [ %m_lzetap.dup02952, %invoke.cont44.dup0 ]
  br label %for.end57.dup0

invoke.cont44.dup0:                               ; No predecessors!
  %call45.dup0601 = phi i32* [ %call45.dup0, %for.cond42.dup0 ]
  %inc56.dup0602 = phi i32 [ %inc56.dup091, %for.cond42.dup0 ]
  %call54.dup0603 = phi double* [ %call54.dup0347, %for.cond42.dup0 ]
  %i41.0.dup0604 = phi i32 [ %i41.0.dup0, %for.cond42.dup0 ]
  %call50.dup0818 = phi double* [ %call50.dup0816, %for.cond42.dup0 ]
  %call52.dup0819 = phi double* [ %call52.dup0817, %for.cond42.dup0 ]
  %call21.dup01488 = phi double* [ %call21.dup01485, %for.cond42.dup0 ]
  %call32.dup01489 = phi i32* [ %call32.dup01477, %for.cond42.dup0 ]
  %call14.dup01490 = phi i32* [ %call14.dup01487, %for.cond42.dup0 ]
  %i.0.dup01491 = phi i32 [ %i.0.dup01486, %for.cond42.dup0 ]
  %call27.dup01492 = phi double* [ %call27.dup01479, %for.cond42.dup0 ]
  %inc39.dup01493 = phi i32 [ %inc39.dup01478, %for.cond42.dup0 ]
  %call25.dup01494 = phi double* [ %call25.dup01484, %for.cond42.dup0 ]
  %call19.dup01495 = phi i32* [ %call19.dup01483, %for.cond42.dup0 ]
  %inc.dup01496 = phi i32 [ %inc.dup01476, %for.cond42.dup0 ]
  %call11.dup01497 = phi i32* [ %call11.dup01480, %for.cond42.dup0 ]
  %i28.0.dup01498 = phi i32 [ %i28.0.dup01481, %for.cond42.dup0 ]
  %call23.dup01499 = phi double* [ %call23.dup01482, %for.cond42.dup0 ]
  %call37.dup02125 = phi double* [ %call37.dup02124, %for.cond42.dup0 ]
  %m_y.dup02909 = phi %"class.std::vector"* [ %m_y.dup02879, %for.cond42.dup0 ]
  %m_ql.dup02910 = phi %"class.std::vector"* [ %m_ql.dup02878, %for.cond42.dup0 ]
  %call8.dup02911 = phi i8* [ %call8.dup02877, %for.cond42.dup0 ]
  %m_lxim.dup02912 = phi %"class.std::vector.0"* [ %m_lxim.dup02876, %for.cond42.dup0 ]
  %m_x.dup02913 = phi %"class.std::vector"* [ %m_x.dup02875, %for.cond42.dup0 ]
  %m_lzetam.dup02914 = phi %"class.std::vector.0"* [ %m_lzetam.dup02873, %for.cond42.dup0 ]
  %m_nodalMass.dup02915 = phi %"class.std::vector"* [ %m_nodalMass.dup02874, %for.cond42.dup0 ]
  %m_q.dup02916 = phi %"class.std::vector"* [ %m_q.dup02872, %for.cond42.dup0 ]
  %m_yd.dup02917 = phi %"class.std::vector"* [ %m_yd.dup02870, %for.cond42.dup0 ]
  %x_local.dup02918 = phi [8 x double]* [ %x_local.dup02871, %for.cond42.dup0 ]
  %m_delv.dup02919 = phi %"class.std::vector"* [ %m_delv.dup02868, %for.cond42.dup0 ]
  %m_z.dup02920 = phi %"class.std::vector"* [ %m_z.dup02867, %for.cond42.dup0 ]
  %m_e.dup02921 = phi %"class.std::vector"* [ %m_e.dup02866, %for.cond42.dup0 ]
  %m_ydd.dup02922 = phi %"class.std::vector"* [ %m_ydd.dup02865, %for.cond42.dup0 ]
  %m_elemBC.dup02923 = phi %"class.std::vector.0"* [ %m_elemBC.dup02885, %for.cond42.dup0 ]
  %m_lxip.dup02924 = phi %"class.std::vector.0"* [ %m_lxip.dup02901, %for.cond42.dup0 ]
  %m_nodelist.dup02925 = phi %"class.std::vector.0"* [ %m_nodelist.dup02869, %for.cond42.dup0 ]
  %m_xd.dup02926 = phi %"class.std::vector"* [ %m_xd.dup02900, %for.cond42.dup0 ]
  %m_v.dup02927 = phi %"class.std::vector"* [ %m_v.dup02887, %for.cond42.dup0 ]
  %add.dup02928 = phi i32 [ %add.dup02890, %for.cond42.dup0 ]
  %call6.dup02929 = phi i32* [ %call6.dup02894, %for.cond42.dup0 ]
  %m_symmY.dup02930 = phi %"class.std::vector.0"* [ %m_symmY.dup02888, %for.cond42.dup0 ]
  %m_p.dup02931 = phi %"class.std::vector"* [ %m_p.dup02892, %for.cond42.dup0 ]
  %m_symmZ.dup02932 = phi %"class.std::vector.0"* [ %m_symmZ.dup02891, %for.cond42.dup0 ]
  %m_elemMass.dup02933 = phi %"class.std::vector"* [ %m_elemMass.dup02889, %for.cond42.dup0 ]
  %m_vnew.dup02934 = phi %"class.std::vector"* [ %m_vnew.dup02898, %for.cond42.dup0 ]
  %m_fx.dup02935 = phi %"class.std::vector"* [ %m_fx.dup02899, %for.cond42.dup0 ]
  %m_zd.dup02936 = phi %"class.std::vector"* [ %m_zd.dup02907, %for.cond42.dup0 ]
  %call.dup02937 = phi i32* [ %call.dup02908, %for.cond42.dup0 ]
  %z_local.dup02938 = phi [8 x double]* [ %z_local.dup02906, %for.cond42.dup0 ]
  %y_local.dup02939 = phi [8 x double]* [ %y_local.dup02905, %for.cond42.dup0 ]
  %m_letam.dup02940 = phi %"class.std::vector.0"* [ %m_letam.dup02886, %for.cond42.dup0 ]
  %m_ss.dup02941 = phi %"class.std::vector"* [ %m_ss.dup02902, %for.cond42.dup0 ]
  %m_fz.dup02942 = phi %"class.std::vector"* [ %m_fz.dup02904, %for.cond42.dup0 ]
  %m_letap.dup02943 = phi %"class.std::vector.0"* [ %m_letap.dup02903, %for.cond42.dup0 ]
  %m_fy.dup02944 = phi %"class.std::vector"* [ %m_fy.dup02884, %for.cond42.dup0 ]
  %m_qq.dup02945 = phi %"class.std::vector"* [ %m_qq.dup02883, %for.cond42.dup0 ]
  %m_xdd.dup02946 = phi %"class.std::vector"* [ %m_xdd.dup02882, %for.cond42.dup0 ]
  %m_volo.dup02947 = phi %"class.std::vector"* [ %m_volo.dup02880, %for.cond42.dup0 ]
  %m_zdd.dup02948 = phi %"class.std::vector"* [ %m_zdd.dup02881, %for.cond42.dup0 ]
  %m_arealg.dup02949 = phi %"class.std::vector"* [ %m_arealg.dup02893, %for.cond42.dup0 ]
  %m_vdov.dup02950 = phi %"class.std::vector"* [ %m_vdov.dup02897, %for.cond42.dup0 ]
  %m_symmX.dup02951 = phi %"class.std::vector.0"* [ %m_symmX.dup02896, %for.cond42.dup0 ]
  %m_lzetap.dup02952 = phi %"class.std::vector.0"* [ %m_lzetap.dup02895, %for.cond42.dup0 ]
  %5 = load i32, i32* %call45.dup0601, align 4, !tbaa !35
  %cmp46.dup0 = icmp slt i32 %i41.0.dup0604, %5
  br i1 %cmp46.dup0, label %for.body48.dup0, label %for.cond.cleanup47.dup0

for.cond42.dup0:                                  ; preds = %for.inc55.dup0, %for.end40.dup0
  %i41.0.dup0 = phi i32 [ 0, %for.end40.dup0 ], [ %inc56.dup0, %for.inc55.dup0 ]
  %inc56.dup091 = phi i32 [ %inc56.dup0, %for.inc55.dup0 ], [ undef, %for.end40.dup0 ]
  %call54.dup0347 = phi double* [ %call54.dup0346, %for.inc55.dup0 ], [ undef, %for.end40.dup0 ]
  %call50.dup0816 = phi double* [ %call50.dup0812, %for.inc55.dup0 ], [ undef, %for.end40.dup0 ]
  %call52.dup0817 = phi double* [ %call52.dup0814, %for.inc55.dup0 ], [ undef, %for.end40.dup0 ]
  %inc.dup01476 = phi i32 [ %inc.dup01559, %for.inc55.dup0 ], [ %inc.dup01469, %for.end40.dup0 ]
  %call32.dup01477 = phi i32* [ %call32.dup01553, %for.inc55.dup0 ], [ %call32.dup01468, %for.end40.dup0 ]
  %inc39.dup01478 = phi i32 [ %inc39.dup01556, %for.inc55.dup0 ], [ %inc39.dup01473, %for.end40.dup0 ]
  %call27.dup01479 = phi double* [ %call27.dup01550, %for.inc55.dup0 ], [ %call27.dup01466, %for.end40.dup0 ]
  %call11.dup01480 = phi i32* [ %call11.dup01557, %for.inc55.dup0 ], [ %call11.dup01467, %for.end40.dup0 ]
  %i28.0.dup01481 = phi i32 [ %i28.0.dup01558, %for.inc55.dup0 ], [ %i28.0.dup01475, %for.end40.dup0 ]
  %call23.dup01482 = phi double* [ %call23.dup01548, %for.inc55.dup0 ], [ %call23.dup01474, %for.end40.dup0 ]
  %call19.dup01483 = phi i32* [ %call19.dup01555, %for.inc55.dup0 ], [ %call19.dup01472, %for.end40.dup0 ]
  %call25.dup01484 = phi double* [ %call25.dup01554, %for.inc55.dup0 ], [ %call25.dup01471, %for.end40.dup0 ]
  %call21.dup01485 = phi double* [ %call21.dup01551, %for.inc55.dup0 ], [ %call21.dup01470, %for.end40.dup0 ]
  %i.0.dup01486 = phi i32 [ %i.0.dup01552, %for.inc55.dup0 ], [ %i.0.dup01465, %for.end40.dup0 ]
  %call14.dup01487 = phi i32* [ %call14.dup01549, %for.inc55.dup0 ], [ %call14.dup01464, %for.end40.dup0 ]
  %call37.dup02124 = phi double* [ %call37.dup02130, %for.inc55.dup0 ], [ %call37.dup02123, %for.end40.dup0 ]
  %m_ydd.dup02865 = phi %"class.std::vector"* [ %m_ydd.dup03129, %for.inc55.dup0 ], [ %m_ydd.dup02843, %for.end40.dup0 ]
  %m_e.dup02866 = phi %"class.std::vector"* [ %m_e.dup03130, %for.inc55.dup0 ], [ %m_e.dup02840, %for.end40.dup0 ]
  %m_z.dup02867 = phi %"class.std::vector"* [ %m_z.dup03131, %for.inc55.dup0 ], [ %m_z.dup02839, %for.end40.dup0 ]
  %m_delv.dup02868 = phi %"class.std::vector"* [ %m_delv.dup03132, %for.inc55.dup0 ], [ %m_delv.dup02838, %for.end40.dup0 ]
  %m_nodelist.dup02869 = phi %"class.std::vector.0"* [ %m_nodelist.dup03151, %for.inc55.dup0 ], [ %m_nodelist.dup02836, %for.end40.dup0 ]
  %m_yd.dup02870 = phi %"class.std::vector"* [ %m_yd.dup03133, %for.inc55.dup0 ], [ %m_yd.dup02833, %for.end40.dup0 ]
  %x_local.dup02871 = phi [8 x double]* [ %x_local.dup03134, %for.inc55.dup0 ], [ %x_local.dup02834, %for.end40.dup0 ]
  %m_q.dup02872 = phi %"class.std::vector"* [ %m_q.dup03135, %for.inc55.dup0 ], [ %m_q.dup02832, %for.end40.dup0 ]
  %m_lzetam.dup02873 = phi %"class.std::vector.0"* [ %m_lzetam.dup03136, %for.inc55.dup0 ], [ %m_lzetam.dup02830, %for.end40.dup0 ]
  %m_nodalMass.dup02874 = phi %"class.std::vector"* [ %m_nodalMass.dup03137, %for.inc55.dup0 ], [ %m_nodalMass.dup02829, %for.end40.dup0 ]
  %m_x.dup02875 = phi %"class.std::vector"* [ %m_x.dup03138, %for.inc55.dup0 ], [ %m_x.dup02828, %for.end40.dup0 ]
  %m_lxim.dup02876 = phi %"class.std::vector.0"* [ %m_lxim.dup03142, %for.inc55.dup0 ], [ %m_lxim.dup02824, %for.end40.dup0 ]
  %call8.dup02877 = phi i8* [ %call8.dup03139, %for.inc55.dup0 ], [ %call8.dup02822, %for.end40.dup0 ]
  %m_ql.dup02878 = phi %"class.std::vector"* [ %m_ql.dup03140, %for.inc55.dup0 ], [ %m_ql.dup02823, %for.end40.dup0 ]
  %m_y.dup02879 = phi %"class.std::vector"* [ %m_y.dup03141, %for.inc55.dup0 ], [ %m_y.dup02821, %for.end40.dup0 ]
  %m_volo.dup02880 = phi %"class.std::vector"* [ %m_volo.dup03169, %for.inc55.dup0 ], [ %m_volo.dup02842, %for.end40.dup0 ]
  %m_zdd.dup02881 = phi %"class.std::vector"* [ %m_zdd.dup03168, %for.inc55.dup0 ], [ %m_zdd.dup02841, %for.end40.dup0 ]
  %m_xdd.dup02882 = phi %"class.std::vector"* [ %m_xdd.dup03166, %for.inc55.dup0 ], [ %m_xdd.dup02845, %for.end40.dup0 ]
  %m_qq.dup02883 = phi %"class.std::vector"* [ %m_qq.dup03167, %for.inc55.dup0 ], [ %m_qq.dup02846, %for.end40.dup0 ]
  %m_fy.dup02884 = phi %"class.std::vector"* [ %m_fy.dup03150, %for.inc55.dup0 ], [ %m_fy.dup02847, %for.end40.dup0 ]
  %m_elemBC.dup02885 = phi %"class.std::vector.0"* [ %m_elemBC.dup03170, %for.inc55.dup0 ], [ %m_elemBC.dup02835, %for.end40.dup0 ]
  %m_letam.dup02886 = phi %"class.std::vector.0"* [ %m_letam.dup03160, %for.inc55.dup0 ], [ %m_letam.dup02854, %for.end40.dup0 ]
  %m_v.dup02887 = phi %"class.std::vector"* [ %m_v.dup03172, %for.inc55.dup0 ], [ %m_v.dup02844, %for.end40.dup0 ]
  %m_symmY.dup02888 = phi %"class.std::vector.0"* [ %m_symmY.dup03157, %for.inc55.dup0 ], [ %m_symmY.dup02856, %for.end40.dup0 ]
  %m_elemMass.dup02889 = phi %"class.std::vector"* [ %m_elemMass.dup03158, %for.inc55.dup0 ], [ %m_elemMass.dup02855, %for.end40.dup0 ]
  %add.dup02890 = phi i32 [ %add.dup03152, %for.inc55.dup0 ], [ %add.dup02859, %for.end40.dup0 ]
  %m_symmZ.dup02891 = phi %"class.std::vector.0"* [ %m_symmZ.dup03156, %for.inc55.dup0 ], [ %m_symmZ.dup02857, %for.end40.dup0 ]
  %m_p.dup02892 = phi %"class.std::vector"* [ %m_p.dup03155, %for.inc55.dup0 ], [ %m_p.dup02858, %for.end40.dup0 ]
  %m_arealg.dup02893 = phi %"class.std::vector"* [ %m_arealg.dup03171, %for.inc55.dup0 ], [ %m_arealg.dup02831, %for.end40.dup0 ]
  %call6.dup02894 = phi i32* [ %call6.dup03159, %for.inc55.dup0 ], [ %call6.dup02862, %for.end40.dup0 ]
  %m_lzetap.dup02895 = phi %"class.std::vector.0"* [ %m_lzetap.dup03144, %for.inc55.dup0 ], [ %m_lzetap.dup02826, %for.end40.dup0 ]
  %m_symmX.dup02896 = phi %"class.std::vector.0"* [ %m_symmX.dup03143, %for.inc55.dup0 ], [ %m_symmX.dup02825, %for.end40.dup0 ]
  %m_vdov.dup02897 = phi %"class.std::vector"* [ %m_vdov.dup03145, %for.inc55.dup0 ], [ %m_vdov.dup02827, %for.end40.dup0 ]
  %m_vnew.dup02898 = phi %"class.std::vector"* [ %m_vnew.dup03149, %for.inc55.dup0 ], [ %m_vnew.dup02851, %for.end40.dup0 ]
  %m_fx.dup02899 = phi %"class.std::vector"* [ %m_fx.dup03148, %for.inc55.dup0 ], [ %m_fx.dup02850, %for.end40.dup0 ]
  %m_xd.dup02900 = phi %"class.std::vector"* [ %m_xd.dup03147, %for.inc55.dup0 ], [ %m_xd.dup02860, %for.end40.dup0 ]
  %m_lxip.dup02901 = phi %"class.std::vector.0"* [ %m_lxip.dup03146, %for.inc55.dup0 ], [ %m_lxip.dup02837, %for.end40.dup0 ]
  %m_ss.dup02902 = phi %"class.std::vector"* [ %m_ss.dup03161, %for.inc55.dup0 ], [ %m_ss.dup02861, %for.end40.dup0 ]
  %m_letap.dup02903 = phi %"class.std::vector.0"* [ %m_letap.dup03163, %for.inc55.dup0 ], [ %m_letap.dup02853, %for.end40.dup0 ]
  %m_fz.dup02904 = phi %"class.std::vector"* [ %m_fz.dup03162, %for.inc55.dup0 ], [ %m_fz.dup02852, %for.end40.dup0 ]
  %y_local.dup02905 = phi [8 x double]* [ %y_local.dup03165, %for.inc55.dup0 ], [ %y_local.dup02864, %for.end40.dup0 ]
  %z_local.dup02906 = phi [8 x double]* [ %z_local.dup03164, %for.inc55.dup0 ], [ %z_local.dup02863, %for.end40.dup0 ]
  %m_zd.dup02907 = phi %"class.std::vector"* [ %m_zd.dup03153, %for.inc55.dup0 ], [ %m_zd.dup02849, %for.end40.dup0 ]
  %call.dup02908 = phi i32* [ %call.dup03154, %for.inc55.dup0 ], [ %call.dup02848, %for.end40.dup0 ]
  %call45.dup0 = invoke nonnull align 4 dereferenceable(4) i32* @_ZN6Domain7numNodeEv(%class.Domain* %this)
          to label %invoke.cont44 unwind label %lpad43

for.inc55.dup0:                                   ; preds = %invoke.cont53.dup0
  %call54.dup0346 = phi double* [ %call54.dup015, %invoke.cont53.dup0 ]
  %call50.dup0812 = phi double* [ %call50.dup0807, %invoke.cont53.dup0 ]
  %call45.dup0813 = phi i32* [ %call45.dup0809, %invoke.cont53.dup0 ]
  %call52.dup0814 = phi double* [ %call52.dup0811, %invoke.cont53.dup0 ]
  %i41.0.dup0815 = phi i32 [ %i41.0.dup0810, %invoke.cont53.dup0 ]
  %call23.dup01548 = phi double* [ %call23.dup01545, %invoke.cont53.dup0 ]
  %call14.dup01549 = phi i32* [ %call14.dup01544, %invoke.cont53.dup0 ]
  %call27.dup01550 = phi double* [ %call27.dup01538, %invoke.cont53.dup0 ]
  %call21.dup01551 = phi double* [ %call21.dup01547, %invoke.cont53.dup0 ]
  %i.0.dup01552 = phi i32 [ %i.0.dup01546, %invoke.cont53.dup0 ]
  %call32.dup01553 = phi i32* [ %call32.dup01541, %invoke.cont53.dup0 ]
  %call25.dup01554 = phi double* [ %call25.dup01536, %invoke.cont53.dup0 ]
  %call19.dup01555 = phi i32* [ %call19.dup01537, %invoke.cont53.dup0 ]
  %inc39.dup01556 = phi i32 [ %inc39.dup01542, %invoke.cont53.dup0 ]
  %call11.dup01557 = phi i32* [ %call11.dup01540, %invoke.cont53.dup0 ]
  %i28.0.dup01558 = phi i32 [ %i28.0.dup01539, %invoke.cont53.dup0 ]
  %inc.dup01559 = phi i32 [ %inc.dup01543, %invoke.cont53.dup0 ]
  %call37.dup02130 = phi double* [ %call37.dup02129, %invoke.cont53.dup0 ]
  %m_ydd.dup03129 = phi %"class.std::vector"* [ %m_ydd.dup03101, %invoke.cont53.dup0 ]
  %m_e.dup03130 = phi %"class.std::vector"* [ %m_e.dup03100, %invoke.cont53.dup0 ]
  %m_z.dup03131 = phi %"class.std::vector"* [ %m_z.dup03099, %invoke.cont53.dup0 ]
  %m_delv.dup03132 = phi %"class.std::vector"* [ %m_delv.dup03098, %invoke.cont53.dup0 ]
  %m_yd.dup03133 = phi %"class.std::vector"* [ %m_yd.dup03096, %invoke.cont53.dup0 ]
  %x_local.dup03134 = phi [8 x double]* [ %x_local.dup03097, %invoke.cont53.dup0 ]
  %m_q.dup03135 = phi %"class.std::vector"* [ %m_q.dup03095, %invoke.cont53.dup0 ]
  %m_lzetam.dup03136 = phi %"class.std::vector.0"* [ %m_lzetam.dup03093, %invoke.cont53.dup0 ]
  %m_nodalMass.dup03137 = phi %"class.std::vector"* [ %m_nodalMass.dup03094, %invoke.cont53.dup0 ]
  %m_x.dup03138 = phi %"class.std::vector"* [ %m_x.dup03092, %invoke.cont53.dup0 ]
  %call8.dup03139 = phi i8* [ %call8.dup03090, %invoke.cont53.dup0 ]
  %m_ql.dup03140 = phi %"class.std::vector"* [ %m_ql.dup03089, %invoke.cont53.dup0 ]
  %m_y.dup03141 = phi %"class.std::vector"* [ %m_y.dup03088, %invoke.cont53.dup0 ]
  %m_lxim.dup03142 = phi %"class.std::vector.0"* [ %m_lxim.dup03091, %invoke.cont53.dup0 ]
