; ModuleID = '../llvm/lib/Transforms/SplitMerge/test/generate/lulesh-ssa-sccp-gen.ll'
source_filename = "llvm-link"
target datalayout = "e-m:e-p270:32:32-p271:32:32-p272:64:64-i64:64-f80:128-n8:16:32:64-S128"
target triple = "x86_64-unknown-linux-gnu"

%struct._IO_FILE = type { i32, i8*, i8*, i8*, i8*, i8*, i8*, i8*, i8*, i8*, i8*, i8*, %struct._IO_marker*, %struct._IO_FILE*, i32, i32, i64, i16, i8, [1 x i8], i8*, i64, i8*, i8*, i8*, i8*, i64, i32, [20 x i8] }
%struct._IO_marker = type { %struct._IO_marker*, %struct._IO_FILE*, i32 }
%"class.std::allocator.2" = type { i8 }
%"class.std::basic_ostream" = type { i32 (...)**, %"class.std::basic_ios" }
%"class.std::basic_ios" = type { %"class.std::ios_base", %"class.std::basic_ostream"*, i8, i8, %"class.std::basic_streambuf"*, %"class.std::ctype"*, %"class.std::num_put"*, %"class.std::num_put"* }
%"class.std::ios_base" = type { i32 (...)**, i64, i64, i32, i32, i32, %"struct.std::ios_base::_Callback_list"*, %"struct.std::ios_base::_Words", [8 x %"struct.std::ios_base::_Words"], i32, %"struct.std::ios_base::_Words"*, %"class.std::locale" }
%"struct.std::ios_base::_Callback_list" = type { %"struct.std::ios_base::_Callback_list"*, void (i32, %"class.std::ios_base"*, i32)*, i32, i32 }
%"struct.std::ios_base::_Words" = type { i8*, i64 }
%"class.std::locale" = type { %"class.std::locale::_Impl"* }
%"class.std::locale::_Impl" = type { i32, %"class.std::locale::facet"**, i64, %"class.std::locale::facet"**, i8** }
%"class.std::locale::facet" = type <{ i32 (...)**, i32, [4 x i8] }>
%"class.std::basic_streambuf" = type { i32 (...)**, i8*, i8*, i8*, i8*, i8*, i8*, %"class.std::locale" }
%"class.std::ctype" = type <{ %"class.std::locale::facet.base", [4 x i8], %struct.__locale_struct*, i8, [7 x i8], i32*, i32*, i16*, i8, [256 x i8], [256 x i8], i8, [6 x i8] }>
%"class.std::locale::facet.base" = type <{ i32 (...)**, i32 }>
%struct.__locale_struct = type { [13 x %struct.__locale_data*], i16*, i32*, i32*, [13 x i8*] }
%struct.__locale_data = type opaque
%"class.std::num_put" = type { %"class.std::locale::facet.base", [4 x i8] }
%class.Domain = type { %"class.std::vector", %"class.std::vector", %"class.std::vector", %"class.std::vector", %"class.std::vector", %"class.std::vector", %"class.std::vector", %"class.std::vector", %"class.std::vector", %"class.std::vector", %"class.std::vector", %"class.std::vector", %"class.std::vector", %"class.std::vector.0", %"class.std::vector.0", %"class.std::vector.0", i32, i32, i32*, i32*, i32**, %"class.std::vector.0", %"class.std::vector.0", %"class.std::vector.0", %"class.std::vector.0", %"class.std::vector.0", %"class.std::vector.0", %"class.std::vector.0", %"class.std::vector.0", double*, double*, double*, double*, double*, double*, double*, double*, double*, %"class.std::vector", %"class.std::vector", %"class.std::vector", %"class.std::vector", %"class.std::vector", %"class.std::vector", %"class.std::vector", %"class.std::vector", %"class.std::vector", %"class.std::vector", %"class.std::vector", %"class.std::vector", %"class.std::vector", double, double, double, double, double, double, double, double, double, double, double, double, double, double, double, double, double, double, double, double, double, i32, double, double, double, double, double, double, double, i32, i32, i32, i32, i32, i32, i32, i32, i32, i32, i32, i32, i32*, i32*, i32, i32, i32, i32, i32, i32 }
%"class.std::vector.0" = type { %"struct.std::_Vector_base.1" }
%"struct.std::_Vector_base.1" = type { %"struct.std::_Vector_base<int, std::allocator<int>>::_Vector_impl" }
%"struct.std::_Vector_base<int, std::allocator<int>>::_Vector_impl" = type { i32*, i32*, i32* }
%"class.std::vector" = type { %"struct.std::_Vector_base" }
%"struct.std::_Vector_base" = type { %"struct.std::_Vector_base<double, std::allocator<double>>::_Vector_impl" }
%"struct.std::_Vector_base<double, std::allocator<double>>::_Vector_impl" = type { double*, double*, double* }
%"class.std::move_iterator.5" = type { i32* }
%"class.std::move_iterator" = type { double* }
%struct.cmdLineOpts = type { i32, i32, i32, i32, i32, i32, i32, i32, i32 }
%struct.timeval = type { i64, i64 }
%struct.timezone = type { i32, i32 }
%"struct.std::_Setprecision" = type { i32 }

$_ZNSt6vectorIdSaIdEEC2Ev = comdat any

$_ZNSt6vectorIiSaIiEEC2Ev = comdat any

$_ZN6Domain4costEv = comdat any

$_ZN6Domain7numElemEv = comdat any

$_ZN6Domain22AllocateElemPersistentEi = comdat any

$_ZN6Domain7numNodeEv = comdat any

$_ZN6Domain22AllocateNodePersistentEi = comdat any

$_ZN6Domain1eEi = comdat any

$_ZN6Domain1pEi = comdat any

$_ZN6Domain1qEi = comdat any

$_ZN6Domain2ssEi = comdat any

$_ZN6Domain1vEi = comdat any

$_ZN6Domain2xdEi = comdat any

$_ZN6Domain2ydEi = comdat any

$_ZN6Domain2zdEi = comdat any

$_ZN6Domain3xddEi = comdat any

$_ZN6Domain3yddEi = comdat any

$_ZN6Domain3zddEi = comdat any

$_ZN6Domain9nodalMassEi = comdat any

$_ZN6Domain7dtfixedEv = comdat any

$_ZN6Domain8stoptimeEv = comdat any

$_ZN6Domain15deltatimemultlbEv = comdat any

$_ZN6Domain15deltatimemultubEv = comdat any

$_ZN6Domain9dtcourantEv = comdat any

$_ZN6Domain7dthydroEv = comdat any

$_ZN6Domain5dtmaxEv = comdat any

$_ZN6Domain4timeEv = comdat any

$_ZN6Domain5cycleEv = comdat any

$_ZN6Domain8nodelistEi = comdat any

$_ZN6Domain1xEi = comdat any

$_ZN6Domain1yEi = comdat any

$_ZN6Domain1zEi = comdat any

$_ZN6Domain4voloEi = comdat any

$_ZN6Domain8elemMassEi = comdat any

$_ZN6Domain9deltatimeEv = comdat any

$_ZNSt6vectorIdSaIdEED2Ev = comdat any

$_ZNSt6vectorIiSaIiEED2Ev = comdat any

$_ZNSt12_Vector_baseIiSaIiEE19_M_get_Tp_allocatorEv = comdat any

$_ZSt8_DestroyIPiiEvT_S1_RSaIT0_E = comdat any

$_ZNSt12_Vector_baseIiSaIiEED2Ev = comdat any

$__clang_call_terminate = comdat any

$_ZNSt12_Vector_baseIiSaIiEE13_M_deallocateEPim = comdat any

$_ZN9__gnu_cxx13new_allocatorIiED2Ev = comdat any

$_ZNSt16allocator_traitsISaIiEE10deallocateERS0_Pim = comdat any

$_ZN9__gnu_cxx13new_allocatorIiE10deallocateEPim = comdat any

$_ZSt8_DestroyIPiEvT_S1_ = comdat any

$_ZNSt12_Destroy_auxILb1EE9__destroyIPiEEvT_S3_ = comdat any

$_ZNSt12_Vector_baseIdSaIdEE19_M_get_Tp_allocatorEv = comdat any

$_ZSt8_DestroyIPddEvT_S1_RSaIT0_E = comdat any

$_ZNSt12_Vector_baseIdSaIdEED2Ev = comdat any

$_ZNSt12_Vector_baseIdSaIdEE13_M_deallocateEPdm = comdat any

$_ZN9__gnu_cxx13new_allocatorIdED2Ev = comdat any

$_ZNSt16allocator_traitsISaIdEE10deallocateERS0_Pdm = comdat any

$_ZN9__gnu_cxx13new_allocatorIdE10deallocateEPdm = comdat any

$_ZSt8_DestroyIPdEvT_S1_ = comdat any

$_ZNSt12_Destroy_auxILb1EE9__destroyIPdEEvT_S3_ = comdat any

$_ZNSt6vectorIdSaIdEEixEm = comdat any

$_ZNSt6vectorIiSaIiEEixEm = comdat any

$_ZN6Domain6elemBCEi = comdat any

$_ZN6Domain5sizeXEv = comdat any

$_ZN6Domain5sizeYEv = comdat any

$_ZN6Domain5sizeZEv = comdat any

$_ZN6Domain6lzetamEi = comdat any

$_ZN6Domain6lzetapEi = comdat any

$_ZN6Domain5letamEi = comdat any

$_ZN6Domain5letapEi = comdat any

$_ZN6Domain4lximEi = comdat any

$_ZN6Domain4lxipEi = comdat any

$_ZN6Domain6numRegEv = comdat any

$_ZN6Domain10regNumListEi = comdat any

$_ZN6Domain11regElemSizeEi = comdat any

$_ZSt3powIiiEN9__gnu_cxx11__promote_2IT_T0_NS0_9__promoteIS2_Xsr3std12__is_integerIS2_EE7__valueEE6__typeENS4_IS3_Xsr3std12__is_integerIS3_EE7__valueEE6__typeEE6__typeES2_S3_ = comdat any

$_ZN6Domain11regElemlistEii = comdat any

$_ZNSt6vectorIiSaIiEE6resizeEm = comdat any

$_ZNKSt6vectorIiSaIiEE4sizeEv = comdat any

$_ZNSt6vectorIiSaIiEE17_M_default_appendEm = comdat any

$_ZNSt6vectorIiSaIiEE15_M_erase_at_endEPi = comdat any

$_ZSt27__uninitialized_default_n_aIPimiET_S1_T0_RSaIT1_E = comdat any

$_ZNKSt6vectorIiSaIiEE12_M_check_lenEmPKc = comdat any

$_ZNSt12_Vector_baseIiSaIiEE11_M_allocateEm = comdat any

$_ZSt34__uninitialized_move_if_noexcept_aIPiS0_SaIiEET0_T_S3_S2_RT1_ = comdat any

$_ZSt32__make_move_if_noexcept_iteratorIiSt13move_iteratorIPiEET0_PT_ = comdat any

$_ZSt22__uninitialized_copy_aISt13move_iteratorIPiES1_iET0_T_S4_S3_RSaIT1_E = comdat any

$_ZSt18uninitialized_copyISt13move_iteratorIPiES1_ET0_T_S4_S3_ = comdat any

$_ZNSt20__uninitialized_copyILb1EE13__uninit_copyISt13move_iteratorIPiES3_EET0_T_S6_S5_ = comdat any

$_ZSt4copyISt13move_iteratorIPiES1_ET0_T_S4_S3_ = comdat any

$_ZSt12__miter_baseIPiEDTcl12__miter_basecldtfp_4baseEEESt13move_iteratorIT_E = comdat any

$_ZSt14__copy_move_a2ILb1EPiS0_ET1_T0_S2_S1_ = comdat any

$_ZSt12__niter_baseIPiET_S1_ = comdat any

$_ZSt13__copy_move_aILb1EPiS0_ET1_T0_S2_S1_ = comdat any

$_ZNSt11__copy_moveILb1ELb1ESt26random_access_iterator_tagE8__copy_mIiEEPT_PKS3_S6_S4_ = comdat any

$_ZNKSt13move_iteratorIPiE4baseEv = comdat any

$_ZSt12__miter_baseIPiET_S1_ = comdat any

$_ZNSt13move_iteratorIPiEC2ES0_ = comdat any

$_ZNSt16allocator_traitsISaIiEE8allocateERS0_m = comdat any

$_ZN9__gnu_cxx13new_allocatorIiE8allocateEmPKv = comdat any

$_ZNK9__gnu_cxx13new_allocatorIiE8max_sizeEv = comdat any

$_ZNKSt6vectorIiSaIiEE8max_sizeEv = comdat any

$_ZSt3maxImERKT_S2_S2_ = comdat any

$_ZNKSt12_Vector_baseIiSaIiEE19_M_get_Tp_allocatorEv = comdat any

$_ZNSt16allocator_traitsISaIiEE8max_sizeERKS0_ = comdat any

$_ZSt25__uninitialized_default_nIPimET_S1_T0_ = comdat any

$_ZNSt27__uninitialized_default_n_1ILb1EE18__uninit_default_nIPimEET_S3_T0_ = comdat any

$_ZSt6fill_nIPimiET_S1_T0_RKT1_ = comdat any

$_ZSt10__fill_n_aIPimiEN9__gnu_cxx11__enable_ifIXsr11__is_scalarIT1_EE7__valueET_E6__typeES4_T0_RKS3_ = comdat any

$_ZNSt6vectorIdSaIdEE6resizeEm = comdat any

$_ZNKSt6vectorIdSaIdEE4sizeEv = comdat any

$_ZNSt6vectorIdSaIdEE17_M_default_appendEm = comdat any

$_ZNSt6vectorIdSaIdEE15_M_erase_at_endEPd = comdat any

$_ZSt27__uninitialized_default_n_aIPdmdET_S1_T0_RSaIT1_E = comdat any

$_ZNKSt6vectorIdSaIdEE12_M_check_lenEmPKc = comdat any

$_ZNSt12_Vector_baseIdSaIdEE11_M_allocateEm = comdat any

$_ZSt34__uninitialized_move_if_noexcept_aIPdS0_SaIdEET0_T_S3_S2_RT1_ = comdat any

$_ZSt32__make_move_if_noexcept_iteratorIdSt13move_iteratorIPdEET0_PT_ = comdat any

$_ZSt22__uninitialized_copy_aISt13move_iteratorIPdES1_dET0_T_S4_S3_RSaIT1_E = comdat any

$_ZSt18uninitialized_copyISt13move_iteratorIPdES1_ET0_T_S4_S3_ = comdat any

$_ZNSt20__uninitialized_copyILb1EE13__uninit_copyISt13move_iteratorIPdES3_EET0_T_S6_S5_ = comdat any

$_ZSt4copyISt13move_iteratorIPdES1_ET0_T_S4_S3_ = comdat any

$_ZSt12__miter_baseIPdEDTcl12__miter_basecldtfp_4baseEEESt13move_iteratorIT_E = comdat any

$_ZSt14__copy_move_a2ILb1EPdS0_ET1_T0_S2_S1_ = comdat any

$_ZSt12__niter_baseIPdET_S1_ = comdat any

$_ZSt13__copy_move_aILb1EPdS0_ET1_T0_S2_S1_ = comdat any

$_ZNSt11__copy_moveILb1ELb1ESt26random_access_iterator_tagE8__copy_mIdEEPT_PKS3_S6_S4_ = comdat any

$_ZNKSt13move_iteratorIPdE4baseEv = comdat any

$_ZSt12__miter_baseIPdET_S1_ = comdat any

$_ZNSt13move_iteratorIPdEC2ES0_ = comdat any

$_ZNSt16allocator_traitsISaIdEE8allocateERS0_m = comdat any

$_ZN9__gnu_cxx13new_allocatorIdE8allocateEmPKv = comdat any

$_ZNK9__gnu_cxx13new_allocatorIdE8max_sizeEv = comdat any

$_ZNKSt6vectorIdSaIdEE8max_sizeEv = comdat any

$_ZNKSt12_Vector_baseIdSaIdEE19_M_get_Tp_allocatorEv = comdat any

$_ZNSt16allocator_traitsISaIdEE8max_sizeERKS0_ = comdat any

$_ZSt25__uninitialized_default_nIPdmET_S1_T0_ = comdat any

$_ZNSt27__uninitialized_default_n_1ILb1EE18__uninit_default_nIPdmEET_S3_T0_ = comdat any

$_ZSt6fill_nIPdmdET_S1_T0_RKT1_ = comdat any

$_ZSt10__fill_n_aIPdmdEN9__gnu_cxx11__enable_ifIXsr11__is_scalarIT1_EE7__valueET_E6__typeES4_T0_RKS3_ = comdat any

$_ZNSt12_Vector_baseIiSaIiEEC2Ev = comdat any

$_ZNSt12_Vector_baseIiSaIiEE12_Vector_implC2Ev = comdat any

$_ZNSaIiEC2Ev = comdat any

$_ZN9__gnu_cxx13new_allocatorIiEC2Ev = comdat any

$_ZNSt12_Vector_baseIdSaIdEEC2Ev = comdat any

$_ZNSt12_Vector_baseIdSaIdEE12_Vector_implC2Ev = comdat any

$_ZNSaIdEC2Ev = comdat any

$_ZN9__gnu_cxx13new_allocatorIdEC2Ev = comdat any

$_ZN6Domain4vnewEi = comdat any

$_ZN6Domain4delvEi = comdat any

$_ZN6Domain6arealgEi = comdat any

$_ZN6Domain3dxxEi = comdat any

$_ZN6Domain3dyyEi = comdat any

$_ZN6Domain3dzzEi = comdat any

$_ZSt3maxIdERKT_S2_S2_ = comdat any

$_Z4SQRTd = comdat any

$_ZSt10scientificRSt8ios_base = comdat any

$_ZNSt8ios_base6unsetfESt13_Ios_Fmtflags = comdat any

$_ZStcoSt13_Ios_Fmtflags = comdat any

$_ZStaNRSt13_Ios_FmtflagsS_ = comdat any

$_ZStanSt13_Ios_FmtflagsS_ = comdat any

$_ZNSt8ios_base4setfESt13_Ios_FmtflagsS0_ = comdat any

$_ZStoRRSt13_Ios_FmtflagsS_ = comdat any

$_ZStorSt13_Ios_FmtflagsS_ = comdat any

$_ZN6Domain11regElemlistEi = comdat any

$_ZNK6Domain3qqcEv = comdat any

$_ZNK6Domain7dvovmaxEv = comdat any

$_ZN6Domain4vdovEi = comdat any

$_Z4FABSd = comdat any

$_ZNK6Domain5v_cutEv = comdat any

$_ZNK6Domain7eosvminEv = comdat any

$_ZNK6Domain7eosvmaxEv = comdat any

$_Z8AllocateIdEPT_m = comdat any

$_Z7ReleaseIdEvPPT_ = comdat any

$_ZNK6Domain5e_cutEv = comdat any

$_ZNK6Domain5p_cutEv = comdat any

$_ZNK6Domain5ss4o3Ev = comdat any

$_ZNK6Domain5q_cutEv = comdat any

$_ZNK6Domain4pminEv = comdat any

$_ZNK6Domain4eminEv = comdat any

$_ZNK6Domain7refdensEv = comdat any

$_ZN6Domain2qqEi = comdat any

$_ZN6Domain2qlEi = comdat any

$_ZN6Domain17AllocateGradientsEii = comdat any

$_ZN6Domain19DeallocateGradientsEv = comdat any

$_ZNK6Domain5qstopEv = comdat any

$_ZNK6Domain18monoq_limiter_multEv = comdat any

$_ZNK6Domain15monoq_max_slopeEv = comdat any

$_ZNK6Domain9qlc_monoqEv = comdat any

$_ZNK6Domain9qqc_monoqEv = comdat any

$_ZN6Domain7delv_xiEi = comdat any

$_ZN6Domain8delv_etaEi = comdat any

$_ZN6Domain9delv_zetaEi = comdat any

$_ZN6Domain7delx_xiEi = comdat any

$_ZN6Domain8delx_etaEi = comdat any

$_ZN6Domain9delx_zetaEi = comdat any

$_ZN6Domain15AllocateStrainsEi = comdat any

$_ZN6Domain17DeallocateStrainsEv = comdat any

$_ZNK6Domain5u_cutEv = comdat any

$_ZN6Domain10symmXemptyEv = comdat any

$_ZN6Domain5symmXEi = comdat any

$_ZN6Domain10symmYemptyEv = comdat any

$_ZN6Domain5symmYEi = comdat any

$_ZN6Domain10symmZemptyEv = comdat any

$_ZN6Domain5symmZEi = comdat any

$_ZNKSt6vectorIiSaIiEE5emptyEv = comdat any

$_ZNKSt6vectorIiSaIiEE5beginEv = comdat any

$_ZNKSt6vectorIiSaIiEE3endEv = comdat any

$_ZN9__gnu_cxxeqIPKiSt6vectorIiSaIiEEEEbRKNS_17__normal_iteratorIT_T0_EESB_ = comdat any

$_ZNK9__gnu_cxx17__normal_iteratorIPKiSt6vectorIiSaIiEEE4baseEv = comdat any

$_ZN9__gnu_cxx17__normal_iteratorIPKiSt6vectorIiSaIiEEEC2ERKS2_ = comdat any

$_ZN6Domain2fxEi = comdat any

$_ZN6Domain2fyEi = comdat any

$_ZN6Domain2fzEi = comdat any

$_ZNK6Domain6hgcoefEv = comdat any

$_Z4CBRTd = comdat any

$_ZN6Domain13nodeElemCountEi = comdat any

$_ZN6Domain18nodeElemCornerListEi = comdat any

$_ZNSt11char_traitsIcE6lengthEPKc = comdat any

$_ZStorSt12_Ios_IostateS_ = comdat any

$_Z8StrToIntIiEiPKcPT_ = comdat any

$_ZSt12setprecisioni = comdat any

$_ZSt4setwi = comdat any

$_ZNSt8ios_base5widthEl = comdat any

$_ZNSt8ios_base9precisionEl = comdat any

@.str.3 = private unnamed_addr constant [26 x i8] c"vector::_M_default_append\00", align 1
@stderr = external dso_local global %struct._IO_FILE*, align 8
@.str = private unnamed_addr constant [67 x i8] c"AllocateNodeElemIndexes(): nodeElemCornerList entry out of range!\0A\00", align 1
@.str.1 = private unnamed_addr constant [61 x i8] c"Num processors must be a cube of an integer (1, 8, 27, ...)\0A\00", align 1
@.str.2 = private unnamed_addr constant [45 x i8] c"error -- must have as many domains as procs\0A\00", align 1
@llvm.global_ctors = appending global [2 x { i32, void ()*, i8* }] [{ i32, void ()*, i8* } { i32 65535, void ()* @_GLOBAL__sub_I_lulesh.cc, i8* null }, { i32, void ()*, i8* } { i32 65535, void ()* @_GLOBAL__sub_I_lulesh_util.cc, i8* null }]
@_ZStL8__ioinit = internal global %"class.std::allocator.2" zeroinitializer, align 1
@__dso_handle = external hidden global i8
@_ZSt4cout = external dso_local global %"class.std::basic_ostream", align 8
@.str.4 = private unnamed_addr constant [22 x i8] c"Running problem size \00", align 1
@.str.1.5 = private unnamed_addr constant [32 x i8] c"^3 per domain until completion\0A\00", align 1
@.str.2.6 = private unnamed_addr constant [17 x i8] c"Num processors: \00", align 1
@.str.3.7 = private unnamed_addr constant [2 x i8] c"\0A\00", align 1
@.str.4.8 = private unnamed_addr constant [27 x i8] c"Total number of elements: \00", align 1
@.str.5 = private unnamed_addr constant [4 x i8] c" \0A\0A\00", align 1
@.str.6 = private unnamed_addr constant [39 x i8] c"To run other sizes, use -s <integer>.\0A\00", align 1
@.str.7 = private unnamed_addr constant [56 x i8] c"To run a fixed number of iterations, use -i <integer>.\0A\00", align 1
@.str.8 = private unnamed_addr constant [62 x i8] c"To run a more or less balanced region set, use -b <integer>.\0A\00", align 1
@.str.9 = private unnamed_addr constant [60 x i8] c"To change the relative costs of regions, use -c <integer>.\0A\00", align 1
@.str.10 = private unnamed_addr constant [31 x i8] c"To print out progress, use -p\0A\00", align 1
@.str.11 = private unnamed_addr constant [43 x i8] c"To write an output file for VisIt, use -v\0A\00", align 1
@.str.12 = private unnamed_addr constant [33 x i8] c"See help (-h) for more options\0A\0A\00", align 1
@.str.13 = private unnamed_addr constant [9 x i8] c"cycle = \00", align 1
@.str.14 = private unnamed_addr constant [3 x i8] c", \00", align 1
@.str.15 = private unnamed_addr constant [8 x i8] c"time = \00", align 1
@.str.16 = private unnamed_addr constant [4 x i8] c"dt=\00", align 1
@.str.17 = private unnamed_addr constant [31 x i8] c"Error in switch at %s line %d\0A\00", align 1
@.str.18 = private unnamed_addr constant [10 x i8] c"lulesh.cc\00", align 1
@_ZStL8__ioinit.11 = internal global %"class.std::allocator.2" zeroinitializer, align 1
@.str.19 = private unnamed_addr constant [3 x i8] c"-i\00", align 1
@.str.1.20 = private unnamed_addr constant [31 x i8] c"Missing integer argument to -i\00", align 1
@.str.2.21 = private unnamed_addr constant [64 x i8] c"Parse Error on option -i integer value required after argument\0A\00", align 1
@.str.3.22 = private unnamed_addr constant [3 x i8] c"-s\00", align 1
@.str.4.23 = private unnamed_addr constant [32 x i8] c"Missing integer argument to -s\0A\00", align 1
@.str.5.24 = private unnamed_addr constant [64 x i8] c"Parse Error on option -s integer value required after argument\0A\00", align 1
@.str.6.25 = private unnamed_addr constant [3 x i8] c"-r\00", align 1
@.str.7.26 = private unnamed_addr constant [32 x i8] c"Missing integer argument to -r\0A\00", align 1
@.str.8.27 = private unnamed_addr constant [64 x i8] c"Parse Error on option -r integer value required after argument\0A\00", align 1
@.str.9.28 = private unnamed_addr constant [3 x i8] c"-f\00", align 1
@.str.10.29 = private unnamed_addr constant [32 x i8] c"Missing integer argument to -f\0A\00", align 1
@.str.11.30 = private unnamed_addr constant [64 x i8] c"Parse Error on option -f integer value required after argument\0A\00", align 1
@.str.12.31 = private unnamed_addr constant [3 x i8] c"-p\00", align 1
@.str.13.32 = private unnamed_addr constant [3 x i8] c"-q\00", align 1
@.str.14.33 = private unnamed_addr constant [3 x i8] c"-b\00", align 1
@.str.15.34 = private unnamed_addr constant [32 x i8] c"Missing integer argument to -b\0A\00", align 1
@.str.16.35 = private unnamed_addr constant [64 x i8] c"Parse Error on option -b integer value required after argument\0A\00", align 1
@.str.17.36 = private unnamed_addr constant [3 x i8] c"-c\00", align 1
@.str.18.37 = private unnamed_addr constant [32 x i8] c"Missing integer argument to -c\0A\00", align 1
@.str.19.38 = private unnamed_addr constant [64 x i8] c"Parse Error on option -c integer value required after argument\0A\00", align 1
@.str.20 = private unnamed_addr constant [3 x i8] c"-v\00", align 1
@.str.21 = private unnamed_addr constant [46 x i8] c"Use of -v requires compiling with -DVIZ_MESH\0A\00", align 1
@.str.22 = private unnamed_addr constant [3 x i8] c"-h\00", align 1
@.str.23 = private unnamed_addr constant [42 x i8] c"ERROR: Unknown command line argument: %s\0A\00", align 1
@.str.42 = private unnamed_addr constant [18 x i8] c"Usage: %s [opts]\0A\00", align 1
@.str.43 = private unnamed_addr constant [34 x i8] c" where [opts] is one or more of:\0A\00", align 1
@.str.44 = private unnamed_addr constant [53 x i8] c" -q              : quiet mode - suppress all stdout\0A\00", align 1
@.str.45 = private unnamed_addr constant [44 x i8] c" -i <iterations> : number of cycles to run\0A\00", align 1
@.str.46 = private unnamed_addr constant [51 x i8] c" -s <size>       : length of cube mesh along side\0A\00", align 1
@.str.47 = private unnamed_addr constant [57 x i8] c" -r <numregions> : Number of distinct regions (def: 11)\0A\00", align 1
@.str.48 = private unnamed_addr constant [70 x i8] c" -b <balance>    : Load balance between regions of a domain (def: 1)\0A\00", align 1
@.str.49 = private unnamed_addr constant [66 x i8] c" -c <cost>       : Extra cost of more expensive regions (def: 1)\0A\00", align 1
@.str.50 = private unnamed_addr constant [76 x i8] c" -f <numfiles>   : Number of files to split viz dump into (def: (np+10)/9)\0A\00", align 1
@.str.51 = private unnamed_addr constant [39 x i8] c" -p              : Print out progress\0A\00", align 1
@.str.52 = private unnamed_addr constant [72 x i8] c" -v              : Output viz file (requires compiling with -DVIZ_MESH\0A\00", align 1
@.str.53 = private unnamed_addr constant [33 x i8] c" -h              : This message\0A\00", align 1
@.str.54 = private unnamed_addr constant [3 x i8] c"\0A\0A\00", align 1
@.str.41 = private unnamed_addr constant [4 x i8] c"%s\0A\00", align 1
@.str.24 = private unnamed_addr constant [16 x i8] c"Run completed:\0A\00", align 1
@.str.25 = private unnamed_addr constant [27 x i8] c"   Problem size        =  \00", align 1
@.str.26 = private unnamed_addr constant [2 x i8] c"\0A\00", align 1
@.str.27 = private unnamed_addr constant [27 x i8] c"   MPI tasks           =  \00", align 1
@.str.28 = private unnamed_addr constant [27 x i8] c"   Iteration count     =  \00", align 1
@.str.29 = private unnamed_addr constant [27 x i8] c"   Final Origin Energy =  \00", align 1
@.str.30 = private unnamed_addr constant [47 x i8] c"   Testing Plane 0 of Energy Array on rank 0:\0A\00", align 1
@.str.31 = private unnamed_addr constant [24 x i8] c"        MaxAbsDiff   = \00", align 1
@.str.32 = private unnamed_addr constant [24 x i8] c"        TotalAbsDiff = \00", align 1
@.str.33 = private unnamed_addr constant [24 x i8] c"        MaxRelDiff   = \00", align 1
@.str.34 = private unnamed_addr constant [25 x i8] c"\0AElapsed time         = \00", align 1
@.str.35 = private unnamed_addr constant [6 x i8] c" (s)\0A\00", align 1
@.str.36 = private unnamed_addr constant [24 x i8] c"Grind time (us/z/c)  = \00", align 1
@.str.37 = private unnamed_addr constant [14 x i8] c" (per dom)  (\00", align 1
@.str.38 = private unnamed_addr constant [11 x i8] c" overall)\0A\00", align 1
@.str.39 = private unnamed_addr constant [24 x i8] c"FOM                  = \00", align 1
@.str.40 = private unnamed_addr constant [9 x i8] c" (z/s)\0A\0A\00", align 1
@.str.55 = private unnamed_addr constant [59 x i8] c"Must enable -DVIZ_MESH at compile time to call DumpDomain\0A\00", align 1

@_ZN6DomainC1Eiiiiiiiii = dso_local unnamed_addr alias void (%class.Domain*, i32, i32, i32, i32, i32, i32, i32, i32, i32), void (%class.Domain*, i32, i32, i32, i32, i32, i32, i32, i32, i32)* @_ZN6DomainC2Eiiiiiiiii
@_ZN6DomainD1Ev = dso_local unnamed_addr alias void (%class.Domain*), void (%class.Domain*)* @_ZN6DomainD2Ev

; Function Attrs: uwtable
define dso_local void @_ZN6DomainC2Eiiiiiiiii(%class.Domain* %this, i32 %numRanks, i32 %colLoc, i32 %rowLoc, i32 %planeLoc, i32 %nx, i32 %tp, i32 %nr, i32 %balance, i32 %cost) unnamed_addr #0 align 2 personality i8* bitcast (i32 (...)* @__gxx_personality_v0 to i8*) {
entry.dup0:
  %x_local.dup0 = alloca [8 x double], align 16
  %y_local.dup0 = alloca [8 x double], align 16
  %z_local.dup0 = alloca [8 x double], align 16
  %m_x.dup0 = getelementptr inbounds %class.Domain, %class.Domain* %this, i32 0, i32 0
  call void @_ZNSt6vectorIdSaIdEEC2Ev(%"class.std::vector"* %m_x.dup0) #14
  %m_y.dup0 = getelementptr inbounds %class.Domain, %class.Domain* %this, i32 0, i32 1
  call void @_ZNSt6vectorIdSaIdEEC2Ev(%"class.std::vector"* %m_y.dup0) #14
  %m_z.dup0 = getelementptr inbounds %class.Domain, %class.Domain* %this, i32 0, i32 2
  call void @_ZNSt6vectorIdSaIdEEC2Ev(%"class.std::vector"* %m_z.dup0) #14
  %m_xd.dup0 = getelementptr inbounds %class.Domain, %class.Domain* %this, i32 0, i32 3
  call void @_ZNSt6vectorIdSaIdEEC2Ev(%"class.std::vector"* %m_xd.dup0) #14
  %m_yd.dup0 = getelementptr inbounds %class.Domain, %class.Domain* %this, i32 0, i32 4
  call void @_ZNSt6vectorIdSaIdEEC2Ev(%"class.std::vector"* %m_yd.dup0) #14
  %m_zd.dup0 = getelementptr inbounds %class.Domain, %class.Domain* %this, i32 0, i32 5
  call void @_ZNSt6vectorIdSaIdEEC2Ev(%"class.std::vector"* %m_zd.dup0) #14
  %m_xdd.dup0 = getelementptr inbounds %class.Domain, %class.Domain* %this, i32 0, i32 6
  call void @_ZNSt6vectorIdSaIdEEC2Ev(%"class.std::vector"* %m_xdd.dup0) #14
  %m_ydd.dup0 = getelementptr inbounds %class.Domain, %class.Domain* %this, i32 0, i32 7
  call void @_ZNSt6vectorIdSaIdEEC2Ev(%"class.std::vector"* %m_ydd.dup0) #14
  %m_zdd.dup0 = getelementptr inbounds %class.Domain, %class.Domain* %this, i32 0, i32 8
  call void @_ZNSt6vectorIdSaIdEEC2Ev(%"class.std::vector"* %m_zdd.dup0) #14
  %m_fx.dup0 = getelementptr inbounds %class.Domain, %class.Domain* %this, i32 0, i32 9
  call void @_ZNSt6vectorIdSaIdEEC2Ev(%"class.std::vector"* %m_fx.dup0) #14
  %m_fy.dup0 = getelementptr inbounds %class.Domain, %class.Domain* %this, i32 0, i32 10
  call void @_ZNSt6vectorIdSaIdEEC2Ev(%"class.std::vector"* %m_fy.dup0) #14
  %m_fz.dup0 = getelementptr inbounds %class.Domain, %class.Domain* %this, i32 0, i32 11
  call void @_ZNSt6vectorIdSaIdEEC2Ev(%"class.std::vector"* %m_fz.dup0) #14
  %m_nodalMass.dup0 = getelementptr inbounds %class.Domain, %class.Domain* %this, i32 0, i32 12
  call void @_ZNSt6vectorIdSaIdEEC2Ev(%"class.std::vector"* %m_nodalMass.dup0) #14
  %m_symmX.dup0 = getelementptr inbounds %class.Domain, %class.Domain* %this, i32 0, i32 13
  call void @_ZNSt6vectorIiSaIiEEC2Ev(%"class.std::vector.0"* %m_symmX.dup0) #14
  %m_symmY.dup0 = getelementptr inbounds %class.Domain, %class.Domain* %this, i32 0, i32 14
  call void @_ZNSt6vectorIiSaIiEEC2Ev(%"class.std::vector.0"* %m_symmY.dup0) #14
  %m_symmZ.dup0 = getelementptr inbounds %class.Domain, %class.Domain* %this, i32 0, i32 15
  call void @_ZNSt6vectorIiSaIiEEC2Ev(%"class.std::vector.0"* %m_symmZ.dup0) #14
  %m_regElemSize.dup0 = getelementptr inbounds %class.Domain, %class.Domain* %this, i32 0, i32 18
  store i32* null, i32** %m_regElemSize.dup0, align 8, !tbaa !2
  %m_regNumList.dup0 = getelementptr inbounds %class.Domain, %class.Domain* %this, i32 0, i32 19
  store i32* null, i32** %m_regNumList.dup0, align 8, !tbaa !11
  %m_regElemlist.dup0 = getelementptr inbounds %class.Domain, %class.Domain* %this, i32 0, i32 20
  store i32** null, i32*** %m_regElemlist.dup0, align 8, !tbaa !12
  %m_nodelist.dup0 = getelementptr inbounds %class.Domain, %class.Domain* %this, i32 0, i32 21
  call void @_ZNSt6vectorIiSaIiEEC2Ev(%"class.std::vector.0"* %m_nodelist.dup0) #14
  %m_lxim.dup0 = getelementptr inbounds %class.Domain, %class.Domain* %this, i32 0, i32 22
  call void @_ZNSt6vectorIiSaIiEEC2Ev(%"class.std::vector.0"* %m_lxim.dup0) #14
  %m_lxip.dup0 = getelementptr inbounds %class.Domain, %class.Domain* %this, i32 0, i32 23
  call void @_ZNSt6vectorIiSaIiEEC2Ev(%"class.std::vector.0"* %m_lxip.dup0) #14
  %m_letam.dup0 = getelementptr inbounds %class.Domain, %class.Domain* %this, i32 0, i32 24
  call void @_ZNSt6vectorIiSaIiEEC2Ev(%"class.std::vector.0"* %m_letam.dup0) #14
  %m_letap.dup0 = getelementptr inbounds %class.Domain, %class.Domain* %this, i32 0, i32 25
  call void @_ZNSt6vectorIiSaIiEEC2Ev(%"class.std::vector.0"* %m_letap.dup0) #14
  %m_lzetam.dup0 = getelementptr inbounds %class.Domain, %class.Domain* %this, i32 0, i32 26
  call void @_ZNSt6vectorIiSaIiEEC2Ev(%"class.std::vector.0"* %m_lzetam.dup0) #14
  %m_lzetap.dup0 = getelementptr inbounds %class.Domain, %class.Domain* %this, i32 0, i32 27
  call void @_ZNSt6vectorIiSaIiEEC2Ev(%"class.std::vector.0"* %m_lzetap.dup0) #14
  %m_elemBC.dup0 = getelementptr inbounds %class.Domain, %class.Domain* %this, i32 0, i32 28
  call void @_ZNSt6vectorIiSaIiEEC2Ev(%"class.std::vector.0"* %m_elemBC.dup0) #14
  %m_e.dup0 = getelementptr inbounds %class.Domain, %class.Domain* %this, i32 0, i32 38
  call void @_ZNSt6vectorIdSaIdEEC2Ev(%"class.std::vector"* %m_e.dup0) #14
  %m_p.dup0 = getelementptr inbounds %class.Domain, %class.Domain* %this, i32 0, i32 39
  call void @_ZNSt6vectorIdSaIdEEC2Ev(%"class.std::vector"* %m_p.dup0) #14
  %m_q.dup0 = getelementptr inbounds %class.Domain, %class.Domain* %this, i32 0, i32 40
  call void @_ZNSt6vectorIdSaIdEEC2Ev(%"class.std::vector"* %m_q.dup0) #14
  %m_ql.dup0 = getelementptr inbounds %class.Domain, %class.Domain* %this, i32 0, i32 41
  call void @_ZNSt6vectorIdSaIdEEC2Ev(%"class.std::vector"* %m_ql.dup0) #14
  %m_qq.dup0 = getelementptr inbounds %class.Domain, %class.Domain* %this, i32 0, i32 42
  call void @_ZNSt6vectorIdSaIdEEC2Ev(%"class.std::vector"* %m_qq.dup0) #14
  %m_v.dup0 = getelementptr inbounds %class.Domain, %class.Domain* %this, i32 0, i32 43
  call void @_ZNSt6vectorIdSaIdEEC2Ev(%"class.std::vector"* %m_v.dup0) #14
  %m_volo.dup0 = getelementptr inbounds %class.Domain, %class.Domain* %this, i32 0, i32 44
  call void @_ZNSt6vectorIdSaIdEEC2Ev(%"class.std::vector"* %m_volo.dup0) #14
  %m_vnew.dup0 = getelementptr inbounds %class.Domain, %class.Domain* %this, i32 0, i32 45
  call void @_ZNSt6vectorIdSaIdEEC2Ev(%"class.std::vector"* %m_vnew.dup0) #14
  %m_delv.dup0 = getelementptr inbounds %class.Domain, %class.Domain* %this, i32 0, i32 46
  call void @_ZNSt6vectorIdSaIdEEC2Ev(%"class.std::vector"* %m_delv.dup0) #14
  %m_vdov.dup0 = getelementptr inbounds %class.Domain, %class.Domain* %this, i32 0, i32 47
  call void @_ZNSt6vectorIdSaIdEEC2Ev(%"class.std::vector"* %m_vdov.dup0) #14
  %m_arealg.dup0 = getelementptr inbounds %class.Domain, %class.Domain* %this, i32 0, i32 48
  call void @_ZNSt6vectorIdSaIdEEC2Ev(%"class.std::vector"* %m_arealg.dup0) #14
  %m_ss.dup0 = getelementptr inbounds %class.Domain, %class.Domain* %this, i32 0, i32 49
  call void @_ZNSt6vectorIdSaIdEEC2Ev(%"class.std::vector"* %m_ss.dup0) #14
  %m_elemMass.dup0 = getelementptr inbounds %class.Domain, %class.Domain* %this, i32 0, i32 50
  call void @_ZNSt6vectorIdSaIdEEC2Ev(%"class.std::vector"* %m_elemMass.dup0) #14
  %m_e_cut.dup0 = getelementptr inbounds %class.Domain, %class.Domain* %this, i32 0, i32 51
  store double 0x3E7AD7F29ABCAF48, double* %m_e_cut.dup0, align 8, !tbaa !13
  %m_p_cut.dup0 = getelementptr inbounds %class.Domain, %class.Domain* %this, i32 0, i32 52
  store double 0x3E7AD7F29ABCAF48, double* %m_p_cut.dup0, align 8, !tbaa !14
  %m_q_cut.dup0 = getelementptr inbounds %class.Domain, %class.Domain* %this, i32 0, i32 53
  store double 0x3E7AD7F29ABCAF48, double* %m_q_cut.dup0, align 8, !tbaa !15
  %m_v_cut.dup0 = getelementptr inbounds %class.Domain, %class.Domain* %this, i32 0, i32 54
  store double 1.000000e-10, double* %m_v_cut.dup0, align 8, !tbaa !16
  %m_u_cut.dup0 = getelementptr inbounds %class.Domain, %class.Domain* %this, i32 0, i32 55
  store double 0x3E7AD7F29ABCAF48, double* %m_u_cut.dup0, align 8, !tbaa !17
  %m_hgcoef.dup0 = getelementptr inbounds %class.Domain, %class.Domain* %this, i32 0, i32 56
  store double 3.000000e+00, double* %m_hgcoef.dup0, align 8, !tbaa !18
  %m_ss4o3.dup0 = getelementptr inbounds %class.Domain, %class.Domain* %this, i32 0, i32 57
  store double 0x3FF5555555555555, double* %m_ss4o3.dup0, align 8, !tbaa !19
  %m_qstop.dup0 = getelementptr inbounds %class.Domain, %class.Domain* %this, i32 0, i32 58
  store double 1.000000e+12, double* %m_qstop.dup0, align 8, !tbaa !20
  %m_monoq_max_slope.dup0 = getelementptr inbounds %class.Domain, %class.Domain* %this, i32 0, i32 59
  store double 1.000000e+00, double* %m_monoq_max_slope.dup0, align 8, !tbaa !21
  %m_monoq_limiter_mult.dup0 = getelementptr inbounds %class.Domain, %class.Domain* %this, i32 0, i32 60
  store double 2.000000e+00, double* %m_monoq_limiter_mult.dup0, align 8, !tbaa !22
  %m_qlc_monoq.dup0 = getelementptr inbounds %class.Domain, %class.Domain* %this, i32 0, i32 61
  store double 5.000000e-01, double* %m_qlc_monoq.dup0, align 8, !tbaa !23
  %m_qqc_monoq.dup0 = getelementptr inbounds %class.Domain, %class.Domain* %this, i32 0, i32 62
  store double 0x3FE5555555555555, double* %m_qqc_monoq.dup0, align 8, !tbaa !24
  %m_qqc.dup0 = getelementptr inbounds %class.Domain, %class.Domain* %this, i32 0, i32 63
  store double 2.000000e+00, double* %m_qqc.dup0, align 8, !tbaa !25
  %m_eosvmax.dup0 = getelementptr inbounds %class.Domain, %class.Domain* %this, i32 0, i32 64
  store double 1.000000e+09, double* %m_eosvmax.dup0, align 8, !tbaa !26
  %m_eosvmin.dup0 = getelementptr inbounds %class.Domain, %class.Domain* %this, i32 0, i32 65
  store double 1.000000e-09, double* %m_eosvmin.dup0, align 8, !tbaa !27
  %m_pmin.dup0 = getelementptr inbounds %class.Domain, %class.Domain* %this, i32 0, i32 66
  store double 0.000000e+00, double* %m_pmin.dup0, align 8, !tbaa !28
  %m_emin.dup0 = getelementptr inbounds %class.Domain, %class.Domain* %this, i32 0, i32 67
  store double -1.000000e+15, double* %m_emin.dup0, align 8, !tbaa !29
  %m_dvovmax.dup0 = getelementptr inbounds %class.Domain, %class.Domain* %this, i32 0, i32 68
  store double 1.000000e-01, double* %m_dvovmax.dup0, align 8, !tbaa !30
  %m_refdens.dup0 = getelementptr inbounds %class.Domain, %class.Domain* %this, i32 0, i32 69
  store double 1.000000e+00, double* %m_refdens.dup0, align 8, !tbaa !31
  %m_nodeElemStart.dup0 = getelementptr inbounds %class.Domain, %class.Domain* %this, i32 0, i32 92
  store i32* null, i32** %m_nodeElemStart.dup0, align 8, !tbaa !32
  %m_nodeElemCornerList.dup0 = getelementptr inbounds %class.Domain, %class.Domain* %this, i32 0, i32 93
  store i32* null, i32** %m_nodeElemCornerList.dup0, align 8, !tbaa !33
  %add.dup0 = add nsw i32 %nx, 1
  %call.dup0 = invoke nonnull align 4 dereferenceable(4) i32* @_ZN6Domain4costEv(%class.Domain* %this)
          to label %invoke.cont.dup0 unwind label %lpad.dup0

lpad.dup0:                                        ; preds = %invoke.cont.dup0, %invoke.cont5.dup0, %invoke.cont7.dup0, %invoke.cont10.dup0, %invoke.cont12.dup0, %invoke.cont13.dup0, %invoke.cont15.dup0, %invoke.cont99.dup0, %invoke.cont101.dup0, %invoke.cont103.dup0, %invoke.cont105.dup0, %invoke.cont107.dup0, %for.end87.dup0, %invoke.cont88.dup0, %invoke.cont89.dup0, %invoke.cont90.dup0, %invoke.cont91.dup0, %invoke.cont92.dup0, %invoke.cont93.dup0, %invoke.cont95.dup0, %invoke.cont97.dup0, %entry.dup0
  %call108.dup0122 = phi double* [ undef, %invoke.cont97.dup0 ], [ undef, %invoke.cont99.dup0 ], [ undef, %invoke.cont7.dup0 ], [ undef, %invoke.cont101.dup0 ], [ undef, %invoke.cont88.dup0 ], [ undef, %invoke.cont5.dup0 ], [ undef, %invoke.cont89.dup0 ], [ undef, %invoke.cont91.dup0 ], [ undef, %invoke.cont93.dup0 ], [ undef, %invoke.cont13.dup0 ], [ undef, %entry.dup0 ], [ undef, %invoke.cont12.dup0 ], [ undef, %invoke.cont90.dup0 ], [ undef, %invoke.cont103.dup0 ], [ undef, %invoke.cont107.dup0 ], [ undef, %invoke.cont15.dup0 ], [ undef, %invoke.cont10.dup0 ], [ undef, %invoke.cont92.dup0 ], [ undef, %invoke.cont95.dup0 ], [ undef, %for.end87.dup0 ], [ undef, %invoke.cont.dup0 ], [ undef, %invoke.cont105.dup0 ]
  %call98.dup0123 = phi double* [ undef, %invoke.cont97.dup0 ], [ undef, %invoke.cont99.dup0 ], [ undef, %invoke.cont7.dup0 ], [ undef, %invoke.cont101.dup0 ], [ undef, %invoke.cont88.dup0 ], [ undef, %invoke.cont5.dup0 ], [ undef, %invoke.cont89.dup0 ], [ undef, %invoke.cont91.dup0 ], [ undef, %invoke.cont93.dup0 ], [ undef, %invoke.cont13.dup0 ], [ undef, %entry.dup0 ], [ undef, %invoke.cont12.dup0 ], [ undef, %invoke.cont90.dup0 ], [ undef, %invoke.cont103.dup0 ], [ undef, %invoke.cont107.dup0 ], [ undef, %invoke.cont15.dup0 ], [ undef, %invoke.cont10.dup0 ], [ undef, %invoke.cont92.dup0 ], [ undef, %invoke.cont95.dup0 ], [ undef, %for.end87.dup0 ], [ undef, %invoke.cont.dup0 ], [ undef, %invoke.cont105.dup0 ]
  %call110.dup0124 = phi i32* [ undef, %invoke.cont97.dup0 ], [ undef, %invoke.cont99.dup0 ], [ undef, %invoke.cont7.dup0 ], [ undef, %invoke.cont101.dup0 ], [ undef, %invoke.cont88.dup0 ], [ undef, %invoke.cont5.dup0 ], [ undef, %invoke.cont89.dup0 ], [ undef, %invoke.cont91.dup0 ], [ undef, %invoke.cont93.dup0 ], [ undef, %invoke.cont13.dup0 ], [ undef, %entry.dup0 ], [ undef, %invoke.cont12.dup0 ], [ undef, %invoke.cont90.dup0 ], [ undef, %invoke.cont103.dup0 ], [ undef, %invoke.cont107.dup0 ], [ undef, %invoke.cont15.dup0 ], [ undef, %invoke.cont10.dup0 ], [ undef, %invoke.cont92.dup0 ], [ undef, %invoke.cont95.dup0 ], [ undef, %for.end87.dup0 ], [ undef, %invoke.cont.dup0 ], [ undef, %invoke.cont105.dup0 ]
  %call14.dup0125 = phi i32* [ undef, %invoke.cont97.dup0 ], [ undef, %invoke.cont99.dup0 ], [ undef, %invoke.cont7.dup0 ], [ undef, %invoke.cont101.dup0 ], [ undef, %invoke.cont88.dup0 ], [ undef, %invoke.cont5.dup0 ], [ undef, %invoke.cont89.dup0 ], [ undef, %invoke.cont91.dup0 ], [ undef, %invoke.cont93.dup0 ], [ undef, %invoke.cont13.dup0 ], [ undef, %entry.dup0 ], [ undef, %invoke.cont12.dup0 ], [ undef, %invoke.cont90.dup0 ], [ undef, %invoke.cont103.dup0 ], [ undef, %invoke.cont107.dup0 ], [ undef, %invoke.cont15.dup0 ], [ undef, %invoke.cont10.dup0 ], [ undef, %invoke.cont92.dup0 ], [ undef, %invoke.cont95.dup0 ], [ undef, %for.end87.dup0 ], [ undef, %invoke.cont.dup0 ], [ undef, %invoke.cont105.dup0 ]
  %m_elemBC.dup0126 = phi %"class.std::vector.0"* [ undef, %invoke.cont97.dup0 ], [ undef, %invoke.cont99.dup0 ], [ undef, %invoke.cont7.dup0 ], [ undef, %invoke.cont101.dup0 ], [ undef, %invoke.cont88.dup0 ], [ undef, %invoke.cont5.dup0 ], [ undef, %invoke.cont89.dup0 ], [ undef, %invoke.cont91.dup0 ], [ undef, %invoke.cont93.dup0 ], [ undef, %invoke.cont13.dup0 ], [ undef, %entry.dup0 ], [ undef, %invoke.cont12.dup0 ], [ undef, %invoke.cont90.dup0 ], [ undef, %invoke.cont103.dup0 ], [ undef, %invoke.cont107.dup0 ], [ undef, %invoke.cont15.dup0 ], [ undef, %invoke.cont10.dup0 ], [ undef, %invoke.cont92.dup0 ], [ undef, %invoke.cont95.dup0 ], [ undef, %for.end87.dup0 ], [ undef, %invoke.cont.dup0 ], [ undef, %invoke.cont105.dup0 ]
  %m_lzetap.dup0127 = phi %"class.std::vector.0"* [ undef, %invoke.cont97.dup0 ], [ undef, %invoke.cont99.dup0 ], [ undef, %invoke.cont7.dup0 ], [ undef, %invoke.cont101.dup0 ], [ undef, %invoke.cont88.dup0 ], [ undef, %invoke.cont5.dup0 ], [ undef, %invoke.cont89.dup0 ], [ undef, %invoke.cont91.dup0 ], [ undef, %invoke.cont93.dup0 ], [ undef, %invoke.cont13.dup0 ], [ undef, %entry.dup0 ], [ undef, %invoke.cont12.dup0 ], [ undef, %invoke.cont90.dup0 ], [ undef, %invoke.cont103.dup0 ], [ undef, %invoke.cont107.dup0 ], [ undef, %invoke.cont15.dup0 ], [ undef, %invoke.cont10.dup0 ], [ undef, %invoke.cont92.dup0 ], [ undef, %invoke.cont95.dup0 ], [ undef, %for.end87.dup0 ], [ undef, %invoke.cont.dup0 ], [ undef, %invoke.cont105.dup0 ]
  %m_symmX.dup0128 = phi %"class.std::vector.0"* [ undef, %invoke.cont97.dup0 ], [ undef, %invoke.cont99.dup0 ], [ undef, %invoke.cont7.dup0 ], [ undef, %invoke.cont101.dup0 ], [ undef, %invoke.cont88.dup0 ], [ undef, %invoke.cont5.dup0 ], [ undef, %invoke.cont89.dup0 ], [ undef, %invoke.cont91.dup0 ], [ undef, %invoke.cont93.dup0 ], [ undef, %invoke.cont13.dup0 ], [ undef, %entry.dup0 ], [ undef, %invoke.cont12.dup0 ], [ undef, %invoke.cont90.dup0 ], [ undef, %invoke.cont103.dup0 ], [ undef, %invoke.cont107.dup0 ], [ undef, %invoke.cont15.dup0 ], [ undef, %invoke.cont10.dup0 ], [ undef, %invoke.cont92.dup0 ], [ undef, %invoke.cont95.dup0 ], [ undef, %for.end87.dup0 ], [ undef, %invoke.cont.dup0 ], [ undef, %invoke.cont105.dup0 ]
  %m_vdov.dup0129 = phi %"class.std::vector"* [ undef, %invoke.cont97.dup0 ], [ undef, %invoke.cont99.dup0 ], [ undef, %invoke.cont7.dup0 ], [ undef, %invoke.cont101.dup0 ], [ undef, %invoke.cont88.dup0 ], [ undef, %invoke.cont5.dup0 ], [ undef, %invoke.cont89.dup0 ], [ undef, %invoke.cont91.dup0 ], [ undef, %invoke.cont93.dup0 ], [ undef, %invoke.cont13.dup0 ], [ undef, %entry.dup0 ], [ undef, %invoke.cont12.dup0 ], [ undef, %invoke.cont90.dup0 ], [ undef, %invoke.cont103.dup0 ], [ undef, %invoke.cont107.dup0 ], [ undef, %invoke.cont15.dup0 ], [ undef, %invoke.cont10.dup0 ], [ undef, %invoke.cont92.dup0 ], [ undef, %invoke.cont95.dup0 ], [ undef, %for.end87.dup0 ], [ undef, %invoke.cont.dup0 ], [ undef, %invoke.cont105.dup0 ]
  %m_lzetam.dup0130 = phi %"class.std::vector.0"* [ undef, %invoke.cont97.dup0 ], [ undef, %invoke.cont99.dup0 ], [ undef, %invoke.cont7.dup0 ], [ undef, %invoke.cont101.dup0 ], [ undef, %invoke.cont88.dup0 ], [ undef, %invoke.cont5.dup0 ], [ undef, %invoke.cont89.dup0 ], [ undef, %invoke.cont91.dup0 ], [ undef, %invoke.cont93.dup0 ], [ undef, %invoke.cont13.dup0 ], [ undef, %entry.dup0 ], [ undef, %invoke.cont12.dup0 ], [ undef, %invoke.cont90.dup0 ], [ undef, %invoke.cont103.dup0 ], [ undef, %invoke.cont107.dup0 ], [ undef, %invoke.cont15.dup0 ], [ undef, %invoke.cont10.dup0 ], [ undef, %invoke.cont92.dup0 ], [ undef, %invoke.cont95.dup0 ], [ undef, %for.end87.dup0 ], [ undef, %invoke.cont.dup0 ], [ undef, %invoke.cont105.dup0 ]
  %m_nodalMass.dup0131 = phi %"class.std::vector"* [ undef, %invoke.cont97.dup0 ], [ undef, %invoke.cont99.dup0 ], [ undef, %invoke.cont7.dup0 ], [ undef, %invoke.cont101.dup0 ], [ undef, %invoke.cont88.dup0 ], [ undef, %invoke.cont5.dup0 ], [ undef, %invoke.cont89.dup0 ], [ undef, %invoke.cont91.dup0 ], [ undef, %invoke.cont93.dup0 ], [ undef, %invoke.cont13.dup0 ], [ undef, %entry.dup0 ], [ undef, %invoke.cont12.dup0 ], [ undef, %invoke.cont90.dup0 ], [ undef, %invoke.cont103.dup0 ], [ undef, %invoke.cont107.dup0 ], [ undef, %invoke.cont15.dup0 ], [ undef, %invoke.cont10.dup0 ], [ undef, %invoke.cont92.dup0 ], [ undef, %invoke.cont95.dup0 ], [ undef, %for.end87.dup0 ], [ undef, %invoke.cont.dup0 ], [ undef, %invoke.cont105.dup0 ]
  %m_letap.dup0132 = phi %"class.std::vector.0"* [ undef, %invoke.cont97.dup0 ], [ undef, %invoke.cont99.dup0 ], [ undef, %invoke.cont7.dup0 ], [ undef, %invoke.cont101.dup0 ], [ undef, %invoke.cont88.dup0 ], [ undef, %invoke.cont5.dup0 ], [ undef, %invoke.cont89.dup0 ], [ undef, %invoke.cont91.dup0 ], [ undef, %invoke.cont93.dup0 ], [ undef, %invoke.cont13.dup0 ], [ undef, %entry.dup0 ], [ undef, %invoke.cont12.dup0 ], [ undef, %invoke.cont90.dup0 ], [ undef, %invoke.cont103.dup0 ], [ undef, %invoke.cont107.dup0 ], [ undef, %invoke.cont15.dup0 ], [ undef, %invoke.cont10.dup0 ], [ undef, %invoke.cont92.dup0 ], [ undef, %invoke.cont95.dup0 ], [ undef, %for.end87.dup0 ], [ undef, %invoke.cont.dup0 ], [ undef, %invoke.cont105.dup0 ]
  %m_fz.dup0133 = phi %"class.std::vector"* [ undef, %invoke.cont97.dup0 ], [ undef, %invoke.cont99.dup0 ], [ undef, %invoke.cont7.dup0 ], [ undef, %invoke.cont101.dup0 ], [ undef, %invoke.cont88.dup0 ], [ undef, %invoke.cont5.dup0 ], [ undef, %invoke.cont89.dup0 ], [ undef, %invoke.cont91.dup0 ], [ undef, %invoke.cont93.dup0 ], [ undef, %invoke.cont13.dup0 ], [ undef, %entry.dup0 ], [ undef, %invoke.cont12.dup0 ], [ undef, %invoke.cont90.dup0 ], [ undef, %invoke.cont103.dup0 ], [ undef, %invoke.cont107.dup0 ], [ undef, %invoke.cont15.dup0 ], [ undef, %invoke.cont10.dup0 ], [ undef, %invoke.cont92.dup0 ], [ undef, %invoke.cont95.dup0 ], [ undef, %for.end87.dup0 ], [ undef, %invoke.cont.dup0 ], [ undef, %invoke.cont105.dup0 ]
  %m_letam.dup0134 = phi %"class.std::vector.0"* [ undef, %invoke.cont97.dup0 ], [ undef, %invoke.cont99.dup0 ], [ undef, %invoke.cont7.dup0 ], [ undef, %invoke.cont101.dup0 ], [ undef, %invoke.cont88.dup0 ], [ undef, %invoke.cont5.dup0 ], [ undef, %invoke.cont89.dup0 ], [ undef, %invoke.cont91.dup0 ], [ undef, %invoke.cont93.dup0 ], [ undef, %invoke.cont13.dup0 ], [ undef, %entry.dup0 ], [ undef, %invoke.cont12.dup0 ], [ undef, %invoke.cont90.dup0 ], [ undef, %invoke.cont103.dup0 ], [ undef, %invoke.cont107.dup0 ], [ undef, %invoke.cont15.dup0 ], [ undef, %invoke.cont10.dup0 ], [ undef, %invoke.cont92.dup0 ], [ undef, %invoke.cont95.dup0 ], [ undef, %for.end87.dup0 ], [ undef, %invoke.cont.dup0 ], [ undef, %invoke.cont105.dup0 ]
  %m_lxip.dup0135 = phi %"class.std::vector.0"* [ undef, %invoke.cont97.dup0 ], [ undef, %invoke.cont99.dup0 ], [ undef, %invoke.cont7.dup0 ], [ undef, %invoke.cont101.dup0 ], [ undef, %invoke.cont88.dup0 ], [ undef, %invoke.cont5.dup0 ], [ undef, %invoke.cont89.dup0 ], [ undef, %invoke.cont91.dup0 ], [ undef, %invoke.cont93.dup0 ], [ undef, %invoke.cont13.dup0 ], [ undef, %entry.dup0 ], [ undef, %invoke.cont12.dup0 ], [ undef, %invoke.cont90.dup0 ], [ undef, %invoke.cont103.dup0 ], [ undef, %invoke.cont107.dup0 ], [ undef, %invoke.cont15.dup0 ], [ undef, %invoke.cont10.dup0 ], [ undef, %invoke.cont92.dup0 ], [ undef, %invoke.cont95.dup0 ], [ undef, %for.end87.dup0 ], [ undef, %invoke.cont.dup0 ], [ undef, %invoke.cont105.dup0 ]
  %m_nodelist.dup0136 = phi %"class.std::vector.0"* [ undef, %invoke.cont97.dup0 ], [ undef, %invoke.cont99.dup0 ], [ undef, %invoke.cont7.dup0 ], [ undef, %invoke.cont101.dup0 ], [ undef, %invoke.cont88.dup0 ], [ undef, %invoke.cont5.dup0 ], [ undef, %invoke.cont89.dup0 ], [ undef, %invoke.cont91.dup0 ], [ undef, %invoke.cont93.dup0 ], [ undef, %invoke.cont13.dup0 ], [ undef, %entry.dup0 ], [ undef, %invoke.cont12.dup0 ], [ undef, %invoke.cont90.dup0 ], [ undef, %invoke.cont103.dup0 ], [ undef, %invoke.cont107.dup0 ], [ undef, %invoke.cont15.dup0 ], [ undef, %invoke.cont10.dup0 ], [ undef, %invoke.cont92.dup0 ], [ undef, %invoke.cont95.dup0 ], [ undef, %for.end87.dup0 ], [ undef, %invoke.cont.dup0 ], [ undef, %invoke.cont105.dup0 ]
  %m_symmZ.dup0137 = phi %"class.std::vector.0"* [ undef, %invoke.cont97.dup0 ], [ undef, %invoke.cont99.dup0 ], [ undef, %invoke.cont7.dup0 ], [ undef, %invoke.cont101.dup0 ], [ undef, %invoke.cont88.dup0 ], [ undef, %invoke.cont5.dup0 ], [ undef, %invoke.cont89.dup0 ], [ undef, %invoke.cont91.dup0 ], [ undef, %invoke.cont93.dup0 ], [ undef, %invoke.cont13.dup0 ], [ undef, %entry.dup0 ], [ undef, %invoke.cont12.dup0 ], [ undef, %invoke.cont90.dup0 ], [ undef, %invoke.cont103.dup0 ], [ undef, %invoke.cont107.dup0 ], [ undef, %invoke.cont15.dup0 ], [ undef, %invoke.cont10.dup0 ], [ undef, %invoke.cont92.dup0 ], [ undef, %invoke.cont95.dup0 ], [ undef, %for.end87.dup0 ], [ undef, %invoke.cont.dup0 ], [ undef, %invoke.cont105.dup0 ]
  %m_p.dup0138 = phi %"class.std::vector"* [ undef, %invoke.cont97.dup0 ], [ undef, %invoke.cont99.dup0 ], [ undef, %invoke.cont7.dup0 ], [ undef, %invoke.cont101.dup0 ], [ undef, %invoke.cont88.dup0 ], [ undef, %invoke.cont5.dup0 ], [ undef, %invoke.cont89.dup0 ], [ undef, %invoke.cont91.dup0 ], [ undef, %invoke.cont93.dup0 ], [ undef, %invoke.cont13.dup0 ], [ undef, %entry.dup0 ], [ undef, %invoke.cont12.dup0 ], [ undef, %invoke.cont90.dup0 ], [ undef, %invoke.cont103.dup0 ], [ undef, %invoke.cont107.dup0 ], [ undef, %invoke.cont15.dup0 ], [ undef, %invoke.cont10.dup0 ], [ undef, %invoke.cont92.dup0 ], [ undef, %invoke.cont95.dup0 ], [ undef, %for.end87.dup0 ], [ undef, %invoke.cont.dup0 ], [ undef, %invoke.cont105.dup0 ]
  %m_zdd.dup0139 = phi %"class.std::vector"* [ undef, %invoke.cont97.dup0 ], [ undef, %invoke.cont99.dup0 ], [ undef, %invoke.cont7.dup0 ], [ undef, %invoke.cont101.dup0 ], [ undef, %invoke.cont88.dup0 ], [ undef, %invoke.cont5.dup0 ], [ undef, %invoke.cont89.dup0 ], [ undef, %invoke.cont91.dup0 ], [ undef, %invoke.cont93.dup0 ], [ undef, %invoke.cont13.dup0 ], [ undef, %entry.dup0 ], [ undef, %invoke.cont12.dup0 ], [ undef, %invoke.cont90.dup0 ], [ undef, %invoke.cont103.dup0 ], [ undef, %invoke.cont107.dup0 ], [ undef, %invoke.cont15.dup0 ], [ undef, %invoke.cont10.dup0 ], [ undef, %invoke.cont92.dup0 ], [ undef, %invoke.cont95.dup0 ], [ undef, %for.end87.dup0 ], [ undef, %invoke.cont.dup0 ], [ undef, %invoke.cont105.dup0 ]
  %m_volo.dup0140 = phi %"class.std::vector"* [ undef, %invoke.cont97.dup0 ], [ undef, %invoke.cont99.dup0 ], [ undef, %invoke.cont7.dup0 ], [ undef, %invoke.cont101.dup0 ], [ undef, %invoke.cont88.dup0 ], [ undef, %invoke.cont5.dup0 ], [ undef, %invoke.cont89.dup0 ], [ undef, %invoke.cont91.dup0 ], [ undef, %invoke.cont93.dup0 ], [ undef, %invoke.cont13.dup0 ], [ undef, %entry.dup0 ], [ undef, %invoke.cont12.dup0 ], [ undef, %invoke.cont90.dup0 ], [ undef, %invoke.cont103.dup0 ], [ undef, %invoke.cont107.dup0 ], [ undef, %invoke.cont15.dup0 ], [ undef, %invoke.cont10.dup0 ], [ undef, %invoke.cont92.dup0 ], [ undef, %invoke.cont95.dup0 ], [ undef, %for.end87.dup0 ], [ undef, %invoke.cont.dup0 ], [ undef, %invoke.cont105.dup0 ]
  %m_fx.dup0141 = phi %"class.std::vector"* [ undef, %invoke.cont97.dup0 ], [ undef, %invoke.cont99.dup0 ], [ undef, %invoke.cont7.dup0 ], [ undef, %invoke.cont101.dup0 ], [ undef, %invoke.cont88.dup0 ], [ undef, %invoke.cont5.dup0 ], [ undef, %invoke.cont89.dup0 ], [ undef, %invoke.cont91.dup0 ], [ undef, %invoke.cont93.dup0 ], [ undef, %invoke.cont13.dup0 ], [ undef, %entry.dup0 ], [ undef, %invoke.cont12.dup0 ], [ undef, %invoke.cont90.dup0 ], [ undef, %invoke.cont103.dup0 ], [ undef, %invoke.cont107.dup0 ], [ undef, %invoke.cont15.dup0 ], [ undef, %invoke.cont10.dup0 ], [ undef, %invoke.cont92.dup0 ], [ undef, %invoke.cont95.dup0 ], [ undef, %for.end87.dup0 ], [ undef, %invoke.cont.dup0 ], [ undef, %invoke.cont105.dup0 ]
  %m_vnew.dup0142 = phi %"class.std::vector"* [ undef, %invoke.cont97.dup0 ], [ undef, %invoke.cont99.dup0 ], [ undef, %invoke.cont7.dup0 ], [ undef, %invoke.cont101.dup0 ], [ undef, %invoke.cont88.dup0 ], [ undef, %invoke.cont5.dup0 ], [ undef, %invoke.cont89.dup0 ], [ undef, %invoke.cont91.dup0 ], [ undef, %invoke.cont93.dup0 ], [ undef, %invoke.cont13.dup0 ], [ undef, %entry.dup0 ], [ undef, %invoke.cont12.dup0 ], [ undef, %invoke.cont90.dup0 ], [ undef, %invoke.cont103.dup0 ], [ undef, %invoke.cont107.dup0 ], [ undef, %invoke.cont15.dup0 ], [ undef, %invoke.cont10.dup0 ], [ undef, %invoke.cont92.dup0 ], [ undef, %invoke.cont95.dup0 ], [ undef, %for.end87.dup0 ], [ undef, %invoke.cont.dup0 ], [ undef, %invoke.cont105.dup0 ]
  %m_fy.dup0143 = phi %"class.std::vector"* [ undef, %invoke.cont97.dup0 ], [ undef, %invoke.cont99.dup0 ], [ undef, %invoke.cont7.dup0 ], [ undef, %invoke.cont101.dup0 ], [ undef, %invoke.cont88.dup0 ], [ undef, %invoke.cont5.dup0 ], [ undef, %invoke.cont89.dup0 ], [ undef, %invoke.cont91.dup0 ], [ undef, %invoke.cont93.dup0 ], [ undef, %invoke.cont13.dup0 ], [ undef, %entry.dup0 ], [ undef, %invoke.cont12.dup0 ], [ undef, %invoke.cont90.dup0 ], [ undef, %invoke.cont103.dup0 ], [ undef, %invoke.cont107.dup0 ], [ undef, %invoke.cont15.dup0 ], [ undef, %invoke.cont10.dup0 ], [ undef, %invoke.cont92.dup0 ], [ undef, %invoke.cont95.dup0 ], [ undef, %for.end87.dup0 ], [ undef, %invoke.cont.dup0 ], [ undef, %invoke.cont105.dup0 ]
  %m_arealg.dup0144 = phi %"class.std::vector"* [ undef, %invoke.cont97.dup0 ], [ undef, %invoke.cont99.dup0 ], [ undef, %invoke.cont7.dup0 ], [ undef, %invoke.cont101.dup0 ], [ undef, %invoke.cont88.dup0 ], [ undef, %invoke.cont5.dup0 ], [ undef, %invoke.cont89.dup0 ], [ undef, %invoke.cont91.dup0 ], [ undef, %invoke.cont93.dup0 ], [ undef, %invoke.cont13.dup0 ], [ undef, %entry.dup0 ], [ undef, %invoke.cont12.dup0 ], [ undef, %invoke.cont90.dup0 ], [ undef, %invoke.cont103.dup0 ], [ undef, %invoke.cont107.dup0 ], [ undef, %invoke.cont15.dup0 ], [ undef, %invoke.cont10.dup0 ], [ undef, %invoke.cont92.dup0 ], [ undef, %invoke.cont95.dup0 ], [ undef, %for.end87.dup0 ], [ undef, %invoke.cont.dup0 ], [ undef, %invoke.cont105.dup0 ]
  %m_q.dup0145 = phi %"class.std::vector"* [ undef, %invoke.cont97.dup0 ], [ undef, %invoke.cont99.dup0 ], [ undef, %invoke.cont7.dup0 ], [ undef, %invoke.cont101.dup0 ], [ undef, %invoke.cont88.dup0 ], [ undef, %invoke.cont5.dup0 ], [ undef, %invoke.cont89.dup0 ], [ undef, %invoke.cont91.dup0 ], [ undef, %invoke.cont93.dup0 ], [ undef, %invoke.cont13.dup0 ], [ undef, %entry.dup0 ], [ undef, %invoke.cont12.dup0 ], [ undef, %invoke.cont90.dup0 ], [ undef, %invoke.cont103.dup0 ], [ undef, %invoke.cont107.dup0 ], [ undef, %invoke.cont15.dup0 ], [ undef, %invoke.cont10.dup0 ], [ undef, %invoke.cont92.dup0 ], [ undef, %invoke.cont95.dup0 ], [ undef, %for.end87.dup0 ], [ undef, %invoke.cont.dup0 ], [ undef, %invoke.cont105.dup0 ]
  %add.dup0146 = phi i32 [ undef, %invoke.cont97.dup0 ], [ undef, %invoke.cont99.dup0 ], [ undef, %invoke.cont7.dup0 ], [ undef, %invoke.cont101.dup0 ], [ undef, %invoke.cont88.dup0 ], [ undef, %invoke.cont5.dup0 ], [ undef, %invoke.cont89.dup0 ], [ undef, %invoke.cont91.dup0 ], [ undef, %invoke.cont93.dup0 ], [ undef, %invoke.cont13.dup0 ], [ undef, %entry.dup0 ], [ undef, %invoke.cont12.dup0 ], [ undef, %invoke.cont90.dup0 ], [ undef, %invoke.cont103.dup0 ], [ undef, %invoke.cont107.dup0 ], [ undef, %invoke.cont15.dup0 ], [ undef, %invoke.cont10.dup0 ], [ undef, %invoke.cont92.dup0 ], [ undef, %invoke.cont95.dup0 ], [ undef, %for.end87.dup0 ], [ undef, %invoke.cont.dup0 ], [ undef, %invoke.cont105.dup0 ]
  %m_xd.dup0147 = phi %"class.std::vector"* [ undef, %invoke.cont97.dup0 ], [ undef, %invoke.cont99.dup0 ], [ undef, %invoke.cont7.dup0 ], [ undef, %invoke.cont101.dup0 ], [ undef, %invoke.cont88.dup0 ], [ undef, %invoke.cont5.dup0 ], [ undef, %invoke.cont89.dup0 ], [ undef, %invoke.cont91.dup0 ], [ undef, %invoke.cont93.dup0 ], [ undef, %invoke.cont13.dup0 ], [ undef, %entry.dup0 ], [ undef, %invoke.cont12.dup0 ], [ undef, %invoke.cont90.dup0 ], [ undef, %invoke.cont103.dup0 ], [ undef, %invoke.cont107.dup0 ], [ undef, %invoke.cont15.dup0 ], [ undef, %invoke.cont10.dup0 ], [ undef, %invoke.cont92.dup0 ], [ undef, %invoke.cont95.dup0 ], [ undef, %for.end87.dup0 ], [ undef, %invoke.cont.dup0 ], [ undef, %invoke.cont105.dup0 ]
  %call96.dup0148 = phi double* [ undef, %invoke.cont97.dup0 ], [ undef, %invoke.cont99.dup0 ], [ undef, %invoke.cont7.dup0 ], [ undef, %invoke.cont101.dup0 ], [ undef, %invoke.cont88.dup0 ], [ undef, %invoke.cont5.dup0 ], [ undef, %invoke.cont89.dup0 ], [ undef, %invoke.cont91.dup0 ], [ undef, %invoke.cont93.dup0 ], [ undef, %invoke.cont13.dup0 ], [ undef, %entry.dup0 ], [ undef, %invoke.cont12.dup0 ], [ undef, %invoke.cont90.dup0 ], [ undef, %invoke.cont103.dup0 ], [ undef, %invoke.cont107.dup0 ], [ undef, %invoke.cont15.dup0 ], [ undef, %invoke.cont10.dup0 ], [ undef, %invoke.cont92.dup0 ], [ undef, %invoke.cont95.dup0 ], [ undef, %for.end87.dup0 ], [ undef, %invoke.cont.dup0 ], [ undef, %invoke.cont105.dup0 ]
  %call100.dup0149 = phi double* [ undef, %invoke.cont97.dup0 ], [ undef, %invoke.cont99.dup0 ], [ undef, %invoke.cont7.dup0 ], [ undef, %invoke.cont101.dup0 ], [ undef, %invoke.cont88.dup0 ], [ undef, %invoke.cont5.dup0 ], [ undef, %invoke.cont89.dup0 ], [ undef, %invoke.cont91.dup0 ], [ undef, %invoke.cont93.dup0 ], [ undef, %invoke.cont13.dup0 ], [ undef, %entry.dup0 ], [ undef, %invoke.cont12.dup0 ], [ undef, %invoke.cont90.dup0 ], [ undef, %invoke.cont103.dup0 ], [ undef, %invoke.cont107.dup0 ], [ undef, %invoke.cont15.dup0 ], [ undef, %invoke.cont10.dup0 ], [ undef, %invoke.cont92.dup0 ], [ undef, %invoke.cont95.dup0 ], [ undef, %for.end87.dup0 ], [ undef, %invoke.cont.dup0 ], [ undef, %invoke.cont105.dup0 ]
  %m_z.dup0150 = phi %"class.std::vector"* [ undef, %invoke.cont97.dup0 ], [ undef, %invoke.cont99.dup0 ], [ undef, %invoke.cont7.dup0 ], [ undef, %invoke.cont101.dup0 ], [ undef, %invoke.cont88.dup0 ], [ undef, %invoke.cont5.dup0 ], [ undef, %invoke.cont89.dup0 ], [ undef, %invoke.cont91.dup0 ], [ undef, %invoke.cont93.dup0 ], [ undef, %invoke.cont13.dup0 ], [ undef, %entry.dup0 ], [ undef, %invoke.cont12.dup0 ], [ undef, %invoke.cont90.dup0 ], [ undef, %invoke.cont103.dup0 ], [ undef, %invoke.cont107.dup0 ], [ undef, %invoke.cont15.dup0 ], [ undef, %invoke.cont10.dup0 ], [ undef, %invoke.cont92.dup0 ], [ undef, %invoke.cont95.dup0 ], [ undef, %for.end87.dup0 ], [ undef, %invoke.cont.dup0 ], [ undef, %invoke.cont105.dup0 ]
  %m_e.dup0151 = phi %"class.std::vector"* [ undef, %invoke.cont97.dup0 ], [ undef, %invoke.cont99.dup0 ], [ undef, %invoke.cont7.dup0 ], [ undef, %invoke.cont101.dup0 ], [ undef, %invoke.cont88.dup0 ], [ undef, %invoke.cont5.dup0 ], [ undef, %invoke.cont89.dup0 ], [ undef, %invoke.cont91.dup0 ], [ undef, %invoke.cont93.dup0 ], [ undef, %invoke.cont13.dup0 ], [ undef, %entry.dup0 ], [ undef, %invoke.cont12.dup0 ], [ undef, %invoke.cont90.dup0 ], [ undef, %invoke.cont103.dup0 ], [ undef, %invoke.cont107.dup0 ], [ undef, %invoke.cont15.dup0 ], [ undef, %invoke.cont10.dup0 ], [ undef, %invoke.cont92.dup0 ], [ undef, %invoke.cont95.dup0 ], [ undef, %for.end87.dup0 ], [ undef, %invoke.cont.dup0 ], [ undef, %invoke.cont105.dup0 ]
  %m_delv.dup0152 = phi %"class.std::vector"* [ undef, %invoke.cont97.dup0 ], [ undef, %invoke.cont99.dup0 ], [ undef, %invoke.cont7.dup0 ], [ undef, %invoke.cont101.dup0 ], [ undef, %invoke.cont88.dup0 ], [ undef, %invoke.cont5.dup0 ], [ undef, %invoke.cont89.dup0 ], [ undef, %invoke.cont91.dup0 ], [ undef, %invoke.cont93.dup0 ], [ undef, %invoke.cont13.dup0 ], [ undef, %entry.dup0 ], [ undef, %invoke.cont12.dup0 ], [ undef, %invoke.cont90.dup0 ], [ undef, %invoke.cont103.dup0 ], [ undef, %invoke.cont107.dup0 ], [ undef, %invoke.cont15.dup0 ], [ undef, %invoke.cont10.dup0 ], [ undef, %invoke.cont92.dup0 ], [ undef, %invoke.cont95.dup0 ], [ undef, %for.end87.dup0 ], [ undef, %invoke.cont.dup0 ], [ undef, %invoke.cont105.dup0 ]
  %m_ss.dup0153 = phi %"class.std::vector"* [ undef, %invoke.cont97.dup0 ], [ undef, %invoke.cont99.dup0 ], [ undef, %invoke.cont7.dup0 ], [ undef, %invoke.cont101.dup0 ], [ undef, %invoke.cont88.dup0 ], [ undef, %invoke.cont5.dup0 ], [ undef, %invoke.cont89.dup0 ], [ undef, %invoke.cont91.dup0 ], [ undef, %invoke.cont93.dup0 ], [ undef, %invoke.cont13.dup0 ], [ undef, %entry.dup0 ], [ undef, %invoke.cont12.dup0 ], [ undef, %invoke.cont90.dup0 ], [ undef, %invoke.cont103.dup0 ], [ undef, %invoke.cont107.dup0 ], [ undef, %invoke.cont15.dup0 ], [ undef, %invoke.cont10.dup0 ], [ undef, %invoke.cont92.dup0 ], [ undef, %invoke.cont95.dup0 ], [ undef, %for.end87.dup0 ], [ undef, %invoke.cont.dup0 ], [ undef, %invoke.cont105.dup0 ]
  %m_elemMass.dup0154 = phi %"class.std::vector"* [ undef, %invoke.cont97.dup0 ], [ undef, %invoke.cont99.dup0 ], [ undef, %invoke.cont7.dup0 ], [ undef, %invoke.cont101.dup0 ], [ undef, %invoke.cont88.dup0 ], [ undef, %invoke.cont5.dup0 ], [ undef, %invoke.cont89.dup0 ], [ undef, %invoke.cont91.dup0 ], [ undef, %invoke.cont93.dup0 ], [ undef, %invoke.cont13.dup0 ], [ undef, %entry.dup0 ], [ undef, %invoke.cont12.dup0 ], [ undef, %invoke.cont90.dup0 ], [ undef, %invoke.cont103.dup0 ], [ undef, %invoke.cont107.dup0 ], [ undef, %invoke.cont15.dup0 ], [ undef, %invoke.cont10.dup0 ], [ undef, %invoke.cont92.dup0 ], [ undef, %invoke.cont95.dup0 ], [ undef, %for.end87.dup0 ], [ undef, %invoke.cont.dup0 ], [ undef, %invoke.cont105.dup0 ]
  %m_symmY.dup0155 = phi %"class.std::vector.0"* [ undef, %invoke.cont97.dup0 ], [ undef, %invoke.cont99.dup0 ], [ undef, %invoke.cont7.dup0 ], [ undef, %invoke.cont101.dup0 ], [ undef, %invoke.cont88.dup0 ], [ undef, %invoke.cont5.dup0 ], [ undef, %invoke.cont89.dup0 ], [ undef, %invoke.cont91.dup0 ], [ undef, %invoke.cont93.dup0 ], [ undef, %invoke.cont13.dup0 ], [ undef, %entry.dup0 ], [ undef, %invoke.cont12.dup0 ], [ undef, %invoke.cont90.dup0 ], [ undef, %invoke.cont103.dup0 ], [ undef, %invoke.cont107.dup0 ], [ undef, %invoke.cont15.dup0 ], [ undef, %invoke.cont10.dup0 ], [ undef, %invoke.cont92.dup0 ], [ undef, %invoke.cont95.dup0 ], [ undef, %for.end87.dup0 ], [ undef, %invoke.cont.dup0 ], [ undef, %invoke.cont105.dup0 ]
  %call11.dup0156 = phi i32* [ undef, %invoke.cont97.dup0 ], [ undef, %invoke.cont99.dup0 ], [ undef, %invoke.cont7.dup0 ], [ undef, %invoke.cont101.dup0 ], [ undef, %invoke.cont88.dup0 ], [ undef, %invoke.cont5.dup0 ], [ undef, %invoke.cont89.dup0 ], [ undef, %invoke.cont91.dup0 ], [ undef, %invoke.cont93.dup0 ], [ undef, %invoke.cont13.dup0 ], [ undef, %entry.dup0 ], [ undef, %invoke.cont12.dup0 ], [ undef, %invoke.cont90.dup0 ], [ undef, %invoke.cont103.dup0 ], [ undef, %invoke.cont107.dup0 ], [ undef, %invoke.cont15.dup0 ], [ undef, %invoke.cont10.dup0 ], [ undef, %invoke.cont92.dup0 ], [ undef, %invoke.cont95.dup0 ], [ undef, %for.end87.dup0 ], [ undef, %invoke.cont.dup0 ], [ undef, %invoke.cont105.dup0 ]
  %call6.dup0157 = phi i32* [ undef, %invoke.cont97.dup0 ], [ undef, %invoke.cont99.dup0 ], [ undef, %invoke.cont7.dup0 ], [ undef, %invoke.cont101.dup0 ], [ undef, %invoke.cont88.dup0 ], [ undef, %invoke.cont5.dup0 ], [ undef, %invoke.cont89.dup0 ], [ undef, %invoke.cont91.dup0 ], [ undef, %invoke.cont93.dup0 ], [ undef, %invoke.cont13.dup0 ], [ undef, %entry.dup0 ], [ undef, %invoke.cont12.dup0 ], [ undef, %invoke.cont90.dup0 ], [ undef, %invoke.cont103.dup0 ], [ undef, %invoke.cont107.dup0 ], [ undef, %invoke.cont15.dup0 ], [ undef, %invoke.cont10.dup0 ], [ undef, %invoke.cont92.dup0 ], [ undef, %invoke.cont95.dup0 ], [ undef, %for.end87.dup0 ], [ undef, %invoke.cont.dup0 ], [ undef, %invoke.cont105.dup0 ]
  %call104.dup0158 = phi double* [ undef, %invoke.cont97.dup0 ], [ undef, %invoke.cont99.dup0 ], [ undef, %invoke.cont7.dup0 ], [ undef, %invoke.cont101.dup0 ], [ undef, %invoke.cont88.dup0 ], [ undef, %invoke.cont5.dup0 ], [ undef, %invoke.cont89.dup0 ], [ undef, %invoke.cont91.dup0 ], [ undef, %invoke.cont93.dup0 ], [ undef, %invoke.cont13.dup0 ], [ undef, %entry.dup0 ], [ undef, %invoke.cont12.dup0 ], [ undef, %invoke.cont90.dup0 ], [ undef, %invoke.cont103.dup0 ], [ undef, %invoke.cont107.dup0 ], [ undef, %invoke.cont15.dup0 ], [ undef, %invoke.cont10.dup0 ], [ undef, %invoke.cont92.dup0 ], [ undef, %invoke.cont95.dup0 ], [ undef, %for.end87.dup0 ], [ undef, %invoke.cont.dup0 ], [ undef, %invoke.cont105.dup0 ]
  %call102.dup0159 = phi double* [ undef, %invoke.cont97.dup0 ], [ undef, %invoke.cont99.dup0 ], [ undef, %invoke.cont7.dup0 ], [ undef, %invoke.cont101.dup0 ], [ undef, %invoke.cont88.dup0 ], [ undef, %invoke.cont5.dup0 ], [ undef, %invoke.cont89.dup0 ], [ undef, %invoke.cont91.dup0 ], [ undef, %invoke.cont93.dup0 ], [ undef, %invoke.cont13.dup0 ], [ undef, %entry.dup0 ], [ undef, %invoke.cont12.dup0 ], [ undef, %invoke.cont90.dup0 ], [ undef, %invoke.cont103.dup0 ], [ undef, %invoke.cont107.dup0 ], [ undef, %invoke.cont15.dup0 ], [ undef, %invoke.cont10.dup0 ], [ undef, %invoke.cont92.dup0 ], [ undef, %invoke.cont95.dup0 ], [ undef, %for.end87.dup0 ], [ undef, %invoke.cont.dup0 ], [ undef, %invoke.cont105.dup0 ]
  %m_y.dup0160 = phi %"class.std::vector"* [ undef, %invoke.cont97.dup0 ], [ undef, %invoke.cont99.dup0 ], [ undef, %invoke.cont7.dup0 ], [ undef, %invoke.cont101.dup0 ], [ undef, %invoke.cont88.dup0 ], [ undef, %invoke.cont5.dup0 ], [ undef, %invoke.cont89.dup0 ], [ undef, %invoke.cont91.dup0 ], [ undef, %invoke.cont93.dup0 ], [ undef, %invoke.cont13.dup0 ], [ undef, %entry.dup0 ], [ undef, %invoke.cont12.dup0 ], [ undef, %invoke.cont90.dup0 ], [ undef, %invoke.cont103.dup0 ], [ undef, %invoke.cont107.dup0 ], [ undef, %invoke.cont15.dup0 ], [ undef, %invoke.cont10.dup0 ], [ undef, %invoke.cont92.dup0 ], [ undef, %invoke.cont95.dup0 ], [ undef, %for.end87.dup0 ], [ undef, %invoke.cont.dup0 ], [ undef, %invoke.cont105.dup0 ]
  %call8.dup0161 = phi i8* [ undef, %invoke.cont97.dup0 ], [ undef, %invoke.cont99.dup0 ], [ undef, %invoke.cont7.dup0 ], [ undef, %invoke.cont101.dup0 ], [ undef, %invoke.cont88.dup0 ], [ undef, %invoke.cont5.dup0 ], [ undef, %invoke.cont89.dup0 ], [ undef, %invoke.cont91.dup0 ], [ undef, %invoke.cont93.dup0 ], [ undef, %invoke.cont13.dup0 ], [ undef, %entry.dup0 ], [ undef, %invoke.cont12.dup0 ], [ undef, %invoke.cont90.dup0 ], [ undef, %invoke.cont103.dup0 ], [ undef, %invoke.cont107.dup0 ], [ undef, %invoke.cont15.dup0 ], [ undef, %invoke.cont10.dup0 ], [ undef, %invoke.cont92.dup0 ], [ undef, %invoke.cont95.dup0 ], [ undef, %for.end87.dup0 ], [ undef, %invoke.cont.dup0 ], [ undef, %invoke.cont105.dup0 ]
  %call106.dup0162 = phi double* [ undef, %invoke.cont97.dup0 ], [ undef, %invoke.cont99.dup0 ], [ undef, %invoke.cont7.dup0 ], [ undef, %invoke.cont101.dup0 ], [ undef, %invoke.cont88.dup0 ], [ undef, %invoke.cont5.dup0 ], [ undef, %invoke.cont89.dup0 ], [ undef, %invoke.cont91.dup0 ], [ undef, %invoke.cont93.dup0 ], [ undef, %invoke.cont13.dup0 ], [ undef, %entry.dup0 ], [ undef, %invoke.cont12.dup0 ], [ undef, %invoke.cont90.dup0 ], [ undef, %invoke.cont103.dup0 ], [ undef, %invoke.cont107.dup0 ], [ undef, %invoke.cont15.dup0 ], [ undef, %invoke.cont10.dup0 ], [ undef, %invoke.cont92.dup0 ], [ undef, %invoke.cont95.dup0 ], [ undef, %for.end87.dup0 ], [ undef, %invoke.cont.dup0 ], [ undef, %invoke.cont105.dup0 ]
  %m_ql.dup0163 = phi %"class.std::vector"* [ undef, %invoke.cont97.dup0 ], [ undef, %invoke.cont99.dup0 ], [ undef, %invoke.cont7.dup0 ], [ undef, %invoke.cont101.dup0 ], [ undef, %invoke.cont88.dup0 ], [ undef, %invoke.cont5.dup0 ], [ undef, %invoke.cont89.dup0 ], [ undef, %invoke.cont91.dup0 ], [ undef, %invoke.cont93.dup0 ], [ undef, %invoke.cont13.dup0 ], [ undef, %entry.dup0 ], [ undef, %invoke.cont12.dup0 ], [ undef, %invoke.cont90.dup0 ], [ undef, %invoke.cont103.dup0 ], [ undef, %invoke.cont107.dup0 ], [ undef, %invoke.cont15.dup0 ], [ undef, %invoke.cont10.dup0 ], [ undef, %invoke.cont92.dup0 ], [ undef, %invoke.cont95.dup0 ], [ undef, %for.end87.dup0 ], [ undef, %invoke.cont.dup0 ], [ undef, %invoke.cont105.dup0 ]
  %m_ydd.dup0164 = phi %"class.std::vector"* [ undef, %invoke.cont97.dup0 ], [ undef, %invoke.cont99.dup0 ], [ undef, %invoke.cont7.dup0 ], [ undef, %invoke.cont101.dup0 ], [ undef, %invoke.cont88.dup0 ], [ undef, %invoke.cont5.dup0 ], [ undef, %invoke.cont89.dup0 ], [ undef, %invoke.cont91.dup0 ], [ undef, %invoke.cont93.dup0 ], [ undef, %invoke.cont13.dup0 ], [ undef, %entry.dup0 ], [ undef, %invoke.cont12.dup0 ], [ undef, %invoke.cont90.dup0 ], [ undef, %invoke.cont103.dup0 ], [ undef, %invoke.cont107.dup0 ], [ undef, %invoke.cont15.dup0 ], [ undef, %invoke.cont10.dup0 ], [ undef, %invoke.cont92.dup0 ], [ undef, %invoke.cont95.dup0 ], [ undef, %for.end87.dup0 ], [ undef, %invoke.cont.dup0 ], [ undef, %invoke.cont105.dup0 ]
  %m_v.dup0165 = phi %"class.std::vector"* [ undef, %invoke.cont97.dup0 ], [ undef, %invoke.cont99.dup0 ], [ undef, %invoke.cont7.dup0 ], [ undef, %invoke.cont101.dup0 ], [ undef, %invoke.cont88.dup0 ], [ undef, %invoke.cont5.dup0 ], [ undef, %invoke.cont89.dup0 ], [ undef, %invoke.cont91.dup0 ], [ undef, %invoke.cont93.dup0 ], [ undef, %invoke.cont13.dup0 ], [ undef, %entry.dup0 ], [ undef, %invoke.cont12.dup0 ], [ undef, %invoke.cont90.dup0 ], [ undef, %invoke.cont103.dup0 ], [ undef, %invoke.cont107.dup0 ], [ undef, %invoke.cont15.dup0 ], [ undef, %invoke.cont10.dup0 ], [ undef, %invoke.cont92.dup0 ], [ undef, %invoke.cont95.dup0 ], [ undef, %for.end87.dup0 ], [ undef, %invoke.cont.dup0 ], [ undef, %invoke.cont105.dup0 ]
  %m_xdd.dup0166 = phi %"class.std::vector"* [ undef, %invoke.cont97.dup0 ], [ undef, %invoke.cont99.dup0 ], [ undef, %invoke.cont7.dup0 ], [ undef, %invoke.cont101.dup0 ], [ undef, %invoke.cont88.dup0 ], [ undef, %invoke.cont5.dup0 ], [ undef, %invoke.cont89.dup0 ], [ undef, %invoke.cont91.dup0 ], [ undef, %invoke.cont93.dup0 ], [ undef, %invoke.cont13.dup0 ], [ undef, %entry.dup0 ], [ undef, %invoke.cont12.dup0 ], [ undef, %invoke.cont90.dup0 ], [ undef, %invoke.cont103.dup0 ], [ undef, %invoke.cont107.dup0 ], [ undef, %invoke.cont15.dup0 ], [ undef, %invoke.cont10.dup0 ], [ undef, %invoke.cont92.dup0 ], [ undef, %invoke.cont95.dup0 ], [ undef, %for.end87.dup0 ], [ undef, %invoke.cont.dup0 ], [ undef, %invoke.cont105.dup0 ]
  %m_qq.dup0167 = phi %"class.std::vector"* [ undef, %invoke.cont97.dup0 ], [ undef, %invoke.cont99.dup0 ], [ undef, %invoke.cont7.dup0 ], [ undef, %invoke.cont101.dup0 ], [ undef, %invoke.cont88.dup0 ], [ undef, %invoke.cont5.dup0 ], [ undef, %invoke.cont89.dup0 ], [ undef, %invoke.cont91.dup0 ], [ undef, %invoke.cont93.dup0 ], [ undef, %invoke.cont13.dup0 ], [ undef, %entry.dup0 ], [ undef, %invoke.cont12.dup0 ], [ undef, %invoke.cont90.dup0 ], [ undef, %invoke.cont103.dup0 ], [ undef, %invoke.cont107.dup0 ], [ undef, %invoke.cont15.dup0 ], [ undef, %invoke.cont10.dup0 ], [ undef, %invoke.cont92.dup0 ], [ undef, %invoke.cont95.dup0 ], [ undef, %for.end87.dup0 ], [ undef, %invoke.cont.dup0 ], [ undef, %invoke.cont105.dup0 ]
  %m_zd.dup0168 = phi %"class.std::vector"* [ undef, %invoke.cont97.dup0 ], [ undef, %invoke.cont99.dup0 ], [ undef, %invoke.cont7.dup0 ], [ undef, %invoke.cont101.dup0 ], [ undef, %invoke.cont88.dup0 ], [ undef, %invoke.cont5.dup0 ], [ undef, %invoke.cont89.dup0 ], [ undef, %invoke.cont91.dup0 ], [ undef, %invoke.cont93.dup0 ], [ undef, %invoke.cont13.dup0 ], [ undef, %entry.dup0 ], [ undef, %invoke.cont12.dup0 ], [ undef, %invoke.cont90.dup0 ], [ undef, %invoke.cont103.dup0 ], [ undef, %invoke.cont107.dup0 ], [ undef, %invoke.cont15.dup0 ], [ undef, %invoke.cont10.dup0 ], [ undef, %invoke.cont92.dup0 ], [ undef, %invoke.cont95.dup0 ], [ undef, %for.end87.dup0 ], [ undef, %invoke.cont.dup0 ], [ undef, %invoke.cont105.dup0 ]
  %call.dup0169 = phi i32* [ undef, %invoke.cont97.dup0 ], [ undef, %invoke.cont99.dup0 ], [ undef, %invoke.cont7.dup0 ], [ undef, %invoke.cont101.dup0 ], [ undef, %invoke.cont88.dup0 ], [ undef, %invoke.cont5.dup0 ], [ undef, %invoke.cont89.dup0 ], [ undef, %invoke.cont91.dup0 ], [ undef, %invoke.cont93.dup0 ], [ undef, %invoke.cont13.dup0 ], [ undef, %entry.dup0 ], [ undef, %invoke.cont12.dup0 ], [ undef, %invoke.cont90.dup0 ], [ undef, %invoke.cont103.dup0 ], [ undef, %invoke.cont107.dup0 ], [ undef, %invoke.cont15.dup0 ], [ undef, %invoke.cont10.dup0 ], [ undef, %invoke.cont92.dup0 ], [ undef, %invoke.cont95.dup0 ], [ undef, %for.end87.dup0 ], [ undef, %invoke.cont.dup0 ], [ undef, %invoke.cont105.dup0 ]
  %m_yd.dup0170 = phi %"class.std::vector"* [ undef, %invoke.cont97.dup0 ], [ undef, %invoke.cont99.dup0 ], [ undef, %invoke.cont7.dup0 ], [ undef, %invoke.cont101.dup0 ], [ undef, %invoke.cont88.dup0 ], [ undef, %invoke.cont5.dup0 ], [ undef, %invoke.cont89.dup0 ], [ undef, %invoke.cont91.dup0 ], [ undef, %invoke.cont93.dup0 ], [ undef, %invoke.cont13.dup0 ], [ undef, %entry.dup0 ], [ undef, %invoke.cont12.dup0 ], [ undef, %invoke.cont90.dup0 ], [ undef, %invoke.cont103.dup0 ], [ undef, %invoke.cont107.dup0 ], [ undef, %invoke.cont15.dup0 ], [ undef, %invoke.cont10.dup0 ], [ undef, %invoke.cont92.dup0 ], [ undef, %invoke.cont95.dup0 ], [ undef, %for.end87.dup0 ], [ undef, %invoke.cont.dup0 ], [ undef, %invoke.cont105.dup0 ]
  %x_local.dup0171 = phi [8 x double]* [ undef, %invoke.cont97.dup0 ], [ undef, %invoke.cont99.dup0 ], [ undef, %invoke.cont7.dup0 ], [ undef, %invoke.cont101.dup0 ], [ undef, %invoke.cont88.dup0 ], [ undef, %invoke.cont5.dup0 ], [ undef, %invoke.cont89.dup0 ], [ undef, %invoke.cont91.dup0 ], [ undef, %invoke.cont93.dup0 ], [ undef, %invoke.cont13.dup0 ], [ undef, %entry.dup0 ], [ undef, %invoke.cont12.dup0 ], [ undef, %invoke.cont90.dup0 ], [ undef, %invoke.cont103.dup0 ], [ undef, %invoke.cont107.dup0 ], [ undef, %invoke.cont15.dup0 ], [ undef, %invoke.cont10.dup0 ], [ undef, %invoke.cont92.dup0 ], [ undef, %invoke.cont95.dup0 ], [ undef, %for.end87.dup0 ], [ undef, %invoke.cont.dup0 ], [ undef, %invoke.cont105.dup0 ]
  %y_local.dup0172 = phi [8 x double]* [ undef, %invoke.cont97.dup0 ], [ undef, %invoke.cont99.dup0 ], [ undef, %invoke.cont7.dup0 ], [ undef, %invoke.cont101.dup0 ], [ undef, %invoke.cont88.dup0 ], [ undef, %invoke.cont5.dup0 ], [ undef, %invoke.cont89.dup0 ], [ undef, %invoke.cont91.dup0 ], [ undef, %invoke.cont93.dup0 ], [ undef, %invoke.cont13.dup0 ], [ undef, %entry.dup0 ], [ undef, %invoke.cont12.dup0 ], [ undef, %invoke.cont90.dup0 ], [ undef, %invoke.cont103.dup0 ], [ undef, %invoke.cont107.dup0 ], [ undef, %invoke.cont15.dup0 ], [ undef, %invoke.cont10.dup0 ], [ undef, %invoke.cont92.dup0 ], [ undef, %invoke.cont95.dup0 ], [ undef, %for.end87.dup0 ], [ undef, %invoke.cont.dup0 ], [ undef, %invoke.cont105.dup0 ]
  %z_local.dup0173 = phi [8 x double]* [ undef, %invoke.cont97.dup0 ], [ undef, %invoke.cont99.dup0 ], [ undef, %invoke.cont7.dup0 ], [ undef, %invoke.cont101.dup0 ], [ undef, %invoke.cont88.dup0 ], [ undef, %invoke.cont5.dup0 ], [ undef, %invoke.cont89.dup0 ], [ undef, %invoke.cont91.dup0 ], [ undef, %invoke.cont93.dup0 ], [ undef, %invoke.cont13.dup0 ], [ undef, %entry.dup0 ], [ undef, %invoke.cont12.dup0 ], [ undef, %invoke.cont90.dup0 ], [ undef, %invoke.cont103.dup0 ], [ undef, %invoke.cont107.dup0 ], [ undef, %invoke.cont15.dup0 ], [ undef, %invoke.cont10.dup0 ], [ undef, %invoke.cont92.dup0 ], [ undef, %invoke.cont95.dup0 ], [ undef, %for.end87.dup0 ], [ undef, %invoke.cont.dup0 ], [ undef, %invoke.cont105.dup0 ]
  %m_x.dup0174 = phi %"class.std::vector"* [ undef, %invoke.cont97.dup0 ], [ undef, %invoke.cont99.dup0 ], [ undef, %invoke.cont7.dup0 ], [ undef, %invoke.cont101.dup0 ], [ undef, %invoke.cont88.dup0 ], [ undef, %invoke.cont5.dup0 ], [ undef, %invoke.cont89.dup0 ], [ undef, %invoke.cont91.dup0 ], [ undef, %invoke.cont93.dup0 ], [ undef, %invoke.cont13.dup0 ], [ undef, %entry.dup0 ], [ undef, %invoke.cont12.dup0 ], [ undef, %invoke.cont90.dup0 ], [ undef, %invoke.cont103.dup0 ], [ undef, %invoke.cont107.dup0 ], [ undef, %invoke.cont15.dup0 ], [ undef, %invoke.cont10.dup0 ], [ undef, %invoke.cont92.dup0 ], [ undef, %invoke.cont95.dup0 ], [ undef, %for.end87.dup0 ], [ undef, %invoke.cont.dup0 ], [ undef, %invoke.cont105.dup0 ]
  %call94.dup0175 = phi double* [ undef, %invoke.cont97.dup0 ], [ undef, %invoke.cont99.dup0 ], [ undef, %invoke.cont7.dup0 ], [ undef, %invoke.cont101.dup0 ], [ undef, %invoke.cont88.dup0 ], [ undef, %invoke.cont5.dup0 ], [ undef, %invoke.cont89.dup0 ], [ undef, %invoke.cont91.dup0 ], [ undef, %invoke.cont93.dup0 ], [ undef, %invoke.cont13.dup0 ], [ undef, %entry.dup0 ], [ undef, %invoke.cont12.dup0 ], [ undef, %invoke.cont90.dup0 ], [ undef, %invoke.cont103.dup0 ], [ undef, %invoke.cont107.dup0 ], [ undef, %invoke.cont15.dup0 ], [ undef, %invoke.cont10.dup0 ], [ undef, %invoke.cont92.dup0 ], [ undef, %invoke.cont95.dup0 ], [ undef, %for.end87.dup0 ], [ undef, %invoke.cont.dup0 ], [ undef, %invoke.cont105.dup0 ]
  %m_lxim.dup0176 = phi %"class.std::vector.0"* [ undef, %invoke.cont97.dup0 ], [ undef, %invoke.cont99.dup0 ], [ undef, %invoke.cont7.dup0 ], [ undef, %invoke.cont101.dup0 ], [ undef, %invoke.cont88.dup0 ], [ undef, %invoke.cont5.dup0 ], [ undef, %invoke.cont89.dup0 ], [ undef, %invoke.cont91.dup0 ], [ undef, %invoke.cont93.dup0 ], [ undef, %invoke.cont13.dup0 ], [ undef, %entry.dup0 ], [ undef, %invoke.cont12.dup0 ], [ undef, %invoke.cont90.dup0 ], [ undef, %invoke.cont103.dup0 ], [ undef, %invoke.cont107.dup0 ], [ undef, %invoke.cont15.dup0 ], [ undef, %invoke.cont10.dup0 ], [ undef, %invoke.cont92.dup0 ], [ undef, %invoke.cont95.dup0 ], [ undef, %for.end87.dup0 ], [ undef, %invoke.cont.dup0 ], [ undef, %invoke.cont105.dup0 ]
  %call84.dup01657 = phi double* [ undef, %invoke.cont97.dup0 ], [ undef, %invoke.cont99.dup0 ], [ undef, %invoke.cont7.dup0 ], [ undef, %invoke.cont101.dup0 ], [ undef, %invoke.cont88.dup0 ], [ undef, %invoke.cont5.dup0 ], [ undef, %invoke.cont89.dup0 ], [ undef, %invoke.cont91.dup0 ], [ undef, %invoke.cont93.dup0 ], [ undef, %invoke.cont13.dup0 ], [ undef, %entry.dup0 ], [ undef, %invoke.cont12.dup0 ], [ undef, %invoke.cont90.dup0 ], [ undef, %invoke.cont103.dup0 ], [ undef, %invoke.cont107.dup0 ], [ undef, %invoke.cont15.dup0 ], [ undef, %invoke.cont10.dup0 ], [ undef, %invoke.cont92.dup0 ], [ undef, %invoke.cont95.dup0 ], [ undef, %for.end87.dup0 ], [ undef, %invoke.cont.dup0 ], [ undef, %invoke.cont105.dup0 ]
  %i75.0.dup01658 = phi i32 [ undef, %invoke.cont97.dup0 ], [ undef, %invoke.cont99.dup0 ], [ undef, %invoke.cont7.dup0 ], [ undef, %invoke.cont101.dup0 ], [ undef, %invoke.cont88.dup0 ], [ undef, %invoke.cont5.dup0 ], [ undef, %invoke.cont89.dup0 ], [ undef, %invoke.cont91.dup0 ], [ undef, %invoke.cont93.dup0 ], [ undef, %invoke.cont13.dup0 ], [ undef, %entry.dup0 ], [ undef, %invoke.cont12.dup0 ], [ undef, %invoke.cont90.dup0 ], [ undef, %invoke.cont103.dup0 ], [ undef, %invoke.cont107.dup0 ], [ undef, %invoke.cont15.dup0 ], [ undef, %invoke.cont10.dup0 ], [ undef, %invoke.cont92.dup0 ], [ undef, %invoke.cont95.dup0 ], [ undef, %for.end87.dup0 ], [ undef, %invoke.cont.dup0 ], [ undef, %invoke.cont105.dup0 ]
  %call79.dup01659 = phi i32* [ undef, %invoke.cont97.dup0 ], [ undef, %invoke.cont99.dup0 ], [ undef, %invoke.cont7.dup0 ], [ undef, %invoke.cont101.dup0 ], [ undef, %invoke.cont88.dup0 ], [ undef, %invoke.cont5.dup0 ], [ undef, %invoke.cont89.dup0 ], [ undef, %invoke.cont91.dup0 ], [ undef, %invoke.cont93.dup0 ], [ undef, %invoke.cont13.dup0 ], [ undef, %entry.dup0 ], [ undef, %invoke.cont12.dup0 ], [ undef, %invoke.cont90.dup0 ], [ undef, %invoke.cont103.dup0 ], [ undef, %invoke.cont107.dup0 ], [ undef, %invoke.cont15.dup0 ], [ undef, %invoke.cont10.dup0 ], [ undef, %invoke.cont92.dup0 ], [ undef, %invoke.cont95.dup0 ], [ undef, %for.end87.dup0 ], [ undef, %invoke.cont.dup0 ], [ undef, %invoke.cont105.dup0 ]
  %inc86.dup01660 = phi i32 [ undef, %invoke.cont97.dup0 ], [ undef, %invoke.cont99.dup0 ], [ undef, %invoke.cont7.dup0 ], [ undef, %invoke.cont101.dup0 ], [ undef, %invoke.cont88.dup0 ], [ undef, %invoke.cont5.dup0 ], [ undef, %invoke.cont89.dup0 ], [ undef, %invoke.cont91.dup0 ], [ undef, %invoke.cont93.dup0 ], [ undef, %invoke.cont13.dup0 ], [ undef, %entry.dup0 ], [ undef, %invoke.cont12.dup0 ], [ undef, %invoke.cont90.dup0 ], [ undef, %invoke.cont103.dup0 ], [ undef, %invoke.cont107.dup0 ], [ undef, %invoke.cont15.dup0 ], [ undef, %invoke.cont10.dup0 ], [ undef, %invoke.cont92.dup0 ], [ undef, %invoke.cont95.dup0 ], [ undef, %for.end87.dup0 ], [ undef, %invoke.cont.dup0 ], [ undef, %invoke.cont105.dup0 ]
  %i28.0.dup07247 = phi i32 [ undef, %invoke.cont97.dup0 ], [ undef, %invoke.cont99.dup0 ], [ undef, %invoke.cont7.dup0 ], [ undef, %invoke.cont101.dup0 ], [ undef, %invoke.cont88.dup0 ], [ undef, %invoke.cont5.dup0 ], [ undef, %invoke.cont89.dup0 ], [ undef, %invoke.cont91.dup0 ], [ undef, %invoke.cont93.dup0 ], [ undef, %invoke.cont13.dup0 ], [ undef, %entry.dup0 ], [ undef, %invoke.cont12.dup0 ], [ undef, %invoke.cont90.dup0 ], [ undef, %invoke.cont103.dup0 ], [ undef, %invoke.cont107.dup0 ], [ undef, %invoke.cont15.dup0 ], [ undef, %invoke.cont10.dup0 ], [ undef, %invoke.cont92.dup0 ], [ undef, %invoke.cont95.dup0 ], [ undef, %for.end87.dup0 ], [ undef, %invoke.cont.dup0 ], [ undef, %invoke.cont105.dup0 ]
  %i.0.dup07248 = phi i32 [ undef, %invoke.cont97.dup0 ], [ undef, %invoke.cont99.dup0 ], [ undef, %invoke.cont7.dup0 ], [ undef, %invoke.cont101.dup0 ], [ undef, %invoke.cont88.dup0 ], [ undef, %invoke.cont5.dup0 ], [ undef, %invoke.cont89.dup0 ], [ undef, %invoke.cont91.dup0 ], [ undef, %invoke.cont93.dup0 ], [ undef, %invoke.cont13.dup0 ], [ undef, %entry.dup0 ], [ undef, %invoke.cont12.dup0 ], [ undef, %invoke.cont90.dup0 ], [ undef, %invoke.cont103.dup0 ], [ undef, %invoke.cont107.dup0 ], [ undef, %invoke.cont15.dup0 ], [ undef, %invoke.cont10.dup0 ], [ undef, %invoke.cont92.dup0 ], [ undef, %invoke.cont95.dup0 ], [ undef, %for.end87.dup0 ], [ undef, %invoke.cont.dup0 ], [ undef, %invoke.cont105.dup0 ]
  %call19.dup07249 = phi i32* [ undef, %invoke.cont97.dup0 ], [ undef, %invoke.cont99.dup0 ], [ undef, %invoke.cont7.dup0 ], [ undef, %invoke.cont101.dup0 ], [ undef, %invoke.cont88.dup0 ], [ undef, %invoke.cont5.dup0 ], [ undef, %invoke.cont89.dup0 ], [ undef, %invoke.cont91.dup0 ], [ undef, %invoke.cont93.dup0 ], [ undef, %invoke.cont13.dup0 ], [ undef, %entry.dup0 ], [ undef, %invoke.cont12.dup0 ], [ undef, %invoke.cont90.dup0 ], [ undef, %invoke.cont103.dup0 ], [ undef, %invoke.cont107.dup0 ], [ undef, %invoke.cont15.dup0 ], [ undef, %invoke.cont10.dup0 ], [ undef, %invoke.cont92.dup0 ], [ undef, %invoke.cont95.dup0 ], [ undef, %for.end87.dup0 ], [ undef, %invoke.cont.dup0 ], [ undef, %invoke.cont105.dup0 ]
  %call25.dup07250 = phi double* [ undef, %invoke.cont97.dup0 ], [ undef, %invoke.cont99.dup0 ], [ undef, %invoke.cont7.dup0 ], [ undef, %invoke.cont101.dup0 ], [ undef, %invoke.cont88.dup0 ], [ undef, %invoke.cont5.dup0 ], [ undef, %invoke.cont89.dup0 ], [ undef, %invoke.cont91.dup0 ], [ undef, %invoke.cont93.dup0 ], [ undef, %invoke.cont13.dup0 ], [ undef, %entry.dup0 ], [ undef, %invoke.cont12.dup0 ], [ undef, %invoke.cont90.dup0 ], [ undef, %invoke.cont103.dup0 ], [ undef, %invoke.cont107.dup0 ], [ undef, %invoke.cont15.dup0 ], [ undef, %invoke.cont10.dup0 ], [ undef, %invoke.cont92.dup0 ], [ undef, %invoke.cont95.dup0 ], [ undef, %for.end87.dup0 ], [ undef, %invoke.cont.dup0 ], [ undef, %invoke.cont105.dup0 ]
  %call23.dup07251 = phi double* [ undef, %invoke.cont97.dup0 ], [ undef, %invoke.cont99.dup0 ], [ undef, %invoke.cont7.dup0 ], [ undef, %invoke.cont101.dup0 ], [ undef, %invoke.cont88.dup0 ], [ undef, %invoke.cont5.dup0 ], [ undef, %invoke.cont89.dup0 ], [ undef, %invoke.cont91.dup0 ], [ undef, %invoke.cont93.dup0 ], [ undef, %invoke.cont13.dup0 ], [ undef, %entry.dup0 ], [ undef, %invoke.cont12.dup0 ], [ undef, %invoke.cont90.dup0 ], [ undef, %invoke.cont103.dup0 ], [ undef, %invoke.cont107.dup0 ], [ undef, %invoke.cont15.dup0 ], [ undef, %invoke.cont10.dup0 ], [ undef, %invoke.cont92.dup0 ], [ undef, %invoke.cont95.dup0 ], [ undef, %for.end87.dup0 ], [ undef, %invoke.cont.dup0 ], [ undef, %invoke.cont105.dup0 ]
  %i41.0.dup07252 = phi i32 [ undef, %invoke.cont97.dup0 ], [ undef, %invoke.cont99.dup0 ], [ undef, %invoke.cont7.dup0 ], [ undef, %invoke.cont101.dup0 ], [ undef, %invoke.cont88.dup0 ], [ undef, %invoke.cont5.dup0 ], [ undef, %invoke.cont89.dup0 ], [ undef, %invoke.cont91.dup0 ], [ undef, %invoke.cont93.dup0 ], [ undef, %invoke.cont13.dup0 ], [ undef, %entry.dup0 ], [ undef, %invoke.cont12.dup0 ], [ undef, %invoke.cont90.dup0 ], [ undef, %invoke.cont103.dup0 ], [ undef, %invoke.cont107.dup0 ], [ undef, %invoke.cont15.dup0 ], [ undef, %invoke.cont10.dup0 ], [ undef, %invoke.cont92.dup0 ], [ undef, %invoke.cont95.dup0 ], [ undef, %for.end87.dup0 ], [ undef, %invoke.cont.dup0 ], [ undef, %invoke.cont105.dup0 ]
  %call27.dup07253 = phi double* [ undef, %invoke.cont97.dup0 ], [ undef, %invoke.cont99.dup0 ], [ undef, %invoke.cont7.dup0 ], [ undef, %invoke.cont101.dup0 ], [ undef, %invoke.cont88.dup0 ], [ undef, %invoke.cont5.dup0 ], [ undef, %invoke.cont89.dup0 ], [ undef, %invoke.cont91.dup0 ], [ undef, %invoke.cont93.dup0 ], [ undef, %invoke.cont13.dup0 ], [ undef, %entry.dup0 ], [ undef, %invoke.cont12.dup0 ], [ undef, %invoke.cont90.dup0 ], [ undef, %invoke.cont103.dup0 ], [ undef, %invoke.cont107.dup0 ], [ undef, %invoke.cont15.dup0 ], [ undef, %invoke.cont10.dup0 ], [ undef, %invoke.cont92.dup0 ], [ undef, %invoke.cont95.dup0 ], [ undef, %for.end87.dup0 ], [ undef, %invoke.cont.dup0 ], [ undef, %invoke.cont105.dup0 ]
  %call71.dup07254 = phi double* [ undef, %invoke.cont97.dup0 ], [ undef, %invoke.cont99.dup0 ], [ undef, %invoke.cont7.dup0 ], [ undef, %invoke.cont101.dup0 ], [ undef, %invoke.cont88.dup0 ], [ undef, %invoke.cont5.dup0 ], [ undef, %invoke.cont89.dup0 ], [ undef, %invoke.cont91.dup0 ], [ undef, %invoke.cont93.dup0 ], [ undef, %invoke.cont13.dup0 ], [ undef, %entry.dup0 ], [ undef, %invoke.cont12.dup0 ], [ undef, %invoke.cont90.dup0 ], [ undef, %invoke.cont103.dup0 ], [ undef, %invoke.cont107.dup0 ], [ undef, %invoke.cont15.dup0 ], [ undef, %invoke.cont10.dup0 ], [ undef, %invoke.cont92.dup0 ], [ undef, %invoke.cont95.dup0 ], [ undef, %for.end87.dup0 ], [ undef, %invoke.cont.dup0 ], [ undef, %invoke.cont105.dup0 ]
  %call32.dup07255 = phi i32* [ undef, %invoke.cont97.dup0 ], [ undef, %invoke.cont99.dup0 ], [ undef, %invoke.cont7.dup0 ], [ undef, %invoke.cont101.dup0 ], [ undef, %invoke.cont88.dup0 ], [ undef, %invoke.cont5.dup0 ], [ undef, %invoke.cont89.dup0 ], [ undef, %invoke.cont91.dup0 ], [ undef, %invoke.cont93.dup0 ], [ undef, %invoke.cont13.dup0 ], [ undef, %entry.dup0 ], [ undef, %invoke.cont12.dup0 ], [ undef, %invoke.cont90.dup0 ], [ undef, %invoke.cont103.dup0 ], [ undef, %invoke.cont107.dup0 ], [ undef, %invoke.cont15.dup0 ], [ undef, %invoke.cont10.dup0 ], [ undef, %invoke.cont92.dup0 ], [ undef, %invoke.cont95.dup0 ], [ undef, %for.end87.dup0 ], [ undef, %invoke.cont.dup0 ], [ undef, %invoke.cont105.dup0 ]
  %call50.dup07256 = phi double* [ undef, %invoke.cont97.dup0 ], [ undef, %invoke.cont99.dup0 ], [ undef, %invoke.cont7.dup0 ], [ undef, %invoke.cont101.dup0 ], [ undef, %invoke.cont88.dup0 ], [ undef, %invoke.cont5.dup0 ], [ undef, %invoke.cont89.dup0 ], [ undef, %invoke.cont91.dup0 ], [ undef, %invoke.cont93.dup0 ], [ undef, %invoke.cont13.dup0 ], [ undef, %entry.dup0 ], [ undef, %invoke.cont12.dup0 ], [ undef, %invoke.cont90.dup0 ], [ undef, %invoke.cont103.dup0 ], [ undef, %invoke.cont107.dup0 ], [ undef, %invoke.cont15.dup0 ], [ undef, %invoke.cont10.dup0 ], [ undef, %invoke.cont92.dup0 ], [ undef, %invoke.cont95.dup0 ], [ undef, %for.end87.dup0 ], [ undef, %invoke.cont.dup0 ], [ undef, %invoke.cont105.dup0 ]
  %i58.0.dup07257 = phi i32 [ undef, %invoke.cont97.dup0 ], [ undef, %invoke.cont99.dup0 ], [ undef, %invoke.cont7.dup0 ], [ undef, %invoke.cont101.dup0 ], [ undef, %invoke.cont88.dup0 ], [ undef, %invoke.cont5.dup0 ], [ undef, %invoke.cont89.dup0 ], [ undef, %invoke.cont91.dup0 ], [ undef, %invoke.cont93.dup0 ], [ undef, %invoke.cont13.dup0 ], [ undef, %entry.dup0 ], [ undef, %invoke.cont12.dup0 ], [ undef, %invoke.cont90.dup0 ], [ undef, %invoke.cont103.dup0 ], [ undef, %invoke.cont107.dup0 ], [ undef, %invoke.cont15.dup0 ], [ undef, %invoke.cont10.dup0 ], [ undef, %invoke.cont92.dup0 ], [ undef, %invoke.cont95.dup0 ], [ undef, %for.end87.dup0 ], [ undef, %invoke.cont.dup0 ], [ undef, %invoke.cont105.dup0 ]
  %inc39.dup07258 = phi i32 [ undef, %invoke.cont97.dup0 ], [ undef, %invoke.cont99.dup0 ], [ undef, %invoke.cont7.dup0 ], [ undef, %invoke.cont101.dup0 ], [ undef, %invoke.cont88.dup0 ], [ undef, %invoke.cont5.dup0 ], [ undef, %invoke.cont89.dup0 ], [ undef, %invoke.cont91.dup0 ], [ undef, %invoke.cont93.dup0 ], [ undef, %invoke.cont13.dup0 ], [ undef, %entry.dup0 ], [ undef, %invoke.cont12.dup0 ], [ undef, %invoke.cont90.dup0 ], [ undef, %invoke.cont103.dup0 ], [ undef, %invoke.cont107.dup0 ], [ undef, %invoke.cont15.dup0 ], [ undef, %invoke.cont10.dup0 ], [ undef, %invoke.cont92.dup0 ], [ undef, %invoke.cont95.dup0 ], [ undef, %for.end87.dup0 ], [ undef, %invoke.cont.dup0 ], [ undef, %invoke.cont105.dup0 ]
  %call37.dup07259 = phi double* [ undef, %invoke.cont97.dup0 ], [ undef, %invoke.cont99.dup0 ], [ undef, %invoke.cont7.dup0 ], [ undef, %invoke.cont101.dup0 ], [ undef, %invoke.cont88.dup0 ], [ undef, %invoke.cont5.dup0 ], [ undef, %invoke.cont89.dup0 ], [ undef, %invoke.cont91.dup0 ], [ undef, %invoke.cont93.dup0 ], [ undef, %invoke.cont13.dup0 ], [ undef, %entry.dup0 ], [ undef, %invoke.cont12.dup0 ], [ undef, %invoke.cont90.dup0 ], [ undef, %invoke.cont103.dup0 ], [ undef, %invoke.cont107.dup0 ], [ undef, %invoke.cont15.dup0 ], [ undef, %invoke.cont10.dup0 ], [ undef, %invoke.cont92.dup0 ], [ undef, %invoke.cont95.dup0 ], [ undef, %for.end87.dup0 ], [ undef, %invoke.cont.dup0 ], [ undef, %invoke.cont105.dup0 ]
  %inc.dup07260 = phi i32 [ undef, %invoke.cont97.dup0 ], [ undef, %invoke.cont99.dup0 ], [ undef, %invoke.cont7.dup0 ], [ undef, %invoke.cont101.dup0 ], [ undef, %invoke.cont88.dup0 ], [ undef, %invoke.cont5.dup0 ], [ undef, %invoke.cont89.dup0 ], [ undef, %invoke.cont91.dup0 ], [ undef, %invoke.cont93.dup0 ], [ undef, %invoke.cont13.dup0 ], [ undef, %entry.dup0 ], [ undef, %invoke.cont12.dup0 ], [ undef, %invoke.cont90.dup0 ], [ undef, %invoke.cont103.dup0 ], [ undef, %invoke.cont107.dup0 ], [ undef, %invoke.cont15.dup0 ], [ undef, %invoke.cont10.dup0 ], [ undef, %invoke.cont92.dup0 ], [ undef, %invoke.cont95.dup0 ], [ undef, %for.end87.dup0 ], [ undef, %invoke.cont.dup0 ], [ undef, %invoke.cont105.dup0 ]
  %call67.dup07261 = phi double* [ undef, %invoke.cont97.dup0 ], [ undef, %invoke.cont99.dup0 ], [ undef, %invoke.cont7.dup0 ], [ undef, %invoke.cont101.dup0 ], [ undef, %invoke.cont88.dup0 ], [ undef, %invoke.cont5.dup0 ], [ undef, %invoke.cont89.dup0 ], [ undef, %invoke.cont91.dup0 ], [ undef, %invoke.cont93.dup0 ], [ undef, %invoke.cont13.dup0 ], [ undef, %entry.dup0 ], [ undef, %invoke.cont12.dup0 ], [ undef, %invoke.cont90.dup0 ], [ undef, %invoke.cont103.dup0 ], [ undef, %invoke.cont107.dup0 ], [ undef, %invoke.cont15.dup0 ], [ undef, %invoke.cont10.dup0 ], [ undef, %invoke.cont92.dup0 ], [ undef, %invoke.cont95.dup0 ], [ undef, %for.end87.dup0 ], [ undef, %invoke.cont.dup0 ], [ undef, %invoke.cont105.dup0 ]
  %call45.dup07262 = phi i32* [ undef, %invoke.cont97.dup0 ], [ undef, %invoke.cont99.dup0 ], [ undef, %invoke.cont7.dup0 ], [ undef, %invoke.cont101.dup0 ], [ undef, %invoke.cont88.dup0 ], [ undef, %invoke.cont5.dup0 ], [ undef, %invoke.cont89.dup0 ], [ undef, %invoke.cont91.dup0 ], [ undef, %invoke.cont93.dup0 ], [ undef, %invoke.cont13.dup0 ], [ undef, %entry.dup0 ], [ undef, %invoke.cont12.dup0 ], [ undef, %invoke.cont90.dup0 ], [ undef, %invoke.cont103.dup0 ], [ undef, %invoke.cont107.dup0 ], [ undef, %invoke.cont15.dup0 ], [ undef, %invoke.cont10.dup0 ], [ undef, %invoke.cont92.dup0 ], [ undef, %invoke.cont95.dup0 ], [ undef, %for.end87.dup0 ], [ undef, %invoke.cont.dup0 ], [ undef, %invoke.cont105.dup0 ]
  %call54.dup07263 = phi double* [ undef, %invoke.cont97.dup0 ], [ undef, %invoke.cont99.dup0 ], [ undef, %invoke.cont7.dup0 ], [ undef, %invoke.cont101.dup0 ], [ undef, %invoke.cont88.dup0 ], [ undef, %invoke.cont5.dup0 ], [ undef, %invoke.cont89.dup0 ], [ undef, %invoke.cont91.dup0 ], [ undef, %invoke.cont93.dup0 ], [ undef, %invoke.cont13.dup0 ], [ undef, %entry.dup0 ], [ undef, %invoke.cont12.dup0 ], [ undef, %invoke.cont90.dup0 ], [ undef, %invoke.cont103.dup0 ], [ undef, %invoke.cont107.dup0 ], [ undef, %invoke.cont15.dup0 ], [ undef, %invoke.cont10.dup0 ], [ undef, %invoke.cont92.dup0 ], [ undef, %invoke.cont95.dup0 ], [ undef, %for.end87.dup0 ], [ undef, %invoke.cont.dup0 ], [ undef, %invoke.cont105.dup0 ]
  %inc56.dup07264 = phi i32 [ undef, %invoke.cont97.dup0 ], [ undef, %invoke.cont99.dup0 ], [ undef, %invoke.cont7.dup0 ], [ undef, %invoke.cont101.dup0 ], [ undef, %invoke.cont88.dup0 ], [ undef, %invoke.cont5.dup0 ], [ undef, %invoke.cont89.dup0 ], [ undef, %invoke.cont91.dup0 ], [ undef, %invoke.cont93.dup0 ], [ undef, %invoke.cont13.dup0 ], [ undef, %entry.dup0 ], [ undef, %invoke.cont12.dup0 ], [ undef, %invoke.cont90.dup0 ], [ undef, %invoke.cont103.dup0 ], [ undef, %invoke.cont107.dup0 ], [ undef, %invoke.cont15.dup0 ], [ undef, %invoke.cont10.dup0 ], [ undef, %invoke.cont92.dup0 ], [ undef, %invoke.cont95.dup0 ], [ undef, %for.end87.dup0 ], [ undef, %invoke.cont.dup0 ], [ undef, %invoke.cont105.dup0 ]
  %call69.dup07265 = phi double* [ undef, %invoke.cont97.dup0 ], [ undef, %invoke.cont99.dup0 ], [ undef, %invoke.cont7.dup0 ], [ undef, %invoke.cont101.dup0 ], [ undef, %invoke.cont88.dup0 ], [ undef, %invoke.cont5.dup0 ], [ undef, %invoke.cont89.dup0 ], [ undef, %invoke.cont91.dup0 ], [ undef, %invoke.cont93.dup0 ], [ undef, %invoke.cont13.dup0 ], [ undef, %entry.dup0 ], [ undef, %invoke.cont12.dup0 ], [ undef, %invoke.cont90.dup0 ], [ undef, %invoke.cont103.dup0 ], [ undef, %invoke.cont107.dup0 ], [ undef, %invoke.cont15.dup0 ], [ undef, %invoke.cont10.dup0 ], [ undef, %invoke.cont92.dup0 ], [ undef, %invoke.cont95.dup0 ], [ undef, %for.end87.dup0 ], [ undef, %invoke.cont.dup0 ], [ undef, %invoke.cont105.dup0 ]
  %inc73.dup07266 = phi i32 [ undef, %invoke.cont97.dup0 ], [ undef, %invoke.cont99.dup0 ], [ undef, %invoke.cont7.dup0 ], [ undef, %invoke.cont101.dup0 ], [ undef, %invoke.cont88.dup0 ], [ undef, %invoke.cont5.dup0 ], [ undef, %invoke.cont89.dup0 ], [ undef, %invoke.cont91.dup0 ], [ undef, %invoke.cont93.dup0 ], [ undef, %invoke.cont13.dup0 ], [ undef, %entry.dup0 ], [ undef, %invoke.cont12.dup0 ], [ undef, %invoke.cont90.dup0 ], [ undef, %invoke.cont103.dup0 ], [ undef, %invoke.cont107.dup0 ], [ undef, %invoke.cont15.dup0 ], [ undef, %invoke.cont10.dup0 ], [ undef, %invoke.cont92.dup0 ], [ undef, %invoke.cont95.dup0 ], [ undef, %for.end87.dup0 ], [ undef, %invoke.cont.dup0 ], [ undef, %invoke.cont105.dup0 ]
  %call21.dup07267 = phi double* [ undef, %invoke.cont97.dup0 ], [ undef, %invoke.cont99.dup0 ], [ undef, %invoke.cont7.dup0 ], [ undef, %invoke.cont101.dup0 ], [ undef, %invoke.cont88.dup0 ], [ undef, %invoke.cont5.dup0 ], [ undef, %invoke.cont89.dup0 ], [ undef, %invoke.cont91.dup0 ], [ undef, %invoke.cont93.dup0 ], [ undef, %invoke.cont13.dup0 ], [ undef, %entry.dup0 ], [ undef, %invoke.cont12.dup0 ], [ undef, %invoke.cont90.dup0 ], [ undef, %invoke.cont103.dup0 ], [ undef, %invoke.cont107.dup0 ], [ undef, %invoke.cont15.dup0 ], [ undef, %invoke.cont10.dup0 ], [ undef, %invoke.cont92.dup0 ], [ undef, %invoke.cont95.dup0 ], [ undef, %for.end87.dup0 ], [ undef, %invoke.cont.dup0 ], [ undef, %invoke.cont105.dup0 ]
  %call52.dup07268 = phi double* [ undef, %invoke.cont97.dup0 ], [ undef, %invoke.cont99.dup0 ], [ undef, %invoke.cont7.dup0 ], [ undef, %invoke.cont101.dup0 ], [ undef, %invoke.cont88.dup0 ], [ undef, %invoke.cont5.dup0 ], [ undef, %invoke.cont89.dup0 ], [ undef, %invoke.cont91.dup0 ], [ undef, %invoke.cont93.dup0 ], [ undef, %invoke.cont13.dup0 ], [ undef, %entry.dup0 ], [ undef, %invoke.cont12.dup0 ], [ undef, %invoke.cont90.dup0 ], [ undef, %invoke.cont103.dup0 ], [ undef, %invoke.cont107.dup0 ], [ undef, %invoke.cont15.dup0 ], [ undef, %invoke.cont10.dup0 ], [ undef, %invoke.cont92.dup0 ], [ undef, %invoke.cont95.dup0 ], [ undef, %for.end87.dup0 ], [ undef, %invoke.cont.dup0 ], [ undef, %invoke.cont105.dup0 ]
  %call62.dup07269 = phi i32* [ undef, %invoke.cont97.dup0 ], [ undef, %invoke.cont99.dup0 ], [ undef, %invoke.cont7.dup0 ], [ undef, %invoke.cont101.dup0 ], [ undef, %invoke.cont88.dup0 ], [ undef, %invoke.cont5.dup0 ], [ undef, %invoke.cont89.dup0 ], [ undef, %invoke.cont91.dup0 ], [ undef, %invoke.cont93.dup0 ], [ undef, %invoke.cont13.dup0 ], [ undef, %entry.dup0 ], [ undef, %invoke.cont12.dup0 ], [ undef, %invoke.cont90.dup0 ], [ undef, %invoke.cont103.dup0 ], [ undef, %invoke.cont107.dup0 ], [ undef, %invoke.cont15.dup0 ], [ undef, %invoke.cont10.dup0 ], [ undef, %invoke.cont92.dup0 ], [ undef, %invoke.cont95.dup0 ], [ undef, %for.end87.dup0 ], [ undef, %invoke.cont.dup0 ], [ undef, %invoke.cont105.dup0 ]
  %0 = landingpad { i8*, i32 }
          cleanup
  %1 = extractvalue { i8*, i32 } %0, 0
  %2 = extractvalue { i8*, i32 } %0, 1
  br label %ehcleanup200.dup0

invoke.cont97.dup0:                               ; preds = %invoke.cont95.dup0
  %call96.dup0505 = phi double* [ %call96.dup085, %invoke.cont95.dup0 ]
  %call94.dup0506 = phi double* [ %call94.dup086, %invoke.cont95.dup0 ]
  %call98.dup0507 = phi double* [ %call98.dup0, %invoke.cont95.dup0 ]
  %inc86.dup01601 = phi i32 [ %inc86.dup01599, %invoke.cont95.dup0 ]
  %call84.dup01602 = phi double* [ %call84.dup01600, %invoke.cont95.dup0 ]
  %call79.dup01603 = phi i32* [ %call79.dup01598, %invoke.cont95.dup0 ]
  %i75.0.dup01604 = phi i32 [ %i75.0.dup01597, %invoke.cont95.dup0 ]
  %m_z.dup04694 = phi %"class.std::vector"* [ %m_z.dup04653, %invoke.cont95.dup0 ]
  %i58.0.dup04695 = phi i32 [ %i58.0.dup04654, %invoke.cont95.dup0 ]
  %x_local.dup04696 = phi [8 x double]* [ %x_local.dup04644, %invoke.cont95.dup0 ]
  %m_yd.dup04697 = phi %"class.std::vector"* [ %m_yd.dup04645, %invoke.cont95.dup0 ]
  %call67.dup04698 = phi double* [ %call67.dup04646, %invoke.cont95.dup0 ]
  %inc.dup04699 = phi i32 [ %inc.dup04643, %invoke.cont95.dup0 ]
  %m_symmZ.dup04700 = phi %"class.std::vector.0"* [ %m_symmZ.dup04650, %invoke.cont95.dup0 ]
  %m_p.dup04701 = phi %"class.std::vector"* [ %m_p.dup04649, %invoke.cont95.dup0 ]
  %call54.dup04702 = phi double* [ %call54.dup04642, %invoke.cont95.dup0 ]
  %m_v.dup04703 = phi %"class.std::vector"* [ %m_v.dup04641, %invoke.cont95.dup0 ]
  %m_lzetam.dup04704 = phi %"class.std::vector.0"* [ %m_lzetam.dup04638, %invoke.cont95.dup0 ]
  %m_nodalMass.dup04705 = phi %"class.std::vector"* [ %m_nodalMass.dup04637, %invoke.cont95.dup0 ]
  %m_q.dup04706 = phi %"class.std::vector"* [ %m_q.dup04652, %invoke.cont95.dup0 ]
  %m_arealg.dup04707 = phi %"class.std::vector"* [ %m_arealg.dup04636, %invoke.cont95.dup0 ]
  %inc56.dup04708 = phi i32 [ %inc56.dup04635, %invoke.cont95.dup0 ]
  %call69.dup04709 = phi double* [ %call69.dup04634, %invoke.cont95.dup0 ]
  %m_fz.dup04710 = phi %"class.std::vector"* [ %m_fz.dup04639, %invoke.cont95.dup0 ]
  %m_letap.dup04711 = phi %"class.std::vector.0"* [ %m_letap.dup04640, %invoke.cont95.dup0 ]
  %m_vnew.dup04712 = phi %"class.std::vector"* [ %m_vnew.dup04633, %invoke.cont95.dup0 ]
  %m_volo.dup04713 = phi %"class.std::vector"* [ %m_volo.dup04632, %invoke.cont95.dup0 ]
  %inc73.dup04714 = phi i32 [ %inc73.dup04631, %invoke.cont95.dup0 ]
  %inc39.dup04715 = phi i32 [ %inc39.dup04648, %invoke.cont95.dup0 ]
  %z_local.dup04716 = phi [8 x double]* [ %z_local.dup04629, %invoke.cont95.dup0 ]
  %m_lxim.dup04717 = phi %"class.std::vector.0"* [ %m_lxim.dup04630, %invoke.cont95.dup0 ]
  %add.dup04718 = phi i32 [ %add.dup04647, %invoke.cont95.dup0 ]
  %m_letam.dup04719 = phi %"class.std::vector.0"* [ %m_letam.dup04651, %invoke.cont95.dup0 ]
  %m_lxip.dup04720 = phi %"class.std::vector.0"* [ %m_lxip.dup04625, %invoke.cont95.dup0 ]
  %call52.dup04721 = phi double* [ %call52.dup04626, %invoke.cont95.dup0 ]
  %call37.dup04722 = phi double* [ %call37.dup04684, %invoke.cont95.dup0 ]
  %call50.dup04723 = phi double* [ %call50.dup04627, %invoke.cont95.dup0 ]
  %call62.dup04724 = phi i32* [ %call62.dup04628, %invoke.cont95.dup0 ]
  %m_xd.dup04725 = phi %"class.std::vector"* [ %m_xd.dup04655, %invoke.cont95.dup0 ]
  %call45.dup04726 = phi i32* [ %call45.dup04656, %invoke.cont95.dup0 ]
  %y_local.dup04727 = phi [8 x double]* [ %y_local.dup04677, %invoke.cont95.dup0 ]
  %i28.0.dup04728 = phi i32 [ %i28.0.dup04679, %invoke.cont95.dup0 ]
  %call11.dup04729 = phi i32* [ %call11.dup04678, %invoke.cont95.dup0 ]
  %i.0.dup04730 = phi i32 [ %i.0.dup04680, %invoke.cont95.dup0 ]
  %call6.dup04731 = phi i32* [ %call6.dup04683, %invoke.cont95.dup0 ]
  %m_qq.dup04732 = phi %"class.std::vector"* [ %m_qq.dup04685, %invoke.cont95.dup0 ]
  %m_xdd.dup04733 = phi %"class.std::vector"* [ %m_xdd.dup04686, %invoke.cont95.dup0 ]
  %m_ss.dup04734 = phi %"class.std::vector"* [ %m_ss.dup04692, %invoke.cont95.dup0 ]
  %call19.dup04735 = phi i32* [ %call19.dup04693, %invoke.cont95.dup0 ]
  %call25.dup04736 = phi double* [ %call25.dup04691, %invoke.cont95.dup0 ]
  %call23.dup04737 = phi double* [ %call23.dup04690, %invoke.cont95.dup0 ]
  %m_zdd.dup04738 = phi %"class.std::vector"* [ %m_zdd.dup04689, %invoke.cont95.dup0 ]
  %m_ydd.dup04739 = phi %"class.std::vector"* [ %m_ydd.dup04687, %invoke.cont95.dup0 ]
  %m_elemBC.dup04740 = phi %"class.std::vector.0"* [ %m_elemBC.dup04681, %invoke.cont95.dup0 ]
  %call14.dup04741 = phi i32* [ %call14.dup04682, %invoke.cont95.dup0 ]
  %m_y.dup04742 = phi %"class.std::vector"* [ %m_y.dup04688, %invoke.cont95.dup0 ]
  %call32.dup04743 = phi i32* [ %call32.dup04676, %invoke.cont95.dup0 ]
  %m_vdov.dup04744 = phi %"class.std::vector"* [ %m_vdov.dup04675, %invoke.cont95.dup0 ]
  %i41.0.dup04745 = phi i32 [ %i41.0.dup04674, %invoke.cont95.dup0 ]
  %m_symmX.dup04746 = phi %"class.std::vector.0"* [ %m_symmX.dup04673, %invoke.cont95.dup0 ]
  %m_lzetap.dup04747 = phi %"class.std::vector.0"* [ %m_lzetap.dup04672, %invoke.cont95.dup0 ]
  %m_fy.dup04748 = phi %"class.std::vector"* [ %m_fy.dup04671, %invoke.cont95.dup0 ]
  %call21.dup04749 = phi double* [ %call21.dup04670, %invoke.cont95.dup0 ]
  %m_x.dup04750 = phi %"class.std::vector"* [ %m_x.dup04669, %invoke.cont95.dup0 ]
  %call8.dup04751 = phi i8* [ %call8.dup04666, %invoke.cont95.dup0 ]
  %m_ql.dup04752 = phi %"class.std::vector"* [ %m_ql.dup04665, %invoke.cont95.dup0 ]
  %m_zd.dup04753 = phi %"class.std::vector"* [ %m_zd.dup04668, %invoke.cont95.dup0 ]
  %call.dup04754 = phi i32* [ %call.dup04667, %invoke.cont95.dup0 ]
  %m_symmY.dup04755 = phi %"class.std::vector.0"* [ %m_symmY.dup04664, %invoke.cont95.dup0 ]
  %m_elemMass.dup04756 = phi %"class.std::vector"* [ %m_elemMass.dup04657, %invoke.cont95.dup0 ]
  %call71.dup04757 = phi double* [ %call71.dup04663, %invoke.cont95.dup0 ]
  %m_e.dup04758 = phi %"class.std::vector"* [ %m_e.dup04662, %invoke.cont95.dup0 ]
  %m_delv.dup04759 = phi %"class.std::vector"* [ %m_delv.dup04661, %invoke.cont95.dup0 ]
  %m_nodelist.dup04760 = phi %"class.std::vector.0"* [ %m_nodelist.dup04660, %invoke.cont95.dup0 ]
  %m_fx.dup04761 = phi %"class.std::vector"* [ %m_fx.dup04659, %invoke.cont95.dup0 ]
  %call27.dup04762 = phi double* [ %call27.dup04658, %invoke.cont95.dup0 ]
  store double 1.100000e+00, double* %call98.dup0507, align 8, !tbaa !34
  %call100.dup0 = invoke nonnull align 8 dereferenceable(8) double* @_ZN6Domain15deltatimemultubEv(%class.Domain* %this)
          to label %invoke.cont99.dup0 unwind label %lpad.dup0

invoke.cont95.dup0:                               ; preds = %invoke.cont93.dup0
  %call96.dup085 = phi double* [ %call96.dup0, %invoke.cont93.dup0 ]
  %call94.dup086 = phi double* [ %call94.dup020, %invoke.cont93.dup0 ]
  %i75.0.dup01597 = phi i32 [ %i75.0.dup01593, %invoke.cont93.dup0 ]
  %call79.dup01598 = phi i32* [ %call79.dup01594, %invoke.cont93.dup0 ]
  %inc86.dup01599 = phi i32 [ %inc86.dup01596, %invoke.cont93.dup0 ]
  %call84.dup01600 = phi double* [ %call84.dup01595, %invoke.cont93.dup0 ]
  %m_lxip.dup04625 = phi %"class.std::vector.0"* [ %m_lxip.dup04584, %invoke.cont93.dup0 ]
  %call52.dup04626 = phi double* [ %call52.dup04583, %invoke.cont93.dup0 ]
  %call50.dup04627 = phi double* [ %call50.dup04582, %invoke.cont93.dup0 ]
  %call62.dup04628 = phi i32* [ %call62.dup04581, %invoke.cont93.dup0 ]
  %z_local.dup04629 = phi [8 x double]* [ %z_local.dup04580, %invoke.cont93.dup0 ]
  %m_lxim.dup04630 = phi %"class.std::vector.0"* [ %m_lxim.dup04578, %invoke.cont93.dup0 ]
  %inc73.dup04631 = phi i32 [ %inc73.dup04577, %invoke.cont93.dup0 ]
  %m_volo.dup04632 = phi %"class.std::vector"* [ %m_volo.dup04576, %invoke.cont93.dup0 ]
  %m_vnew.dup04633 = phi %"class.std::vector"* [ %m_vnew.dup04575, %invoke.cont93.dup0 ]
  %call69.dup04634 = phi double* [ %call69.dup04572, %invoke.cont93.dup0 ]
  %inc56.dup04635 = phi i32 [ %inc56.dup04570, %invoke.cont93.dup0 ]
  %m_arealg.dup04636 = phi %"class.std::vector"* [ %m_arealg.dup04569, %invoke.cont93.dup0 ]
  %m_nodalMass.dup04637 = phi %"class.std::vector"* [ %m_nodalMass.dup04567, %invoke.cont93.dup0 ]
  %m_lzetam.dup04638 = phi %"class.std::vector.0"* [ %m_lzetam.dup04566, %invoke.cont93.dup0 ]
  %m_fz.dup04639 = phi %"class.std::vector"* [ %m_fz.dup04573, %invoke.cont93.dup0 ]
  %m_letap.dup04640 = phi %"class.std::vector.0"* [ %m_letap.dup04574, %invoke.cont93.dup0 ]
  %m_v.dup04641 = phi %"class.std::vector"* [ %m_v.dup04562, %invoke.cont93.dup0 ]
  %call54.dup04642 = phi double* [ %call54.dup04561, %invoke.cont93.dup0 ]
  %inc.dup04643 = phi i32 [ %inc.dup04563, %invoke.cont93.dup0 ]
  %x_local.dup04644 = phi [8 x double]* [ %x_local.dup04556, %invoke.cont93.dup0 ]
  %m_yd.dup04645 = phi %"class.std::vector"* [ %m_yd.dup04557, %invoke.cont93.dup0 ]
  %call67.dup04646 = phi double* [ %call67.dup04558, %invoke.cont93.dup0 ]
  %add.dup04647 = phi i32 [ %add.dup04585, %invoke.cont93.dup0 ]
  %inc39.dup04648 = phi i32 [ %inc39.dup04579, %invoke.cont93.dup0 ]
  %m_p.dup04649 = phi %"class.std::vector"* [ %m_p.dup04560, %invoke.cont93.dup0 ]
  %m_symmZ.dup04650 = phi %"class.std::vector.0"* [ %m_symmZ.dup04559, %invoke.cont93.dup0 ]
  %m_letam.dup04651 = phi %"class.std::vector.0"* [ %m_letam.dup04571, %invoke.cont93.dup0 ]
  %m_q.dup04652 = phi %"class.std::vector"* [ %m_q.dup04568, %invoke.cont93.dup0 ]
  %m_z.dup04653 = phi %"class.std::vector"* [ %m_z.dup04564, %invoke.cont93.dup0 ]
  %i58.0.dup04654 = phi i32 [ %i58.0.dup04565, %invoke.cont93.dup0 ]
  %m_xd.dup04655 = phi %"class.std::vector"* [ %m_xd.dup04586, %invoke.cont93.dup0 ]
  %call45.dup04656 = phi i32* [ %call45.dup04587, %invoke.cont93.dup0 ]
  %m_elemMass.dup04657 = phi %"class.std::vector"* [ %m_elemMass.dup04588, %invoke.cont93.dup0 ]
  %call27.dup04658 = phi double* [ %call27.dup04616, %invoke.cont93.dup0 ]
  %m_fx.dup04659 = phi %"class.std::vector"* [ %m_fx.dup04617, %invoke.cont93.dup0 ]
  %m_nodelist.dup04660 = phi %"class.std::vector.0"* [ %m_nodelist.dup04618, %invoke.cont93.dup0 ]
  %m_delv.dup04661 = phi %"class.std::vector"* [ %m_delv.dup04623, %invoke.cont93.dup0 ]
  %m_e.dup04662 = phi %"class.std::vector"* [ %m_e.dup04622, %invoke.cont93.dup0 ]
  %call71.dup04663 = phi double* [ %call71.dup04624, %invoke.cont93.dup0 ]
  %m_symmY.dup04664 = phi %"class.std::vector.0"* [ %m_symmY.dup04611, %invoke.cont93.dup0 ]
  %m_ql.dup04665 = phi %"class.std::vector"* [ %m_ql.dup04614, %invoke.cont93.dup0 ]
  %call8.dup04666 = phi i8* [ %call8.dup04615, %invoke.cont93.dup0 ]
  %call.dup04667 = phi i32* [ %call.dup04612, %invoke.cont93.dup0 ]
  %m_zd.dup04668 = phi %"class.std::vector"* [ %m_zd.dup04613, %invoke.cont93.dup0 ]
  %m_x.dup04669 = phi %"class.std::vector"* [ %m_x.dup04621, %invoke.cont93.dup0 ]
  %call21.dup04670 = phi double* [ %call21.dup04620, %invoke.cont93.dup0 ]
  %m_fy.dup04671 = phi %"class.std::vector"* [ %m_fy.dup04619, %invoke.cont93.dup0 ]
  %m_lzetap.dup04672 = phi %"class.std::vector.0"* [ %m_lzetap.dup04610, %invoke.cont93.dup0 ]
  %m_symmX.dup04673 = phi %"class.std::vector.0"* [ %m_symmX.dup04609, %invoke.cont93.dup0 ]
  %i41.0.dup04674 = phi i32 [ %i41.0.dup04608, %invoke.cont93.dup0 ]
  %m_vdov.dup04675 = phi %"class.std::vector"* [ %m_vdov.dup04607, %invoke.cont93.dup0 ]
  %call32.dup04676 = phi i32* [ %call32.dup04606, %invoke.cont93.dup0 ]
  %y_local.dup04677 = phi [8 x double]* [ %y_local.dup04605, %invoke.cont93.dup0 ]
  %call11.dup04678 = phi i32* [ %call11.dup04604, %invoke.cont93.dup0 ]
  %i28.0.dup04679 = phi i32 [ %i28.0.dup04603, %invoke.cont93.dup0 ]
  %i.0.dup04680 = phi i32 [ %i.0.dup04602, %invoke.cont93.dup0 ]
  %m_elemBC.dup04681 = phi %"class.std::vector.0"* [ %m_elemBC.dup04601, %invoke.cont93.dup0 ]
  %call14.dup04682 = phi i32* [ %call14.dup04600, %invoke.cont93.dup0 ]
  %call6.dup04683 = phi i32* [ %call6.dup04599, %invoke.cont93.dup0 ]
  %call37.dup04684 = phi double* [ %call37.dup04598, %invoke.cont93.dup0 ]
  %m_qq.dup04685 = phi %"class.std::vector"* [ %m_qq.dup04597, %invoke.cont93.dup0 ]
  %m_xdd.dup04686 = phi %"class.std::vector"* [ %m_xdd.dup04596, %invoke.cont93.dup0 ]
  %m_ydd.dup04687 = phi %"class.std::vector"* [ %m_ydd.dup04595, %invoke.cont93.dup0 ]
  %m_y.dup04688 = phi %"class.std::vector"* [ %m_y.dup04594, %invoke.cont93.dup0 ]
  %m_zdd.dup04689 = phi %"class.std::vector"* [ %m_zdd.dup04593, %invoke.cont93.dup0 ]
  %call23.dup04690 = phi double* [ %call23.dup04592, %invoke.cont93.dup0 ]
  %call25.dup04691 = phi double* [ %call25.dup04591, %invoke.cont93.dup0 ]
  %m_ss.dup04692 = phi %"class.std::vector"* [ %m_ss.dup04590, %invoke.cont93.dup0 ]
  %call19.dup04693 = phi i32* [ %call19.dup04589, %invoke.cont93.dup0 ]
  store double 1.000000e-02, double* %call96.dup085, align 8, !tbaa !34
  %call98.dup0 = invoke nonnull align 8 dereferenceable(8) double* @_ZN6Domain15deltatimemultlbEv(%class.Domain* %this)
          to label %invoke.cont97.dup0 unwind label %lpad.dup0

invoke.cont93.dup0:                               ; preds = %invoke.cont92.dup0
  %call94.dup020 = phi double* [ %call94.dup0, %invoke.cont92.dup0 ]
  %i75.0.dup01593 = phi i32 [ %i75.0.dup01589, %invoke.cont92.dup0 ]
  %call79.dup01594 = phi i32* [ %call79.dup01590, %invoke.cont92.dup0 ]
  %call84.dup01595 = phi double* [ %call84.dup01592, %invoke.cont92.dup0 ]
  %inc86.dup01596 = phi i32 [ %inc86.dup01591, %invoke.cont92.dup0 ]
  %x_local.dup04556 = phi [8 x double]* [ %x_local.dup04510, %invoke.cont92.dup0 ]
  %m_yd.dup04557 = phi %"class.std::vector"* [ %m_yd.dup04511, %invoke.cont92.dup0 ]
  %call67.dup04558 = phi double* [ %call67.dup04512, %invoke.cont92.dup0 ]
  %m_symmZ.dup04559 = phi %"class.std::vector.0"* [ %m_symmZ.dup04516, %invoke.cont92.dup0 ]
  %m_p.dup04560 = phi %"class.std::vector"* [ %m_p.dup04515, %invoke.cont92.dup0 ]
  %call54.dup04561 = phi double* [ %call54.dup04509, %invoke.cont92.dup0 ]
  %m_v.dup04562 = phi %"class.std::vector"* [ %m_v.dup04508, %invoke.cont92.dup0 ]
  %inc.dup04563 = phi i32 [ %inc.dup04507, %invoke.cont92.dup0 ]
  %m_z.dup04564 = phi %"class.std::vector"* [ %m_z.dup04504, %invoke.cont92.dup0 ]
  %i58.0.dup04565 = phi i32 [ %i58.0.dup04503, %invoke.cont92.dup0 ]
  %m_lzetam.dup04566 = phi %"class.std::vector.0"* [ %m_lzetam.dup04502, %invoke.cont92.dup0 ]
  %m_nodalMass.dup04567 = phi %"class.std::vector"* [ %m_nodalMass.dup04501, %invoke.cont92.dup0 ]
  %m_q.dup04568 = phi %"class.std::vector"* [ %m_q.dup04517, %invoke.cont92.dup0 ]
  %m_arealg.dup04569 = phi %"class.std::vector"* [ %m_arealg.dup04500, %invoke.cont92.dup0 ]
  %inc56.dup04570 = phi i32 [ %inc56.dup04499, %invoke.cont92.dup0 ]
  %m_letam.dup04571 = phi %"class.std::vector.0"* [ %m_letam.dup04498, %invoke.cont92.dup0 ]
  %call69.dup04572 = phi double* [ %call69.dup04487, %invoke.cont92.dup0 ]
  %m_fz.dup04573 = phi %"class.std::vector"* [ %m_fz.dup04505, %invoke.cont92.dup0 ]
  %m_letap.dup04574 = phi %"class.std::vector.0"* [ %m_letap.dup04506, %invoke.cont92.dup0 ]
  %m_vnew.dup04575 = phi %"class.std::vector"* [ %m_vnew.dup04497, %invoke.cont92.dup0 ]
  %m_volo.dup04576 = phi %"class.std::vector"* [ %m_volo.dup04496, %invoke.cont92.dup0 ]
  %inc73.dup04577 = phi i32 [ %inc73.dup04495, %invoke.cont92.dup0 ]
  %m_lxim.dup04578 = phi %"class.std::vector.0"* [ %m_lxim.dup04526, %invoke.cont92.dup0 ]
  %inc39.dup04579 = phi i32 [ %inc39.dup04514, %invoke.cont92.dup0 ]
  %z_local.dup04580 = phi [8 x double]* [ %z_local.dup04490, %invoke.cont92.dup0 ]
  %call62.dup04581 = phi i32* [ %call62.dup04488, %invoke.cont92.dup0 ]
  %call50.dup04582 = phi double* [ %call50.dup04489, %invoke.cont92.dup0 ]
  %call52.dup04583 = phi double* [ %call52.dup04494, %invoke.cont92.dup0 ]
  %m_lxip.dup04584 = phi %"class.std::vector.0"* [ %m_lxip.dup04493, %invoke.cont92.dup0 ]
  %add.dup04585 = phi i32 [ %add.dup04513, %invoke.cont92.dup0 ]
  %m_xd.dup04586 = phi %"class.std::vector"* [ %m_xd.dup04492, %invoke.cont92.dup0 ]
  %call45.dup04587 = phi i32* [ %call45.dup04491, %invoke.cont92.dup0 ]
  %m_elemMass.dup04588 = phi %"class.std::vector"* [ %m_elemMass.dup04518, %invoke.cont92.dup0 ]
  %call19.dup04589 = phi i32* [ %call19.dup04540, %invoke.cont92.dup0 ]
  %m_ss.dup04590 = phi %"class.std::vector"* [ %m_ss.dup04541, %invoke.cont92.dup0 ]
  %call25.dup04591 = phi double* [ %call25.dup04542, %invoke.cont92.dup0 ]
  %call23.dup04592 = phi double* [ %call23.dup04543, %invoke.cont92.dup0 ]
  %m_zdd.dup04593 = phi %"class.std::vector"* [ %m_zdd.dup04544, %invoke.cont92.dup0 ]
  %m_y.dup04594 = phi %"class.std::vector"* [ %m_y.dup04545, %invoke.cont92.dup0 ]
  %m_ydd.dup04595 = phi %"class.std::vector"* [ %m_ydd.dup04548, %invoke.cont92.dup0 ]
  %m_xdd.dup04596 = phi %"class.std::vector"* [ %m_xdd.dup04549, %invoke.cont92.dup0 ]
  %m_qq.dup04597 = phi %"class.std::vector"* [ %m_qq.dup04550, %invoke.cont92.dup0 ]
  %call37.dup04598 = phi double* [ %call37.dup04554, %invoke.cont92.dup0 ]
  %call6.dup04599 = phi i32* [ %call6.dup04555, %invoke.cont92.dup0 ]
  %call14.dup04600 = phi i32* [ %call14.dup04546, %invoke.cont92.dup0 ]
  %m_elemBC.dup04601 = phi %"class.std::vector.0"* [ %m_elemBC.dup04547, %invoke.cont92.dup0 ]
  %i.0.dup04602 = phi i32 [ %i.0.dup04553, %invoke.cont92.dup0 ]
  %i28.0.dup04603 = phi i32 [ %i28.0.dup04552, %invoke.cont92.dup0 ]
  %call11.dup04604 = phi i32* [ %call11.dup04551, %invoke.cont92.dup0 ]
  %y_local.dup04605 = phi [8 x double]* [ %y_local.dup04539, %invoke.cont92.dup0 ]
  %call32.dup04606 = phi i32* [ %call32.dup04538, %invoke.cont92.dup0 ]
  %m_vdov.dup04607 = phi %"class.std::vector"* [ %m_vdov.dup04537, %invoke.cont92.dup0 ]
  %i41.0.dup04608 = phi i32 [ %i41.0.dup04536, %invoke.cont92.dup0 ]
  %m_symmX.dup04609 = phi %"class.std::vector.0"* [ %m_symmX.dup04535, %invoke.cont92.dup0 ]
  %m_lzetap.dup04610 = phi %"class.std::vector.0"* [ %m_lzetap.dup04534, %invoke.cont92.dup0 ]
  %m_symmY.dup04611 = phi %"class.std::vector.0"* [ %m_symmY.dup04533, %invoke.cont92.dup0 ]
  %call.dup04612 = phi i32* [ %call.dup04532, %invoke.cont92.dup0 ]
  %m_zd.dup04613 = phi %"class.std::vector"* [ %m_zd.dup04531, %invoke.cont92.dup0 ]
  %m_ql.dup04614 = phi %"class.std::vector"* [ %m_ql.dup04530, %invoke.cont92.dup0 ]
  %call8.dup04615 = phi i8* [ %call8.dup04529, %invoke.cont92.dup0 ]
  %call27.dup04616 = phi double* [ %call27.dup04528, %invoke.cont92.dup0 ]
  %m_fx.dup04617 = phi %"class.std::vector"* [ %m_fx.dup04527, %invoke.cont92.dup0 ]
  %m_nodelist.dup04618 = phi %"class.std::vector.0"* [ %m_nodelist.dup04525, %invoke.cont92.dup0 ]
  %m_fy.dup04619 = phi %"class.std::vector"* [ %m_fy.dup04524, %invoke.cont92.dup0 ]
  %call21.dup04620 = phi double* [ %call21.dup04523, %invoke.cont92.dup0 ]
  %m_x.dup04621 = phi %"class.std::vector"* [ %m_x.dup04522, %invoke.cont92.dup0 ]
  %m_e.dup04622 = phi %"class.std::vector"* [ %m_e.dup04521, %invoke.cont92.dup0 ]
  %m_delv.dup04623 = phi %"class.std::vector"* [ %m_delv.dup04520, %invoke.cont92.dup0 ]
  %call71.dup04624 = phi double* [ %call71.dup04519, %invoke.cont92.dup0 ]
  store double 0xBEB0C6F7A0B5ED8D, double* %call94.dup020, align 8, !tbaa !34
  %call96.dup0 = invoke nonnull align 8 dereferenceable(8) double* @_ZN6Domain8stoptimeEv(%class.Domain* %this)
          to label %invoke.cont95.dup0 unwind label %lpad.dup0

invoke.cont92.dup0:                               ; preds = %invoke.cont91.dup0
  %i75.0.dup01589 = phi i32 [ %i75.0.dup01586, %invoke.cont91.dup0 ]
  %call79.dup01590 = phi i32* [ %call79.dup01585, %invoke.cont91.dup0 ]
  %inc86.dup01591 = phi i32 [ %inc86.dup01588, %invoke.cont91.dup0 ]
  %call84.dup01592 = phi double* [ %call84.dup01587, %invoke.cont91.dup0 ]
  %call69.dup04487 = phi double* [ %call69.dup04449, %invoke.cont91.dup0 ]
  %call62.dup04488 = phi i32* [ %call62.dup04448, %invoke.cont91.dup0 ]
  %call50.dup04489 = phi double* [ %call50.dup04447, %invoke.cont91.dup0 ]
  %z_local.dup04490 = phi [8 x double]* [ %z_local.dup04445, %invoke.cont91.dup0 ]
  %call45.dup04491 = phi i32* [ %call45.dup04442, %invoke.cont91.dup0 ]
  %m_xd.dup04492 = phi %"class.std::vector"* [ %m_xd.dup04443, %invoke.cont91.dup0 ]
  %m_lxip.dup04493 = phi %"class.std::vector.0"* [ %m_lxip.dup04440, %invoke.cont91.dup0 ]
  %call52.dup04494 = phi double* [ %call52.dup04441, %invoke.cont91.dup0 ]
  %inc73.dup04495 = phi i32 [ %inc73.dup04439, %invoke.cont91.dup0 ]
  %m_volo.dup04496 = phi %"class.std::vector"* [ %m_volo.dup04438, %invoke.cont91.dup0 ]
  %m_vnew.dup04497 = phi %"class.std::vector"* [ %m_vnew.dup04437, %invoke.cont91.dup0 ]
  %m_letam.dup04498 = phi %"class.std::vector.0"* [ %m_letam.dup04434, %invoke.cont91.dup0 ]
  %inc56.dup04499 = phi i32 [ %inc56.dup04433, %invoke.cont91.dup0 ]
  %m_arealg.dup04500 = phi %"class.std::vector"* [ %m_arealg.dup04432, %invoke.cont91.dup0 ]
  %m_nodalMass.dup04501 = phi %"class.std::vector"* [ %m_nodalMass.dup04430, %invoke.cont91.dup0 ]
  %m_lzetam.dup04502 = phi %"class.std::vector.0"* [ %m_lzetam.dup04429, %invoke.cont91.dup0 ]
  %i58.0.dup04503 = phi i32 [ %i58.0.dup04419, %invoke.cont91.dup0 ]
  %m_z.dup04504 = phi %"class.std::vector"* [ %m_z.dup04418, %invoke.cont91.dup0 ]
  %m_fz.dup04505 = phi %"class.std::vector"* [ %m_fz.dup04435, %invoke.cont91.dup0 ]
  %m_letap.dup04506 = phi %"class.std::vector.0"* [ %m_letap.dup04436, %invoke.cont91.dup0 ]
  %inc.dup04507 = phi i32 [ %inc.dup04423, %invoke.cont91.dup0 ]
  %m_v.dup04508 = phi %"class.std::vector"* [ %m_v.dup04428, %invoke.cont91.dup0 ]
  %call54.dup04509 = phi double* [ %call54.dup04427, %invoke.cont91.dup0 ]
  %x_local.dup04510 = phi [8 x double]* [ %x_local.dup04420, %invoke.cont91.dup0 ]
  %m_yd.dup04511 = phi %"class.std::vector"* [ %m_yd.dup04421, %invoke.cont91.dup0 ]
  %call67.dup04512 = phi double* [ %call67.dup04422, %invoke.cont91.dup0 ]
  %add.dup04513 = phi i32 [ %add.dup04446, %invoke.cont91.dup0 ]
  %inc39.dup04514 = phi i32 [ %inc39.dup04444, %invoke.cont91.dup0 ]
  %m_p.dup04515 = phi %"class.std::vector"* [ %m_p.dup04426, %invoke.cont91.dup0 ]
  %m_symmZ.dup04516 = phi %"class.std::vector.0"* [ %m_symmZ.dup04425, %invoke.cont91.dup0 ]
  %m_q.dup04517 = phi %"class.std::vector"* [ %m_q.dup04431, %invoke.cont91.dup0 ]
  %m_elemMass.dup04518 = phi %"class.std::vector"* [ %m_elemMass.dup04424, %invoke.cont91.dup0 ]
  %call71.dup04519 = phi double* [ %call71.dup04450, %invoke.cont91.dup0 ]
  %m_delv.dup04520 = phi %"class.std::vector"* [ %m_delv.dup04475, %invoke.cont91.dup0 ]
  %m_e.dup04521 = phi %"class.std::vector"* [ %m_e.dup04476, %invoke.cont91.dup0 ]
  %m_x.dup04522 = phi %"class.std::vector"* [ %m_x.dup04477, %invoke.cont91.dup0 ]
  %call21.dup04523 = phi double* [ %call21.dup04478, %invoke.cont91.dup0 ]
  %m_fy.dup04524 = phi %"class.std::vector"* [ %m_fy.dup04479, %invoke.cont91.dup0 ]
  %m_nodelist.dup04525 = phi %"class.std::vector.0"* [ %m_nodelist.dup04484, %invoke.cont91.dup0 ]
  %m_lxim.dup04526 = phi %"class.std::vector.0"* [ %m_lxim.dup04469, %invoke.cont91.dup0 ]
  %m_fx.dup04527 = phi %"class.std::vector"* [ %m_fx.dup04485, %invoke.cont91.dup0 ]
  %call27.dup04528 = phi double* [ %call27.dup04486, %invoke.cont91.dup0 ]
  %call8.dup04529 = phi i8* [ %call8.dup04480, %invoke.cont91.dup0 ]
  %m_ql.dup04530 = phi %"class.std::vector"* [ %m_ql.dup04481, %invoke.cont91.dup0 ]
  %m_zd.dup04531 = phi %"class.std::vector"* [ %m_zd.dup04482, %invoke.cont91.dup0 ]
  %call.dup04532 = phi i32* [ %call.dup04483, %invoke.cont91.dup0 ]
  %m_symmY.dup04533 = phi %"class.std::vector.0"* [ %m_symmY.dup04474, %invoke.cont91.dup0 ]
  %m_lzetap.dup04534 = phi %"class.std::vector.0"* [ %m_lzetap.dup04473, %invoke.cont91.dup0 ]
  %m_symmX.dup04535 = phi %"class.std::vector.0"* [ %m_symmX.dup04471, %invoke.cont91.dup0 ]
  %i41.0.dup04536 = phi i32 [ %i41.0.dup04472, %invoke.cont91.dup0 ]
  %m_vdov.dup04537 = phi %"class.std::vector"* [ %m_vdov.dup04470, %invoke.cont91.dup0 ]
  %call32.dup04538 = phi i32* [ %call32.dup04468, %invoke.cont91.dup0 ]
  %y_local.dup04539 = phi [8 x double]* [ %y_local.dup04467, %invoke.cont91.dup0 ]
  %call19.dup04540 = phi i32* [ %call19.dup04466, %invoke.cont91.dup0 ]
  %m_ss.dup04541 = phi %"class.std::vector"* [ %m_ss.dup04465, %invoke.cont91.dup0 ]
  %call25.dup04542 = phi double* [ %call25.dup04464, %invoke.cont91.dup0 ]
  %call23.dup04543 = phi double* [ %call23.dup04463, %invoke.cont91.dup0 ]
  %m_zdd.dup04544 = phi %"class.std::vector"* [ %m_zdd.dup04459, %invoke.cont91.dup0 ]
  %m_y.dup04545 = phi %"class.std::vector"* [ %m_y.dup04462, %invoke.cont91.dup0 ]
  %call14.dup04546 = phi i32* [ %call14.dup04461, %invoke.cont91.dup0 ]
  %m_elemBC.dup04547 = phi %"class.std::vector.0"* [ %m_elemBC.dup04460, %invoke.cont91.dup0 ]
  %m_ydd.dup04548 = phi %"class.std::vector"* [ %m_ydd.dup04458, %invoke.cont91.dup0 ]
  %m_xdd.dup04549 = phi %"class.std::vector"* [ %m_xdd.dup04457, %invoke.cont91.dup0 ]
  %m_qq.dup04550 = phi %"class.std::vector"* [ %m_qq.dup04456, %invoke.cont91.dup0 ]
  %call11.dup04551 = phi i32* [ %call11.dup04455, %invoke.cont91.dup0 ]
  %i28.0.dup04552 = phi i32 [ %i28.0.dup04454, %invoke.cont91.dup0 ]
  %i.0.dup04553 = phi i32 [ %i.0.dup04453, %invoke.cont91.dup0 ]
  %call37.dup04554 = phi double* [ %call37.dup04452, %invoke.cont91.dup0 ]
  %call6.dup04555 = phi i32* [ %call6.dup04451, %invoke.cont91.dup0 ]
  %call94.dup0 = invoke nonnull align 8 dereferenceable(8) double* @_ZN6Domain7dtfixedEv(%class.Domain* %this)
          to label %invoke.cont93.dup0 unwind label %lpad.dup0

invoke.cont91.dup0:                               ; preds = %invoke.cont90.dup0
  %call79.dup01585 = phi i32* [ %call79.dup01582, %invoke.cont90.dup0 ]
  %i75.0.dup01586 = phi i32 [ %i75.0.dup01581, %invoke.cont90.dup0 ]
  %call84.dup01587 = phi double* [ %call84.dup01584, %invoke.cont90.dup0 ]
  %inc86.dup01588 = phi i32 [ %inc86.dup01583, %invoke.cont90.dup0 ]
  %m_z.dup04418 = phi %"class.std::vector"* [ %m_z.dup04374, %invoke.cont90.dup0 ]
  %i58.0.dup04419 = phi i32 [ %i58.0.dup04375, %invoke.cont90.dup0 ]
  %x_local.dup04420 = phi [8 x double]* [ %x_local.dup04370, %invoke.cont90.dup0 ]
  %m_yd.dup04421 = phi %"class.std::vector"* [ %m_yd.dup04371, %invoke.cont90.dup0 ]
  %call67.dup04422 = phi double* [ %call67.dup04372, %invoke.cont90.dup0 ]
  %inc.dup04423 = phi i32 [ %inc.dup04369, %invoke.cont90.dup0 ]
  %m_elemMass.dup04424 = phi %"class.std::vector"* [ %m_elemMass.dup04380, %invoke.cont90.dup0 ]
  %m_symmZ.dup04425 = phi %"class.std::vector.0"* [ %m_symmZ.dup04379, %invoke.cont90.dup0 ]
  %m_p.dup04426 = phi %"class.std::vector"* [ %m_p.dup04378, %invoke.cont90.dup0 ]
  %call54.dup04427 = phi double* [ %call54.dup04368, %invoke.cont90.dup0 ]
  %m_v.dup04428 = phi %"class.std::vector"* [ %m_v.dup04367, %invoke.cont90.dup0 ]
  %m_lzetam.dup04429 = phi %"class.std::vector.0"* [ %m_lzetam.dup04364, %invoke.cont90.dup0 ]
  %m_nodalMass.dup04430 = phi %"class.std::vector"* [ %m_nodalMass.dup04363, %invoke.cont90.dup0 ]
  %m_q.dup04431 = phi %"class.std::vector"* [ %m_q.dup04373, %invoke.cont90.dup0 ]
  %m_arealg.dup04432 = phi %"class.std::vector"* [ %m_arealg.dup04362, %invoke.cont90.dup0 ]
  %inc56.dup04433 = phi i32 [ %inc56.dup04361, %invoke.cont90.dup0 ]
  %m_letam.dup04434 = phi %"class.std::vector.0"* [ %m_letam.dup04349, %invoke.cont90.dup0 ]
  %m_fz.dup04435 = phi %"class.std::vector"* [ %m_fz.dup04365, %invoke.cont90.dup0 ]
  %m_letap.dup04436 = phi %"class.std::vector.0"* [ %m_letap.dup04366, %invoke.cont90.dup0 ]
  %m_vnew.dup04437 = phi %"class.std::vector"* [ %m_vnew.dup04359, %invoke.cont90.dup0 ]
  %m_volo.dup04438 = phi %"class.std::vector"* [ %m_volo.dup04358, %invoke.cont90.dup0 ]
  %inc73.dup04439 = phi i32 [ %inc73.dup04357, %invoke.cont90.dup0 ]
  %m_lxip.dup04440 = phi %"class.std::vector.0"* [ %m_lxip.dup04352, %invoke.cont90.dup0 ]
  %call52.dup04441 = phi double* [ %call52.dup04353, %invoke.cont90.dup0 ]
  %call45.dup04442 = phi i32* [ %call45.dup04350, %invoke.cont90.dup0 ]
  %m_xd.dup04443 = phi %"class.std::vector"* [ %m_xd.dup04351, %invoke.cont90.dup0 ]
  %inc39.dup04444 = phi i32 [ %inc39.dup04377, %invoke.cont90.dup0 ]
  %z_local.dup04445 = phi [8 x double]* [ %z_local.dup04356, %invoke.cont90.dup0 ]
  %add.dup04446 = phi i32 [ %add.dup04376, %invoke.cont90.dup0 ]
  %call50.dup04447 = phi double* [ %call50.dup04354, %invoke.cont90.dup0 ]
  %call62.dup04448 = phi i32* [ %call62.dup04355, %invoke.cont90.dup0 ]
  %call69.dup04449 = phi double* [ %call69.dup04360, %invoke.cont90.dup0 ]
  %call71.dup04450 = phi double* [ %call71.dup04381, %invoke.cont90.dup0 ]
  %call6.dup04451 = phi i32* [ %call6.dup04403, %invoke.cont90.dup0 ]
  %call37.dup04452 = phi double* [ %call37.dup04402, %invoke.cont90.dup0 ]
  %i.0.dup04453 = phi i32 [ %i.0.dup04406, %invoke.cont90.dup0 ]
  %i28.0.dup04454 = phi i32 [ %i28.0.dup04407, %invoke.cont90.dup0 ]
  %call11.dup04455 = phi i32* [ %call11.dup04408, %invoke.cont90.dup0 ]
  %m_qq.dup04456 = phi %"class.std::vector"* [ %m_qq.dup04409, %invoke.cont90.dup0 ]
  %m_xdd.dup04457 = phi %"class.std::vector"* [ %m_xdd.dup04410, %invoke.cont90.dup0 ]
  %m_ydd.dup04458 = phi %"class.std::vector"* [ %m_ydd.dup04411, %invoke.cont90.dup0 ]
  %m_zdd.dup04459 = phi %"class.std::vector"* [ %m_zdd.dup04416, %invoke.cont90.dup0 ]
  %m_elemBC.dup04460 = phi %"class.std::vector.0"* [ %m_elemBC.dup04404, %invoke.cont90.dup0 ]
  %call14.dup04461 = phi i32* [ %call14.dup04405, %invoke.cont90.dup0 ]
  %m_y.dup04462 = phi %"class.std::vector"* [ %m_y.dup04417, %invoke.cont90.dup0 ]
  %call23.dup04463 = phi double* [ %call23.dup04415, %invoke.cont90.dup0 ]
  %call25.dup04464 = phi double* [ %call25.dup04414, %invoke.cont90.dup0 ]
  %m_ss.dup04465 = phi %"class.std::vector"* [ %m_ss.dup04413, %invoke.cont90.dup0 ]
  %call19.dup04466 = phi i32* [ %call19.dup04412, %invoke.cont90.dup0 ]
  %y_local.dup04467 = phi [8 x double]* [ %y_local.dup04401, %invoke.cont90.dup0 ]
  %call32.dup04468 = phi i32* [ %call32.dup04400, %invoke.cont90.dup0 ]
  %m_lxim.dup04469 = phi %"class.std::vector.0"* [ %m_lxim.dup04385, %invoke.cont90.dup0 ]
  %m_vdov.dup04470 = phi %"class.std::vector"* [ %m_vdov.dup04399, %invoke.cont90.dup0 ]
  %m_symmX.dup04471 = phi %"class.std::vector.0"* [ %m_symmX.dup04398, %invoke.cont90.dup0 ]
  %i41.0.dup04472 = phi i32 [ %i41.0.dup04397, %invoke.cont90.dup0 ]
  %m_lzetap.dup04473 = phi %"class.std::vector.0"* [ %m_lzetap.dup04396, %invoke.cont90.dup0 ]
  %m_symmY.dup04474 = phi %"class.std::vector.0"* [ %m_symmY.dup04395, %invoke.cont90.dup0 ]
  %m_delv.dup04475 = phi %"class.std::vector"* [ %m_delv.dup04394, %invoke.cont90.dup0 ]
  %m_e.dup04476 = phi %"class.std::vector"* [ %m_e.dup04393, %invoke.cont90.dup0 ]
  %m_x.dup04477 = phi %"class.std::vector"* [ %m_x.dup04392, %invoke.cont90.dup0 ]
  %call21.dup04478 = phi double* [ %call21.dup04391, %invoke.cont90.dup0 ]
  %m_fy.dup04479 = phi %"class.std::vector"* [ %m_fy.dup04390, %invoke.cont90.dup0 ]
  %call8.dup04480 = phi i8* [ %call8.dup04389, %invoke.cont90.dup0 ]
  %m_ql.dup04481 = phi %"class.std::vector"* [ %m_ql.dup04388, %invoke.cont90.dup0 ]
  %m_zd.dup04482 = phi %"class.std::vector"* [ %m_zd.dup04387, %invoke.cont90.dup0 ]
  %call.dup04483 = phi i32* [ %call.dup04386, %invoke.cont90.dup0 ]
  %m_nodelist.dup04484 = phi %"class.std::vector.0"* [ %m_nodelist.dup04384, %invoke.cont90.dup0 ]
  %m_fx.dup04485 = phi %"class.std::vector"* [ %m_fx.dup04383, %invoke.cont90.dup0 ]
  %call27.dup04486 = phi double* [ %call27.dup04382, %invoke.cont90.dup0 ]
  invoke void @_ZN6Domain23SetupBoundaryConditionsEi(%class.Domain* %this, i32 %nx)
          to label %invoke.cont92.dup0 unwind label %lpad.dup0

invoke.cont90.dup0:                               ; preds = %invoke.cont89.dup0
  %i75.0.dup01581 = phi i32 [ %i75.0.dup01578, %invoke.cont89.dup0 ]
  %call79.dup01582 = phi i32* [ %call79.dup01577, %invoke.cont89.dup0 ]
  %inc86.dup01583 = phi i32 [ %inc86.dup01580, %invoke.cont89.dup0 ]
  %call84.dup01584 = phi double* [ %call84.dup01579, %invoke.cont89.dup0 ]
  %m_letam.dup04349 = phi %"class.std::vector.0"* [ %m_letam.dup04309, %invoke.cont89.dup0 ]
  %call45.dup04350 = phi i32* [ %call45.dup04311, %invoke.cont89.dup0 ]
  %m_xd.dup04351 = phi %"class.std::vector"* [ %m_xd.dup04310, %invoke.cont89.dup0 ]
  %m_lxip.dup04352 = phi %"class.std::vector.0"* [ %m_lxip.dup04307, %invoke.cont89.dup0 ]
  %call52.dup04353 = phi double* [ %call52.dup04306, %invoke.cont89.dup0 ]
  %call50.dup04354 = phi double* [ %call50.dup04305, %invoke.cont89.dup0 ]
  %call62.dup04355 = phi i32* [ %call62.dup04304, %invoke.cont89.dup0 ]
  %z_local.dup04356 = phi [8 x double]* [ %z_local.dup04303, %invoke.cont89.dup0 ]
  %inc73.dup04357 = phi i32 [ %inc73.dup04301, %invoke.cont89.dup0 ]
  %m_volo.dup04358 = phi %"class.std::vector"* [ %m_volo.dup04300, %invoke.cont89.dup0 ]
  %m_vnew.dup04359 = phi %"class.std::vector"* [ %m_vnew.dup04299, %invoke.cont89.dup0 ]
  %call69.dup04360 = phi double* [ %call69.dup04296, %invoke.cont89.dup0 ]
  %inc56.dup04361 = phi i32 [ %inc56.dup04295, %invoke.cont89.dup0 ]
  %m_arealg.dup04362 = phi %"class.std::vector"* [ %m_arealg.dup04294, %invoke.cont89.dup0 ]
  %m_nodalMass.dup04363 = phi %"class.std::vector"* [ %m_nodalMass.dup04292, %invoke.cont89.dup0 ]
  %m_lzetam.dup04364 = phi %"class.std::vector.0"* [ %m_lzetam.dup04291, %invoke.cont89.dup0 ]
  %m_fz.dup04365 = phi %"class.std::vector"* [ %m_fz.dup04297, %invoke.cont89.dup0 ]
  %m_letap.dup04366 = phi %"class.std::vector.0"* [ %m_letap.dup04298, %invoke.cont89.dup0 ]
  %m_v.dup04367 = phi %"class.std::vector"* [ %m_v.dup04287, %invoke.cont89.dup0 ]
  %call54.dup04368 = phi double* [ %call54.dup04286, %invoke.cont89.dup0 ]
  %inc.dup04369 = phi i32 [ %inc.dup04288, %invoke.cont89.dup0 ]
  %x_local.dup04370 = phi [8 x double]* [ %x_local.dup04280, %invoke.cont89.dup0 ]
  %m_yd.dup04371 = phi %"class.std::vector"* [ %m_yd.dup04281, %invoke.cont89.dup0 ]
  %call67.dup04372 = phi double* [ %call67.dup04282, %invoke.cont89.dup0 ]
  %m_q.dup04373 = phi %"class.std::vector"* [ %m_q.dup04293, %invoke.cont89.dup0 ]
  %m_z.dup04374 = phi %"class.std::vector"* [ %m_z.dup04289, %invoke.cont89.dup0 ]
  %i58.0.dup04375 = phi i32 [ %i58.0.dup04290, %invoke.cont89.dup0 ]
  %add.dup04376 = phi i32 [ %add.dup04308, %invoke.cont89.dup0 ]
  %inc39.dup04377 = phi i32 [ %inc39.dup04302, %invoke.cont89.dup0 ]
  %m_p.dup04378 = phi %"class.std::vector"* [ %m_p.dup04285, %invoke.cont89.dup0 ]
  %m_symmZ.dup04379 = phi %"class.std::vector.0"* [ %m_symmZ.dup04284, %invoke.cont89.dup0 ]
  %m_elemMass.dup04380 = phi %"class.std::vector"* [ %m_elemMass.dup04283, %invoke.cont89.dup0 ]
  %call71.dup04381 = phi double* [ %call71.dup04312, %invoke.cont89.dup0 ]
  %call27.dup04382 = phi double* [ %call27.dup04340, %invoke.cont89.dup0 ]
  %m_fx.dup04383 = phi %"class.std::vector"* [ %m_fx.dup04341, %invoke.cont89.dup0 ]
  %m_nodelist.dup04384 = phi %"class.std::vector.0"* [ %m_nodelist.dup04342, %invoke.cont89.dup0 ]
  %m_lxim.dup04385 = phi %"class.std::vector.0"* [ %m_lxim.dup04331, %invoke.cont89.dup0 ]
  %call.dup04386 = phi i32* [ %call.dup04336, %invoke.cont89.dup0 ]
  %m_zd.dup04387 = phi %"class.std::vector"* [ %m_zd.dup04337, %invoke.cont89.dup0 ]
  %m_ql.dup04388 = phi %"class.std::vector"* [ %m_ql.dup04338, %invoke.cont89.dup0 ]
  %call8.dup04389 = phi i8* [ %call8.dup04339, %invoke.cont89.dup0 ]
  %m_fy.dup04390 = phi %"class.std::vector"* [ %m_fy.dup04346, %invoke.cont89.dup0 ]
  %call21.dup04391 = phi double* [ %call21.dup04347, %invoke.cont89.dup0 ]
  %m_x.dup04392 = phi %"class.std::vector"* [ %m_x.dup04348, %invoke.cont89.dup0 ]
  %m_e.dup04393 = phi %"class.std::vector"* [ %m_e.dup04345, %invoke.cont89.dup0 ]
  %m_delv.dup04394 = phi %"class.std::vector"* [ %m_delv.dup04344, %invoke.cont89.dup0 ]
  %m_symmY.dup04395 = phi %"class.std::vector.0"* [ %m_symmY.dup04343, %invoke.cont89.dup0 ]
  %m_lzetap.dup04396 = phi %"class.std::vector.0"* [ %m_lzetap.dup04335, %invoke.cont89.dup0 ]
  %i41.0.dup04397 = phi i32 [ %i41.0.dup04333, %invoke.cont89.dup0 ]
  %m_symmX.dup04398 = phi %"class.std::vector.0"* [ %m_symmX.dup04334, %invoke.cont89.dup0 ]
  %m_vdov.dup04399 = phi %"class.std::vector"* [ %m_vdov.dup04332, %invoke.cont89.dup0 ]
  %call32.dup04400 = phi i32* [ %call32.dup04330, %invoke.cont89.dup0 ]
  %y_local.dup04401 = phi [8 x double]* [ %y_local.dup04329, %invoke.cont89.dup0 ]
  %call37.dup04402 = phi double* [ %call37.dup04328, %invoke.cont89.dup0 ]
  %call6.dup04403 = phi i32* [ %call6.dup04327, %invoke.cont89.dup0 ]
  %m_elemBC.dup04404 = phi %"class.std::vector.0"* [ %m_elemBC.dup04326, %invoke.cont89.dup0 ]
  %call14.dup04405 = phi i32* [ %call14.dup04325, %invoke.cont89.dup0 ]
  %i.0.dup04406 = phi i32 [ %i.0.dup04324, %invoke.cont89.dup0 ]
  %i28.0.dup04407 = phi i32 [ %i28.0.dup04323, %invoke.cont89.dup0 ]
  %call11.dup04408 = phi i32* [ %call11.dup04322, %invoke.cont89.dup0 ]
  %m_qq.dup04409 = phi %"class.std::vector"* [ %m_qq.dup04321, %invoke.cont89.dup0 ]
  %m_xdd.dup04410 = phi %"class.std::vector"* [ %m_xdd.dup04320, %invoke.cont89.dup0 ]
  %m_ydd.dup04411 = phi %"class.std::vector"* [ %m_ydd.dup04319, %invoke.cont89.dup0 ]
  %call19.dup04412 = phi i32* [ %call19.dup04318, %invoke.cont89.dup0 ]
  %m_ss.dup04413 = phi %"class.std::vector"* [ %m_ss.dup04317, %invoke.cont89.dup0 ]
  %call25.dup04414 = phi double* [ %call25.dup04316, %invoke.cont89.dup0 ]
  %call23.dup04415 = phi double* [ %call23.dup04315, %invoke.cont89.dup0 ]
  %m_zdd.dup04416 = phi %"class.std::vector"* [ %m_zdd.dup04314, %invoke.cont89.dup0 ]
  %m_y.dup04417 = phi %"class.std::vector"* [ %m_y.dup04313, %invoke.cont89.dup0 ]
  invoke void @_ZN6Domain26SetupElementConnectivitiesEi(%class.Domain* %this, i32 %nx)
          to label %invoke.cont91.dup0 unwind label %lpad.dup0

invoke.cont89.dup0:                               ; preds = %invoke.cont88.dup0
  %call79.dup01577 = phi i32* [ %call79.dup01574, %invoke.cont88.dup0 ]
  %i75.0.dup01578 = phi i32 [ %i75.0.dup01573, %invoke.cont88.dup0 ]
  %call84.dup01579 = phi double* [ %call84.dup01576, %invoke.cont88.dup0 ]
  %inc86.dup01580 = phi i32 [ %inc86.dup01575, %invoke.cont88.dup0 ]
  %x_local.dup04280 = phi [8 x double]* [ %x_local.dup04234, %invoke.cont88.dup0 ]
  %m_yd.dup04281 = phi %"class.std::vector"* [ %m_yd.dup04235, %invoke.cont88.dup0 ]
  %call67.dup04282 = phi double* [ %call67.dup04236, %invoke.cont88.dup0 ]
  %m_elemMass.dup04283 = phi %"class.std::vector"* [ %m_elemMass.dup04242, %invoke.cont88.dup0 ]
  %m_symmZ.dup04284 = phi %"class.std::vector.0"* [ %m_symmZ.dup04240, %invoke.cont88.dup0 ]
  %m_p.dup04285 = phi %"class.std::vector"* [ %m_p.dup04239, %invoke.cont88.dup0 ]
  %call54.dup04286 = phi double* [ %call54.dup04233, %invoke.cont88.dup0 ]
  %m_v.dup04287 = phi %"class.std::vector"* [ %m_v.dup04232, %invoke.cont88.dup0 ]
  %inc.dup04288 = phi i32 [ %inc.dup04231, %invoke.cont88.dup0 ]
  %m_z.dup04289 = phi %"class.std::vector"* [ %m_z.dup04228, %invoke.cont88.dup0 ]
  %i58.0.dup04290 = phi i32 [ %i58.0.dup04227, %invoke.cont88.dup0 ]
  %m_lzetam.dup04291 = phi %"class.std::vector.0"* [ %m_lzetam.dup04226, %invoke.cont88.dup0 ]
  %m_nodalMass.dup04292 = phi %"class.std::vector"* [ %m_nodalMass.dup04225, %invoke.cont88.dup0 ]
  %m_q.dup04293 = phi %"class.std::vector"* [ %m_q.dup04241, %invoke.cont88.dup0 ]
  %m_arealg.dup04294 = phi %"class.std::vector"* [ %m_arealg.dup04224, %invoke.cont88.dup0 ]
  %inc56.dup04295 = phi i32 [ %inc56.dup04223, %invoke.cont88.dup0 ]
  %call69.dup04296 = phi double* [ %call69.dup04211, %invoke.cont88.dup0 ]
  %m_fz.dup04297 = phi %"class.std::vector"* [ %m_fz.dup04229, %invoke.cont88.dup0 ]
  %m_letap.dup04298 = phi %"class.std::vector.0"* [ %m_letap.dup04230, %invoke.cont88.dup0 ]
  %m_vnew.dup04299 = phi %"class.std::vector"* [ %m_vnew.dup04220, %invoke.cont88.dup0 ]
  %m_volo.dup04300 = phi %"class.std::vector"* [ %m_volo.dup04219, %invoke.cont88.dup0 ]
  %inc73.dup04301 = phi i32 [ %inc73.dup04218, %invoke.cont88.dup0 ]
  %inc39.dup04302 = phi i32 [ %inc39.dup04238, %invoke.cont88.dup0 ]
  %z_local.dup04303 = phi [8 x double]* [ %z_local.dup04222, %invoke.cont88.dup0 ]
  %call62.dup04304 = phi i32* [ %call62.dup04212, %invoke.cont88.dup0 ]
  %call50.dup04305 = phi double* [ %call50.dup04213, %invoke.cont88.dup0 ]
  %call52.dup04306 = phi double* [ %call52.dup04217, %invoke.cont88.dup0 ]
  %m_lxip.dup04307 = phi %"class.std::vector.0"* [ %m_lxip.dup04216, %invoke.cont88.dup0 ]
  %add.dup04308 = phi i32 [ %add.dup04237, %invoke.cont88.dup0 ]
  %m_letam.dup04309 = phi %"class.std::vector.0"* [ %m_letam.dup04221, %invoke.cont88.dup0 ]
  %m_xd.dup04310 = phi %"class.std::vector"* [ %m_xd.dup04215, %invoke.cont88.dup0 ]
  %call45.dup04311 = phi i32* [ %call45.dup04214, %invoke.cont88.dup0 ]
  %call71.dup04312 = phi double* [ %call71.dup04243, %invoke.cont88.dup0 ]
  %m_y.dup04313 = phi %"class.std::vector"* [ %m_y.dup04264, %invoke.cont88.dup0 ]
  %m_zdd.dup04314 = phi %"class.std::vector"* [ %m_zdd.dup04268, %invoke.cont88.dup0 ]
  %call23.dup04315 = phi double* [ %call23.dup04269, %invoke.cont88.dup0 ]
  %call25.dup04316 = phi double* [ %call25.dup04270, %invoke.cont88.dup0 ]
  %m_ss.dup04317 = phi %"class.std::vector"* [ %m_ss.dup04271, %invoke.cont88.dup0 ]
  %call19.dup04318 = phi i32* [ %call19.dup04272, %invoke.cont88.dup0 ]
  %m_ydd.dup04319 = phi %"class.std::vector"* [ %m_ydd.dup04267, %invoke.cont88.dup0 ]
  %m_xdd.dup04320 = phi %"class.std::vector"* [ %m_xdd.dup04273, %invoke.cont88.dup0 ]
  %m_qq.dup04321 = phi %"class.std::vector"* [ %m_qq.dup04274, %invoke.cont88.dup0 ]
  %call11.dup04322 = phi i32* [ %call11.dup04278, %invoke.cont88.dup0 ]
  %i28.0.dup04323 = phi i32 [ %i28.0.dup04279, %invoke.cont88.dup0 ]
  %i.0.dup04324 = phi i32 [ %i.0.dup04277, %invoke.cont88.dup0 ]
  %call14.dup04325 = phi i32* [ %call14.dup04265, %invoke.cont88.dup0 ]
  %m_elemBC.dup04326 = phi %"class.std::vector.0"* [ %m_elemBC.dup04266, %invoke.cont88.dup0 ]
  %call6.dup04327 = phi i32* [ %call6.dup04276, %invoke.cont88.dup0 ]
  %call37.dup04328 = phi double* [ %call37.dup04275, %invoke.cont88.dup0 ]
  %y_local.dup04329 = phi [8 x double]* [ %y_local.dup04263, %invoke.cont88.dup0 ]
  %call32.dup04330 = phi i32* [ %call32.dup04262, %invoke.cont88.dup0 ]
  %m_lxim.dup04331 = phi %"class.std::vector.0"* [ %m_lxim.dup04253, %invoke.cont88.dup0 ]
  %m_vdov.dup04332 = phi %"class.std::vector"* [ %m_vdov.dup04261, %invoke.cont88.dup0 ]
  %i41.0.dup04333 = phi i32 [ %i41.0.dup04260, %invoke.cont88.dup0 ]
  %m_symmX.dup04334 = phi %"class.std::vector.0"* [ %m_symmX.dup04259, %invoke.cont88.dup0 ]
  %m_lzetap.dup04335 = phi %"class.std::vector.0"* [ %m_lzetap.dup04258, %invoke.cont88.dup0 ]
  %call.dup04336 = phi i32* [ %call.dup04257, %invoke.cont88.dup0 ]
  %m_zd.dup04337 = phi %"class.std::vector"* [ %m_zd.dup04256, %invoke.cont88.dup0 ]
  %m_ql.dup04338 = phi %"class.std::vector"* [ %m_ql.dup04248, %invoke.cont88.dup0 ]
  %call8.dup04339 = phi i8* [ %call8.dup04247, %invoke.cont88.dup0 ]
  %call27.dup04340 = phi double* [ %call27.dup04255, %invoke.cont88.dup0 ]
  %m_fx.dup04341 = phi %"class.std::vector"* [ %m_fx.dup04254, %invoke.cont88.dup0 ]
  %m_nodelist.dup04342 = phi %"class.std::vector.0"* [ %m_nodelist.dup04252, %invoke.cont88.dup0 ]
  %m_symmY.dup04343 = phi %"class.std::vector.0"* [ %m_symmY.dup04251, %invoke.cont88.dup0 ]
  %m_delv.dup04344 = phi %"class.std::vector"* [ %m_delv.dup04250, %invoke.cont88.dup0 ]
  %m_e.dup04345 = phi %"class.std::vector"* [ %m_e.dup04249, %invoke.cont88.dup0 ]
  %m_fy.dup04346 = phi %"class.std::vector"* [ %m_fy.dup04246, %invoke.cont88.dup0 ]
  %call21.dup04347 = phi double* [ %call21.dup04245, %invoke.cont88.dup0 ]
  %m_x.dup04348 = phi %"class.std::vector"* [ %m_x.dup04244, %invoke.cont88.dup0 ]
  invoke void @_ZN6Domain19SetupSymmetryPlanesEi(%class.Domain* %this, i32 %add.dup04308)
          to label %invoke.cont90.dup0 unwind label %lpad.dup0

invoke.cont88.dup0:                               ; preds = %for.end87.dup0
  %i75.0.dup01573 = phi i32 [ %i75.0.dup01570, %for.end87.dup0 ]
  %call79.dup01574 = phi i32* [ %call79.dup01569, %for.end87.dup0 ]
  %inc86.dup01575 = phi i32 [ %inc86.dup01572, %for.end87.dup0 ]
  %call84.dup01576 = phi double* [ %call84.dup01571, %for.end87.dup0 ]
  %call69.dup04211 = phi double* [ %call69.dup04173, %for.end87.dup0 ]
  %call62.dup04212 = phi i32* [ %call62.dup04172, %for.end87.dup0 ]
  %call50.dup04213 = phi double* [ %call50.dup04171, %for.end87.dup0 ]
  %call45.dup04214 = phi i32* [ %call45.dup04168, %for.end87.dup0 ]
  %m_xd.dup04215 = phi %"class.std::vector"* [ %m_xd.dup04169, %for.end87.dup0 ]
  %m_lxip.dup04216 = phi %"class.std::vector.0"* [ %m_lxip.dup04167, %for.end87.dup0 ]
  %call52.dup04217 = phi double* [ %call52.dup04166, %for.end87.dup0 ]
  %inc73.dup04218 = phi i32 [ %inc73.dup04165, %for.end87.dup0 ]
  %m_volo.dup04219 = phi %"class.std::vector"* [ %m_volo.dup04164, %for.end87.dup0 ]
  %m_vnew.dup04220 = phi %"class.std::vector"* [ %m_vnew.dup04163, %for.end87.dup0 ]
  %m_letam.dup04221 = phi %"class.std::vector.0"* [ %m_letam.dup04162, %for.end87.dup0 ]
  %z_local.dup04222 = phi [8 x double]* [ %z_local.dup04158, %for.end87.dup0 ]
  %inc56.dup04223 = phi i32 [ %inc56.dup04157, %for.end87.dup0 ]
  %m_arealg.dup04224 = phi %"class.std::vector"* [ %m_arealg.dup04156, %for.end87.dup0 ]
  %m_nodalMass.dup04225 = phi %"class.std::vector"* [ %m_nodalMass.dup04154, %for.end87.dup0 ]
  %m_lzetam.dup04226 = phi %"class.std::vector.0"* [ %m_lzetam.dup04153, %for.end87.dup0 ]
  %i58.0.dup04227 = phi i32 [ %i58.0.dup04143, %for.end87.dup0 ]
  %m_z.dup04228 = phi %"class.std::vector"* [ %m_z.dup04142, %for.end87.dup0 ]
  %m_fz.dup04229 = phi %"class.std::vector"* [ %m_fz.dup04160, %for.end87.dup0 ]
  %m_letap.dup04230 = phi %"class.std::vector.0"* [ %m_letap.dup04159, %for.end87.dup0 ]
  %inc.dup04231 = phi i32 [ %inc.dup04147, %for.end87.dup0 ]
  %m_v.dup04232 = phi %"class.std::vector"* [ %m_v.dup04152, %for.end87.dup0 ]
  %call54.dup04233 = phi double* [ %call54.dup04151, %for.end87.dup0 ]
  %x_local.dup04234 = phi [8 x double]* [ %x_local.dup04144, %for.end87.dup0 ]
  %m_yd.dup04235 = phi %"class.std::vector"* [ %m_yd.dup04145, %for.end87.dup0 ]
  %call67.dup04236 = phi double* [ %call67.dup04146, %for.end87.dup0 ]
  %add.dup04237 = phi i32 [ %add.dup04170, %for.end87.dup0 ]
  %inc39.dup04238 = phi i32 [ %inc39.dup04161, %for.end87.dup0 ]
  %m_p.dup04239 = phi %"class.std::vector"* [ %m_p.dup04150, %for.end87.dup0 ]
  %m_symmZ.dup04240 = phi %"class.std::vector.0"* [ %m_symmZ.dup04149, %for.end87.dup0 ]
  %m_q.dup04241 = phi %"class.std::vector"* [ %m_q.dup04155, %for.end87.dup0 ]
  %m_elemMass.dup04242 = phi %"class.std::vector"* [ %m_elemMass.dup04148, %for.end87.dup0 ]
  %call71.dup04243 = phi double* [ %call71.dup04174, %for.end87.dup0 ]
  %m_x.dup04244 = phi %"class.std::vector"* [ %m_x.dup04202, %for.end87.dup0 ]
  %call21.dup04245 = phi double* [ %call21.dup04203, %for.end87.dup0 ]
  %m_fy.dup04246 = phi %"class.std::vector"* [ %m_fy.dup04204, %for.end87.dup0 ]
  %call8.dup04247 = phi i8* [ %call8.dup04200, %for.end87.dup0 ]
  %m_ql.dup04248 = phi %"class.std::vector"* [ %m_ql.dup04201, %for.end87.dup0 ]
  %m_e.dup04249 = phi %"class.std::vector"* [ %m_e.dup04209, %for.end87.dup0 ]
  %m_delv.dup04250 = phi %"class.std::vector"* [ %m_delv.dup04210, %for.end87.dup0 ]
  %m_symmY.dup04251 = phi %"class.std::vector.0"* [ %m_symmY.dup04208, %for.end87.dup0 ]
  %m_nodelist.dup04252 = phi %"class.std::vector.0"* [ %m_nodelist.dup04207, %for.end87.dup0 ]
  %m_lxim.dup04253 = phi %"class.std::vector.0"* [ %m_lxim.dup04193, %for.end87.dup0 ]
  %m_fx.dup04254 = phi %"class.std::vector"* [ %m_fx.dup04206, %for.end87.dup0 ]
  %call27.dup04255 = phi double* [ %call27.dup04205, %for.end87.dup0 ]
  %m_zd.dup04256 = phi %"class.std::vector"* [ %m_zd.dup04199, %for.end87.dup0 ]
  %call.dup04257 = phi i32* [ %call.dup04198, %for.end87.dup0 ]
  %m_lzetap.dup04258 = phi %"class.std::vector.0"* [ %m_lzetap.dup04197, %for.end87.dup0 ]
  %m_symmX.dup04259 = phi %"class.std::vector.0"* [ %m_symmX.dup04196, %for.end87.dup0 ]
  %i41.0.dup04260 = phi i32 [ %i41.0.dup04195, %for.end87.dup0 ]
  %m_vdov.dup04261 = phi %"class.std::vector"* [ %m_vdov.dup04194, %for.end87.dup0 ]
  %call32.dup04262 = phi i32* [ %call32.dup04192, %for.end87.dup0 ]
  %y_local.dup04263 = phi [8 x double]* [ %y_local.dup04191, %for.end87.dup0 ]
  %m_y.dup04264 = phi %"class.std::vector"* [ %m_y.dup04190, %for.end87.dup0 ]
  %call14.dup04265 = phi i32* [ %call14.dup04189, %for.end87.dup0 ]
  %m_elemBC.dup04266 = phi %"class.std::vector.0"* [ %m_elemBC.dup04188, %for.end87.dup0 ]
  %m_ydd.dup04267 = phi %"class.std::vector"* [ %m_ydd.dup04187, %for.end87.dup0 ]
  %m_zdd.dup04268 = phi %"class.std::vector"* [ %m_zdd.dup04186, %for.end87.dup0 ]
  %call23.dup04269 = phi double* [ %call23.dup04185, %for.end87.dup0 ]
  %call25.dup04270 = phi double* [ %call25.dup04184, %for.end87.dup0 ]
  %m_ss.dup04271 = phi %"class.std::vector"* [ %m_ss.dup04183, %for.end87.dup0 ]
  %call19.dup04272 = phi i32* [ %call19.dup04182, %for.end87.dup0 ]
  %m_xdd.dup04273 = phi %"class.std::vector"* [ %m_xdd.dup04181, %for.end87.dup0 ]
  %m_qq.dup04274 = phi %"class.std::vector"* [ %m_qq.dup04180, %for.end87.dup0 ]
  %call37.dup04275 = phi double* [ %call37.dup04179, %for.end87.dup0 ]
  %call6.dup04276 = phi i32* [ %call6.dup04178, %for.end87.dup0 ]
  %i.0.dup04277 = phi i32 [ %i.0.dup04177, %for.end87.dup0 ]
  %call11.dup04278 = phi i32* [ %call11.dup04176, %for.end87.dup0 ]
  %i28.0.dup04279 = phi i32 [ %i28.0.dup04175, %for.end87.dup0 ]
  invoke void @_ZN6Domain21CreateRegionIndexSetsEii(%class.Domain* %this, i32 %nr, i32 %balance)
          to label %invoke.cont89.dup0 unwind label %lpad.dup0

for.end87.dup0:                                   ; preds = %for.cond.cleanup81.dup0
  %call79.dup01569 = phi i32* [ %call79.dup01566, %for.cond.cleanup81.dup0 ]
  %i75.0.dup01570 = phi i32 [ %i75.0.dup01565, %for.cond.cleanup81.dup0 ]
  %call84.dup01571 = phi double* [ %call84.dup01568, %for.cond.cleanup81.dup0 ]
  %inc86.dup01572 = phi i32 [ %inc86.dup01567, %for.cond.cleanup81.dup0 ]
  %m_z.dup04142 = phi %"class.std::vector"* [ %m_z.dup04098, %for.cond.cleanup81.dup0 ]
  %i58.0.dup04143 = phi i32 [ %i58.0.dup04099, %for.cond.cleanup81.dup0 ]
  %x_local.dup04144 = phi [8 x double]* [ %x_local.dup04094, %for.cond.cleanup81.dup0 ]
  %m_yd.dup04145 = phi %"class.std::vector"* [ %m_yd.dup04095, %for.cond.cleanup81.dup0 ]
  %call67.dup04146 = phi double* [ %call67.dup04096, %for.cond.cleanup81.dup0 ]
  %inc.dup04147 = phi i32 [ %inc.dup04093, %for.cond.cleanup81.dup0 ]
  %m_elemMass.dup04148 = phi %"class.std::vector"* [ %m_elemMass.dup04104, %for.cond.cleanup81.dup0 ]
  %m_symmZ.dup04149 = phi %"class.std::vector.0"* [ %m_symmZ.dup04103, %for.cond.cleanup81.dup0 ]
  %m_p.dup04150 = phi %"class.std::vector"* [ %m_p.dup04102, %for.cond.cleanup81.dup0 ]
  %call54.dup04151 = phi double* [ %call54.dup04092, %for.cond.cleanup81.dup0 ]
  %m_v.dup04152 = phi %"class.std::vector"* [ %m_v.dup04091, %for.cond.cleanup81.dup0 ]
  %m_lzetam.dup04153 = phi %"class.std::vector.0"* [ %m_lzetam.dup04088, %for.cond.cleanup81.dup0 ]
  %m_nodalMass.dup04154 = phi %"class.std::vector"* [ %m_nodalMass.dup04087, %for.cond.cleanup81.dup0 ]
  %m_q.dup04155 = phi %"class.std::vector"* [ %m_q.dup04097, %for.cond.cleanup81.dup0 ]
  %m_arealg.dup04156 = phi %"class.std::vector"* [ %m_arealg.dup04086, %for.cond.cleanup81.dup0 ]
  %inc56.dup04157 = phi i32 [ %inc56.dup04085, %for.cond.cleanup81.dup0 ]
  %z_local.dup04158 = phi [8 x double]* [ %z_local.dup04073, %for.cond.cleanup81.dup0 ]
  %m_letap.dup04159 = phi %"class.std::vector.0"* [ %m_letap.dup04090, %for.cond.cleanup81.dup0 ]
  %m_fz.dup04160 = phi %"class.std::vector"* [ %m_fz.dup04089, %for.cond.cleanup81.dup0 ]
  %inc39.dup04161 = phi i32 [ %inc39.dup04101, %for.cond.cleanup81.dup0 ]
  %m_letam.dup04162 = phi %"class.std::vector.0"* [ %m_letam.dup04078, %for.cond.cleanup81.dup0 ]
  %m_vnew.dup04163 = phi %"class.std::vector"* [ %m_vnew.dup04083, %for.cond.cleanup81.dup0 ]
  %m_volo.dup04164 = phi %"class.std::vector"* [ %m_volo.dup04082, %for.cond.cleanup81.dup0 ]
  %inc73.dup04165 = phi i32 [ %inc73.dup04081, %for.cond.cleanup81.dup0 ]
  %call52.dup04166 = phi double* [ %call52.dup04075, %for.cond.cleanup81.dup0 ]
  %m_lxip.dup04167 = phi %"class.std::vector.0"* [ %m_lxip.dup04074, %for.cond.cleanup81.dup0 ]
  %call45.dup04168 = phi i32* [ %call45.dup04076, %for.cond.cleanup81.dup0 ]
  %m_xd.dup04169 = phi %"class.std::vector"* [ %m_xd.dup04077, %for.cond.cleanup81.dup0 ]
  %add.dup04170 = phi i32 [ %add.dup04100, %for.cond.cleanup81.dup0 ]
  %call50.dup04171 = phi double* [ %call50.dup04079, %for.cond.cleanup81.dup0 ]
  %call62.dup04172 = phi i32* [ %call62.dup04080, %for.cond.cleanup81.dup0 ]
  %call69.dup04173 = phi double* [ %call69.dup04084, %for.cond.cleanup81.dup0 ]
  %call71.dup04174 = phi double* [ %call71.dup04105, %for.cond.cleanup81.dup0 ]
  %i28.0.dup04175 = phi i32 [ %i28.0.dup04127, %for.cond.cleanup81.dup0 ]
  %call11.dup04176 = phi i32* [ %call11.dup04126, %for.cond.cleanup81.dup0 ]
  %i.0.dup04177 = phi i32 [ %i.0.dup04128, %for.cond.cleanup81.dup0 ]
  %call6.dup04178 = phi i32* [ %call6.dup04131, %for.cond.cleanup81.dup0 ]
  %call37.dup04179 = phi double* [ %call37.dup04132, %for.cond.cleanup81.dup0 ]
  %m_qq.dup04180 = phi %"class.std::vector"* [ %m_qq.dup04133, %for.cond.cleanup81.dup0 ]
  %m_xdd.dup04181 = phi %"class.std::vector"* [ %m_xdd.dup04134, %for.cond.cleanup81.dup0 ]
  %call19.dup04182 = phi i32* [ %call19.dup04140, %for.cond.cleanup81.dup0 ]
  %m_ss.dup04183 = phi %"class.std::vector"* [ %m_ss.dup04141, %for.cond.cleanup81.dup0 ]
  %call25.dup04184 = phi double* [ %call25.dup04139, %for.cond.cleanup81.dup0 ]
  %call23.dup04185 = phi double* [ %call23.dup04138, %for.cond.cleanup81.dup0 ]
  %m_zdd.dup04186 = phi %"class.std::vector"* [ %m_zdd.dup04137, %for.cond.cleanup81.dup0 ]
  %m_ydd.dup04187 = phi %"class.std::vector"* [ %m_ydd.dup04135, %for.cond.cleanup81.dup0 ]
  %m_elemBC.dup04188 = phi %"class.std::vector.0"* [ %m_elemBC.dup04129, %for.cond.cleanup81.dup0 ]
  %call14.dup04189 = phi i32* [ %call14.dup04130, %for.cond.cleanup81.dup0 ]
  %m_y.dup04190 = phi %"class.std::vector"* [ %m_y.dup04136, %for.cond.cleanup81.dup0 ]
  %y_local.dup04191 = phi [8 x double]* [ %y_local.dup04125, %for.cond.cleanup81.dup0 ]
  %call32.dup04192 = phi i32* [ %call32.dup04124, %for.cond.cleanup81.dup0 ]
  %m_lxim.dup04193 = phi %"class.std::vector.0"* [ %m_lxim.dup04112, %for.cond.cleanup81.dup0 ]
  %m_vdov.dup04194 = phi %"class.std::vector"* [ %m_vdov.dup04123, %for.cond.cleanup81.dup0 ]
  %i41.0.dup04195 = phi i32 [ %i41.0.dup04122, %for.cond.cleanup81.dup0 ]
  %m_symmX.dup04196 = phi %"class.std::vector.0"* [ %m_symmX.dup04121, %for.cond.cleanup81.dup0 ]
  %m_lzetap.dup04197 = phi %"class.std::vector.0"* [ %m_lzetap.dup04120, %for.cond.cleanup81.dup0 ]
  %call.dup04198 = phi i32* [ %call.dup04119, %for.cond.cleanup81.dup0 ]
  %m_zd.dup04199 = phi %"class.std::vector"* [ %m_zd.dup04118, %for.cond.cleanup81.dup0 ]
  %call8.dup04200 = phi i8* [ %call8.dup04109, %for.cond.cleanup81.dup0 ]
  %m_ql.dup04201 = phi %"class.std::vector"* [ %m_ql.dup04108, %for.cond.cleanup81.dup0 ]
  %m_x.dup04202 = phi %"class.std::vector"* [ %m_x.dup04117, %for.cond.cleanup81.dup0 ]
  %call21.dup04203 = phi double* [ %call21.dup04116, %for.cond.cleanup81.dup0 ]
  %m_fy.dup04204 = phi %"class.std::vector"* [ %m_fy.dup04115, %for.cond.cleanup81.dup0 ]
  %call27.dup04205 = phi double* [ %call27.dup04114, %for.cond.cleanup81.dup0 ]
  %m_fx.dup04206 = phi %"class.std::vector"* [ %m_fx.dup04113, %for.cond.cleanup81.dup0 ]
  %m_nodelist.dup04207 = phi %"class.std::vector.0"* [ %m_nodelist.dup04111, %for.cond.cleanup81.dup0 ]
  %m_symmY.dup04208 = phi %"class.std::vector.0"* [ %m_symmY.dup04110, %for.cond.cleanup81.dup0 ]
  %m_e.dup04209 = phi %"class.std::vector"* [ %m_e.dup04107, %for.cond.cleanup81.dup0 ]
  %m_delv.dup04210 = phi %"class.std::vector"* [ %m_delv.dup04106, %for.cond.cleanup81.dup0 ]
  invoke void @_ZN6Domain9BuildMeshEiii(%class.Domain* %this, i32 %nx, i32 %add.dup04170, i32 %nx)
          to label %invoke.cont88.dup0 unwind label %lpad.dup0

for.cond.cleanup81.dup0:                          ; preds = %invoke.cont78.dup0
  %i75.0.dup01565 = phi i32 [ %i75.0.dup01554, %invoke.cont78.dup0 ]
  %call79.dup01566 = phi i32* [ %call79.dup01553, %invoke.cont78.dup0 ]
  %inc86.dup01567 = phi i32 [ %inc86.dup01556, %invoke.cont78.dup0 ]
  %call84.dup01568 = phi double* [ %call84.dup01555, %invoke.cont78.dup0 ]
  %z_local.dup04073 = phi [8 x double]* [ %z_local.dup03828, %invoke.cont78.dup0 ]
  %m_lxip.dup04074 = phi %"class.std::vector.0"* [ %m_lxip.dup03827, %invoke.cont78.dup0 ]
  %call52.dup04075 = phi double* [ %call52.dup03826, %invoke.cont78.dup0 ]
  %call45.dup04076 = phi i32* [ %call45.dup03825, %invoke.cont78.dup0 ]
  %m_xd.dup04077 = phi %"class.std::vector"* [ %m_xd.dup03824, %invoke.cont78.dup0 ]
  %m_letam.dup04078 = phi %"class.std::vector.0"* [ %m_letam.dup03823, %invoke.cont78.dup0 ]
  %call50.dup04079 = phi double* [ %call50.dup03820, %invoke.cont78.dup0 ]
  %call62.dup04080 = phi i32* [ %call62.dup03819, %invoke.cont78.dup0 ]
  %inc73.dup04081 = phi i32 [ %inc73.dup03818, %invoke.cont78.dup0 ]
  %m_volo.dup04082 = phi %"class.std::vector"* [ %m_volo.dup03817, %invoke.cont78.dup0 ]
  %m_vnew.dup04083 = phi %"class.std::vector"* [ %m_vnew.dup03816, %invoke.cont78.dup0 ]
  %call69.dup04084 = phi double* [ %call69.dup03813, %invoke.cont78.dup0 ]
  %inc56.dup04085 = phi i32 [ %inc56.dup03812, %invoke.cont78.dup0 ]
  %m_arealg.dup04086 = phi %"class.std::vector"* [ %m_arealg.dup03811, %invoke.cont78.dup0 ]
  %m_nodalMass.dup04087 = phi %"class.std::vector"* [ %m_nodalMass.dup03809, %invoke.cont78.dup0 ]
  %m_lzetam.dup04088 = phi %"class.std::vector.0"* [ %m_lzetam.dup03808, %invoke.cont78.dup0 ]
  %m_fz.dup04089 = phi %"class.std::vector"* [ %m_fz.dup03814, %invoke.cont78.dup0 ]
  %m_letap.dup04090 = phi %"class.std::vector.0"* [ %m_letap.dup03815, %invoke.cont78.dup0 ]
  %m_v.dup04091 = phi %"class.std::vector"* [ %m_v.dup03806, %invoke.cont78.dup0 ]
  %call54.dup04092 = phi double* [ %call54.dup03805, %invoke.cont78.dup0 ]
  %inc.dup04093 = phi i32 [ %inc.dup03807, %invoke.cont78.dup0 ]
  %x_local.dup04094 = phi [8 x double]* [ %x_local.dup03797, %invoke.cont78.dup0 ]
  %m_yd.dup04095 = phi %"class.std::vector"* [ %m_yd.dup03798, %invoke.cont78.dup0 ]
  %call67.dup04096 = phi double* [ %call67.dup03799, %invoke.cont78.dup0 ]
  %m_q.dup04097 = phi %"class.std::vector"* [ %m_q.dup03810, %invoke.cont78.dup0 ]
  %m_z.dup04098 = phi %"class.std::vector"* [ %m_z.dup03800, %invoke.cont78.dup0 ]
  %i58.0.dup04099 = phi i32 [ %i58.0.dup03801, %invoke.cont78.dup0 ]
  %add.dup04100 = phi i32 [ %add.dup03822, %invoke.cont78.dup0 ]
  %inc39.dup04101 = phi i32 [ %inc39.dup03821, %invoke.cont78.dup0 ]
  %m_p.dup04102 = phi %"class.std::vector"* [ %m_p.dup03804, %invoke.cont78.dup0 ]
  %m_symmZ.dup04103 = phi %"class.std::vector.0"* [ %m_symmZ.dup03803, %invoke.cont78.dup0 ]
  %m_elemMass.dup04104 = phi %"class.std::vector"* [ %m_elemMass.dup03802, %invoke.cont78.dup0 ]
  %call71.dup04105 = phi double* [ %call71.dup03829, %invoke.cont78.dup0 ]
  %m_delv.dup04106 = phi %"class.std::vector"* [ %m_delv.dup03857, %invoke.cont78.dup0 ]
  %m_e.dup04107 = phi %"class.std::vector"* [ %m_e.dup03858, %invoke.cont78.dup0 ]
  %m_ql.dup04108 = phi %"class.std::vector"* [ %m_ql.dup03855, %invoke.cont78.dup0 ]
  %call8.dup04109 = phi i8* [ %call8.dup03856, %invoke.cont78.dup0 ]
  %m_symmY.dup04110 = phi %"class.std::vector.0"* [ %m_symmY.dup03864, %invoke.cont78.dup0 ]
  %m_nodelist.dup04111 = phi %"class.std::vector.0"* [ %m_nodelist.dup03865, %invoke.cont78.dup0 ]
  %m_lxim.dup04112 = phi %"class.std::vector.0"* [ %m_lxim.dup03848, %invoke.cont78.dup0 ]
  %m_fx.dup04113 = phi %"class.std::vector"* [ %m_fx.dup03859, %invoke.cont78.dup0 ]
  %call27.dup04114 = phi double* [ %call27.dup03860, %invoke.cont78.dup0 ]
  %m_fy.dup04115 = phi %"class.std::vector"* [ %m_fy.dup03862, %invoke.cont78.dup0 ]
  %call21.dup04116 = phi double* [ %call21.dup03863, %invoke.cont78.dup0 ]
  %m_x.dup04117 = phi %"class.std::vector"* [ %m_x.dup03861, %invoke.cont78.dup0 ]
  %m_zd.dup04118 = phi %"class.std::vector"* [ %m_zd.dup03854, %invoke.cont78.dup0 ]
  %call.dup04119 = phi i32* [ %call.dup03853, %invoke.cont78.dup0 ]
  %m_lzetap.dup04120 = phi %"class.std::vector.0"* [ %m_lzetap.dup03852, %invoke.cont78.dup0 ]
  %m_symmX.dup04121 = phi %"class.std::vector.0"* [ %m_symmX.dup03850, %invoke.cont78.dup0 ]
  %i41.0.dup04122 = phi i32 [ %i41.0.dup03851, %invoke.cont78.dup0 ]
  %m_vdov.dup04123 = phi %"class.std::vector"* [ %m_vdov.dup03849, %invoke.cont78.dup0 ]
  %call32.dup04124 = phi i32* [ %call32.dup03847, %invoke.cont78.dup0 ]
  %y_local.dup04125 = phi [8 x double]* [ %y_local.dup03846, %invoke.cont78.dup0 ]
  %call11.dup04126 = phi i32* [ %call11.dup03845, %invoke.cont78.dup0 ]
  %i28.0.dup04127 = phi i32 [ %i28.0.dup03844, %invoke.cont78.dup0 ]
  %i.0.dup04128 = phi i32 [ %i.0.dup03843, %invoke.cont78.dup0 ]
  %m_elemBC.dup04129 = phi %"class.std::vector.0"* [ %m_elemBC.dup03842, %invoke.cont78.dup0 ]
  %call14.dup04130 = phi i32* [ %call14.dup03841, %invoke.cont78.dup0 ]
  %call6.dup04131 = phi i32* [ %call6.dup03840, %invoke.cont78.dup0 ]
  %call37.dup04132 = phi double* [ %call37.dup03839, %invoke.cont78.dup0 ]
  %m_qq.dup04133 = phi %"class.std::vector"* [ %m_qq.dup03838, %invoke.cont78.dup0 ]
  %m_xdd.dup04134 = phi %"class.std::vector"* [ %m_xdd.dup03837, %invoke.cont78.dup0 ]
  %m_ydd.dup04135 = phi %"class.std::vector"* [ %m_ydd.dup03836, %invoke.cont78.dup0 ]
  %m_y.dup04136 = phi %"class.std::vector"* [ %m_y.dup03835, %invoke.cont78.dup0 ]
  %m_zdd.dup04137 = phi %"class.std::vector"* [ %m_zdd.dup03834, %invoke.cont78.dup0 ]
  %call23.dup04138 = phi double* [ %call23.dup03833, %invoke.cont78.dup0 ]
  %call25.dup04139 = phi double* [ %call25.dup03832, %invoke.cont78.dup0 ]
  %call19.dup04140 = phi i32* [ %call19.dup03831, %invoke.cont78.dup0 ]
  %m_ss.dup04141 = phi %"class.std::vector"* [ %m_ss.dup03830, %invoke.cont78.dup0 ]
  br label %for.end87.dup0

invoke.cont78.dup0:                               ; preds = %for.cond76.dup0
  %call79.dup01553 = phi i32* [ %call79.dup0, %for.cond76.dup0 ]
  %i75.0.dup01554 = phi i32 [ %i75.0.dup0, %for.cond76.dup0 ]
  %call84.dup01555 = phi double* [ %call84.dup01537, %for.cond76.dup0 ]
  %inc86.dup01556 = phi i32 [ %inc86.dup01438, %for.cond76.dup0 ]
  %x_local.dup03797 = phi [8 x double]* [ %x_local.dup03756, %for.cond76.dup0 ]
  %m_yd.dup03798 = phi %"class.std::vector"* [ %m_yd.dup03754, %for.cond76.dup0 ]
  %call67.dup03799 = phi double* [ %call67.dup03755, %for.cond76.dup0 ]
  %m_z.dup03800 = phi %"class.std::vector"* [ %m_z.dup03751, %for.cond76.dup0 ]
  %i58.0.dup03801 = phi i32 [ %i58.0.dup03752, %for.cond76.dup0 ]
  %m_elemMass.dup03802 = phi %"class.std::vector"* [ %m_elemMass.dup03759, %for.cond76.dup0 ]
  %m_symmZ.dup03803 = phi %"class.std::vector.0"* [ %m_symmZ.dup03757, %for.cond76.dup0 ]
  %m_p.dup03804 = phi %"class.std::vector"* [ %m_p.dup03758, %for.cond76.dup0 ]
  %call54.dup03805 = phi double* [ %call54.dup03750, %for.cond76.dup0 ]
  %m_v.dup03806 = phi %"class.std::vector"* [ %m_v.dup03749, %for.cond76.dup0 ]
  %inc.dup03807 = phi i32 [ %inc.dup03748, %for.cond76.dup0 ]
  %m_lzetam.dup03808 = phi %"class.std::vector.0"* [ %m_lzetam.dup03745, %for.cond76.dup0 ]
  %m_nodalMass.dup03809 = phi %"class.std::vector"* [ %m_nodalMass.dup03744, %for.cond76.dup0 ]
  %m_q.dup03810 = phi %"class.std::vector"* [ %m_q.dup03753, %for.cond76.dup0 ]
  %m_arealg.dup03811 = phi %"class.std::vector"* [ %m_arealg.dup03743, %for.cond76.dup0 ]
  %inc56.dup03812 = phi i32 [ %inc56.dup03742, %for.cond76.dup0 ]
  %call69.dup03813 = phi double* [ %call69.dup03741, %for.cond76.dup0 ]
  %m_fz.dup03814 = phi %"class.std::vector"* [ %m_fz.dup03746, %for.cond76.dup0 ]
  %m_letap.dup03815 = phi %"class.std::vector.0"* [ %m_letap.dup03747, %for.cond76.dup0 ]
  %m_vnew.dup03816 = phi %"class.std::vector"* [ %m_vnew.dup03766, %for.cond76.dup0 ]
  %m_volo.dup03817 = phi %"class.std::vector"* [ %m_volo.dup03731, %for.cond76.dup0 ]
  %inc73.dup03818 = phi i32 [ %inc73.dup03730, %for.cond76.dup0 ]
  %call62.dup03819 = phi i32* [ %call62.dup03729, %for.cond76.dup0 ]
  %call50.dup03820 = phi double* [ %call50.dup03728, %for.cond76.dup0 ]
  %inc39.dup03821 = phi i32 [ %inc39.dup03732, %for.cond76.dup0 ]
  %add.dup03822 = phi i32 [ %add.dup03733, %for.cond76.dup0 ]
  %m_letam.dup03823 = phi %"class.std::vector.0"* [ %m_letam.dup03784, %for.cond76.dup0 ]
  %m_xd.dup03824 = phi %"class.std::vector"* [ %m_xd.dup03734, %for.cond76.dup0 ]
  %call45.dup03825 = phi i32* [ %call45.dup03735, %for.cond76.dup0 ]
  %call52.dup03826 = phi double* [ %call52.dup03738, %for.cond76.dup0 ]
  %m_lxip.dup03827 = phi %"class.std::vector.0"* [ %m_lxip.dup03737, %for.cond76.dup0 ]
  %z_local.dup03828 = phi [8 x double]* [ %z_local.dup03740, %for.cond76.dup0 ]
  %call71.dup03829 = phi double* [ %call71.dup03739, %for.cond76.dup0 ]
  %m_ss.dup03830 = phi %"class.std::vector"* [ %m_ss.dup03779, %for.cond76.dup0 ]
  %call19.dup03831 = phi i32* [ %call19.dup03778, %for.cond76.dup0 ]
  %call25.dup03832 = phi double* [ %call25.dup03780, %for.cond76.dup0 ]
  %call23.dup03833 = phi double* [ %call23.dup03781, %for.cond76.dup0 ]
  %m_zdd.dup03834 = phi %"class.std::vector"* [ %m_zdd.dup03782, %for.cond76.dup0 ]
  %m_y.dup03835 = phi %"class.std::vector"* [ %m_y.dup03783, %for.cond76.dup0 ]
  %m_ydd.dup03836 = phi %"class.std::vector"* [ %m_ydd.dup03789, %for.cond76.dup0 ]
  %m_xdd.dup03837 = phi %"class.std::vector"* [ %m_xdd.dup03790, %for.cond76.dup0 ]
  %m_qq.dup03838 = phi %"class.std::vector"* [ %m_qq.dup03791, %for.cond76.dup0 ]
  %call37.dup03839 = phi double* [ %call37.dup03795, %for.cond76.dup0 ]
  %call6.dup03840 = phi i32* [ %call6.dup03796, %for.cond76.dup0 ]
  %call14.dup03841 = phi i32* [ %call14.dup03785, %for.cond76.dup0 ]
  %m_elemBC.dup03842 = phi %"class.std::vector.0"* [ %m_elemBC.dup03786, %for.cond76.dup0 ]
  %i.0.dup03843 = phi i32 [ %i.0.dup03792, %for.cond76.dup0 ]
  %i28.0.dup03844 = phi i32 [ %i28.0.dup03788, %for.cond76.dup0 ]
  %call11.dup03845 = phi i32* [ %call11.dup03787, %for.cond76.dup0 ]
  %y_local.dup03846 = phi [8 x double]* [ %y_local.dup03794, %for.cond76.dup0 ]
  %call32.dup03847 = phi i32* [ %call32.dup03793, %for.cond76.dup0 ]
  %m_lxim.dup03848 = phi %"class.std::vector.0"* [ %m_lxim.dup03773, %for.cond76.dup0 ]
  %m_vdov.dup03849 = phi %"class.std::vector"* [ %m_vdov.dup03777, %for.cond76.dup0 ]
  %m_symmX.dup03850 = phi %"class.std::vector.0"* [ %m_symmX.dup03776, %for.cond76.dup0 ]
  %i41.0.dup03851 = phi i32 [ %i41.0.dup03775, %for.cond76.dup0 ]
  %m_lzetap.dup03852 = phi %"class.std::vector.0"* [ %m_lzetap.dup03774, %for.cond76.dup0 ]
  %call.dup03853 = phi i32* [ %call.dup03772, %for.cond76.dup0 ]
  %m_zd.dup03854 = phi %"class.std::vector"* [ %m_zd.dup03771, %for.cond76.dup0 ]
  %m_ql.dup03855 = phi %"class.std::vector"* [ %m_ql.dup03765, %for.cond76.dup0 ]
  %call8.dup03856 = phi i8* [ %call8.dup03764, %for.cond76.dup0 ]
  %m_delv.dup03857 = phi %"class.std::vector"* [ %m_delv.dup03770, %for.cond76.dup0 ]
  %m_e.dup03858 = phi %"class.std::vector"* [ %m_e.dup03769, %for.cond76.dup0 ]
  %m_fx.dup03859 = phi %"class.std::vector"* [ %m_fx.dup03768, %for.cond76.dup0 ]
  %call27.dup03860 = phi double* [ %call27.dup03767, %for.cond76.dup0 ]
  %m_x.dup03861 = phi %"class.std::vector"* [ %m_x.dup03763, %for.cond76.dup0 ]
  %m_fy.dup03862 = phi %"class.std::vector"* [ %m_fy.dup03762, %for.cond76.dup0 ]
  %call21.dup03863 = phi double* [ %call21.dup03761, %for.cond76.dup0 ]
  %m_symmY.dup03864 = phi %"class.std::vector.0"* [ %m_symmY.dup03760, %for.cond76.dup0 ]
  %m_nodelist.dup03865 = phi %"class.std::vector.0"* [ %m_nodelist.dup03736, %for.cond76.dup0 ]
  %3 = load i32, i32* %call79.dup01553, align 4, !tbaa !35
  %cmp80.dup0 = icmp slt i32 %i75.0.dup01554, %3
  br i1 %cmp80.dup0, label %for.body82.dup0, label %for.cond.cleanup81.dup0

for.cond76.dup0:                                  ; preds = %for.inc85.dup0, %for.end74.dup0
  %i75.0.dup0 = phi i32 [ %inc86.dup0, %for.inc85.dup0 ], [ 0, %for.end74.dup0 ]
  %inc86.dup01438 = phi i32 [ undef, %for.end74.dup0 ], [ %inc86.dup0, %for.inc85.dup0 ]
  %call84.dup01537 = phi double* [ undef, %for.end74.dup0 ], [ %call84.dup01536, %for.inc85.dup0 ]
  %call50.dup03728 = phi double* [ %call50.dup03691, %for.end74.dup0 ], [ %call50.dup04006, %for.inc85.dup0 ]
  %call62.dup03729 = phi i32* [ %call62.dup03690, %for.end74.dup0 ], [ %call62.dup04005, %for.inc85.dup0 ]
  %inc73.dup03730 = phi i32 [ %inc73.dup03686, %for.end74.dup0 ], [ %inc73.dup04012, %for.inc85.dup0 ]
  %m_volo.dup03731 = phi %"class.std::vector"* [ %m_volo.dup03687, %for.end74.dup0 ], [ %m_volo.dup04013, %for.inc85.dup0 ]
  %inc39.dup03732 = phi i32 [ %inc39.dup03693, %for.end74.dup0 ], [ %inc39.dup04026, %for.inc85.dup0 ]
  %add.dup03733 = phi i32 [ %add.dup03692, %for.end74.dup0 ], [ %add.dup04025, %for.inc85.dup0 ]
  %m_xd.dup03734 = phi %"class.std::vector"* [ %m_xd.dup03685, %for.end74.dup0 ], [ %m_xd.dup04008, %for.inc85.dup0 ]
  %call45.dup03735 = phi i32* [ %call45.dup03684, %for.end74.dup0 ], [ %call45.dup04007, %for.inc85.dup0 ]
  %m_nodelist.dup03736 = phi %"class.std::vector.0"* [ %m_nodelist.dup03683, %for.end74.dup0 ], [ %m_nodelist.dup04045, %for.inc85.dup0 ]
  %m_lxip.dup03737 = phi %"class.std::vector.0"* [ %m_lxip.dup03682, %for.end74.dup0 ], [ %m_lxip.dup04009, %for.inc85.dup0 ]
  %call52.dup03738 = phi double* [ %call52.dup03681, %for.end74.dup0 ], [ %call52.dup04010, %for.inc85.dup0 ]
  %call71.dup03739 = phi double* [ %call71.dup03680, %for.end74.dup0 ], [ %call71.dup04036, %for.inc85.dup0 ]
  %z_local.dup03740 = phi [8 x double]* [ %z_local.dup03679, %for.end74.dup0 ], [ %z_local.dup04011, %for.inc85.dup0 ]
  %call69.dup03741 = phi double* [ %call69.dup03678, %for.end74.dup0 ], [ %call69.dup04004, %for.inc85.dup0 ]
  %inc56.dup03742 = phi i32 [ %inc56.dup03688, %for.end74.dup0 ], [ %inc56.dup04016, %for.inc85.dup0 ]
  %m_arealg.dup03743 = phi %"class.std::vector"* [ %m_arealg.dup03689, %for.end74.dup0 ], [ %m_arealg.dup04017, %for.inc85.dup0 ]
  %m_nodalMass.dup03744 = phi %"class.std::vector"* [ %m_nodalMass.dup03677, %for.end74.dup0 ], [ %m_nodalMass.dup04018, %for.inc85.dup0 ]
  %m_lzetam.dup03745 = phi %"class.std::vector.0"* [ %m_lzetam.dup03676, %for.end74.dup0 ], [ %m_lzetam.dup04019, %for.inc85.dup0 ]
  %m_fz.dup03746 = phi %"class.std::vector"* [ %m_fz.dup03661, %for.end74.dup0 ], [ %m_fz.dup04022, %for.inc85.dup0 ]
  %m_letap.dup03747 = phi %"class.std::vector.0"* [ %m_letap.dup03662, %for.end74.dup0 ], [ %m_letap.dup04023, %for.inc85.dup0 ]
  %inc.dup03748 = phi i32 [ %inc.dup03663, %for.end74.dup0 ], [ %inc.dup04024, %for.inc85.dup0 ]
  %m_v.dup03749 = phi %"class.std::vector"* [ %m_v.dup03672, %for.end74.dup0 ], [ %m_v.dup04029, %for.inc85.dup0 ]
  %call54.dup03750 = phi double* [ %call54.dup03673, %for.end74.dup0 ], [ %call54.dup04030, %for.inc85.dup0 ]
  %m_z.dup03751 = phi %"class.std::vector"* [ %m_z.dup03659, %for.end74.dup0 ], [ %m_z.dup04021, %for.inc85.dup0 ]
  %i58.0.dup03752 = phi i32 [ %i58.0.dup03660, %for.end74.dup0 ], [ %i58.0.dup04020, %for.inc85.dup0 ]
  %m_q.dup03753 = phi %"class.std::vector"* [ %m_q.dup03667, %for.end74.dup0 ], [ %m_q.dup04034, %for.inc85.dup0 ]
  %m_yd.dup03754 = phi %"class.std::vector"* [ %m_yd.dup03668, %for.end74.dup0 ], [ %m_yd.dup04032, %for.inc85.dup0 ]
  %call67.dup03755 = phi double* [ %call67.dup03670, %for.end74.dup0 ], [ %call67.dup04033, %for.inc85.dup0 ]
  %x_local.dup03756 = phi [8 x double]* [ %x_local.dup03669, %for.end74.dup0 ], [ %x_local.dup04031, %for.inc85.dup0 ]
  %m_symmZ.dup03757 = phi %"class.std::vector.0"* [ %m_symmZ.dup03694, %for.end74.dup0 ], [ %m_symmZ.dup04028, %for.inc85.dup0 ]
  %m_p.dup03758 = phi %"class.std::vector"* [ %m_p.dup03695, %for.end74.dup0 ], [ %m_p.dup04027, %for.inc85.dup0 ]
  %m_elemMass.dup03759 = phi %"class.std::vector"* [ %m_elemMass.dup03675, %for.end74.dup0 ], [ %m_elemMass.dup04035, %for.inc85.dup0 ]
  %m_symmY.dup03760 = phi %"class.std::vector.0"* [ %m_symmY.dup03674, %for.end74.dup0 ], [ %m_symmY.dup04044, %for.inc85.dup0 ]
  %call21.dup03761 = phi double* [ %call21.dup03713, %for.end74.dup0 ], [ %call21.dup04038, %for.inc85.dup0 ]
  %m_fy.dup03762 = phi %"class.std::vector"* [ %m_fy.dup03712, %for.end74.dup0 ], [ %m_fy.dup04039, %for.inc85.dup0 ]
  %m_x.dup03763 = phi %"class.std::vector"* [ %m_x.dup03714, %for.end74.dup0 ], [ %m_x.dup04037, %for.inc85.dup0 ]
  %call8.dup03764 = phi i8* [ %call8.dup03717, %for.end74.dup0 ], [ %call8.dup04040, %for.inc85.dup0 ]
  %m_ql.dup03765 = phi %"class.std::vector"* [ %m_ql.dup03718, %for.end74.dup0 ], [ %m_ql.dup04041, %for.inc85.dup0 ]
  %m_vnew.dup03766 = phi %"class.std::vector"* [ %m_vnew.dup03721, %for.end74.dup0 ], [ %m_vnew.dup04014, %for.inc85.dup0 ]
  %call27.dup03767 = phi double* [ %call27.dup03720, %for.end74.dup0 ], [ %call27.dup04048, %for.inc85.dup0 ]
  %m_fx.dup03768 = phi %"class.std::vector"* [ %m_fx.dup03719, %for.end74.dup0 ], [ %m_fx.dup04047, %for.inc85.dup0 ]
  %m_e.dup03769 = phi %"class.std::vector"* [ %m_e.dup03722, %for.end74.dup0 ], [ %m_e.dup04042, %for.inc85.dup0 ]
  %m_delv.dup03770 = phi %"class.std::vector"* [ %m_delv.dup03723, %for.end74.dup0 ], [ %m_delv.dup04043, %for.inc85.dup0 ]
  %m_zd.dup03771 = phi %"class.std::vector"* [ %m_zd.dup03716, %for.end74.dup0 ], [ %m_zd.dup04049, %for.inc85.dup0 ]
  %call.dup03772 = phi i32* [ %call.dup03715, %for.end74.dup0 ], [ %call.dup04050, %for.inc85.dup0 ]
  %m_lxim.dup03773 = phi %"class.std::vector.0"* [ %m_lxim.dup03703, %for.end74.dup0 ], [ %m_lxim.dup04046, %for.inc85.dup0 ]
  %m_lzetap.dup03774 = phi %"class.std::vector.0"* [ %m_lzetap.dup03726, %for.end74.dup0 ], [ %m_lzetap.dup04051, %for.inc85.dup0 ]
  %i41.0.dup03775 = phi i32 [ %i41.0.dup03727, %for.end74.dup0 ], [ %i41.0.dup04053, %for.inc85.dup0 ]
  %m_symmX.dup03776 = phi %"class.std::vector.0"* [ %m_symmX.dup03725, %for.end74.dup0 ], [ %m_symmX.dup04052, %for.inc85.dup0 ]
  %m_vdov.dup03777 = phi %"class.std::vector"* [ %m_vdov.dup03724, %for.end74.dup0 ], [ %m_vdov.dup04054, %for.inc85.dup0 ]
  %call19.dup03778 = phi i32* [ %call19.dup03711, %for.end74.dup0 ], [ %call19.dup04065, %for.inc85.dup0 ]
  %m_ss.dup03779 = phi %"class.std::vector"* [ %m_ss.dup03710, %for.end74.dup0 ], [ %m_ss.dup04064, %for.inc85.dup0 ]
  %call25.dup03780 = phi double* [ %call25.dup03709, %for.end74.dup0 ], [ %call25.dup04063, %for.inc85.dup0 ]
  %call23.dup03781 = phi double* [ %call23.dup03708, %for.end74.dup0 ], [ %call23.dup04062, %for.inc85.dup0 ]
  %m_zdd.dup03782 = phi %"class.std::vector"* [ %m_zdd.dup03699, %for.end74.dup0 ], [ %m_zdd.dup04061, %for.inc85.dup0 ]
  %m_y.dup03783 = phi %"class.std::vector"* [ %m_y.dup03707, %for.end74.dup0 ], [ %m_y.dup04057, %for.inc85.dup0 ]
  %m_letam.dup03784 = phi %"class.std::vector.0"* [ %m_letam.dup03704, %for.end74.dup0 ], [ %m_letam.dup04015, %for.inc85.dup0 ]
  %call14.dup03785 = phi i32* [ %call14.dup03706, %for.end74.dup0 ], [ %call14.dup04058, %for.inc85.dup0 ]
  %m_elemBC.dup03786 = phi %"class.std::vector.0"* [ %m_elemBC.dup03705, %for.end74.dup0 ], [ %m_elemBC.dup04059, %for.inc85.dup0 ]
  %call11.dup03787 = phi i32* [ %call11.dup03702, %for.end74.dup0 ], [ %call11.dup04071, %for.inc85.dup0 ]
  %i28.0.dup03788 = phi i32 [ %i28.0.dup03701, %for.end74.dup0 ], [ %i28.0.dup04072, %for.inc85.dup0 ]
  %m_ydd.dup03789 = phi %"class.std::vector"* [ %m_ydd.dup03700, %for.end74.dup0 ], [ %m_ydd.dup04060, %for.inc85.dup0 ]
  %m_xdd.dup03790 = phi %"class.std::vector"* [ %m_xdd.dup03698, %for.end74.dup0 ], [ %m_xdd.dup04066, %for.inc85.dup0 ]
  %m_qq.dup03791 = phi %"class.std::vector"* [ %m_qq.dup03697, %for.end74.dup0 ], [ %m_qq.dup04067, %for.inc85.dup0 ]
  %i.0.dup03792 = phi i32 [ %i.0.dup03696, %for.end74.dup0 ], [ %i.0.dup04070, %for.inc85.dup0 ]
  %call32.dup03793 = phi i32* [ %call32.dup03671, %for.end74.dup0 ], [ %call32.dup04055, %for.inc85.dup0 ]
  %y_local.dup03794 = phi [8 x double]* [ %y_local.dup03666, %for.end74.dup0 ], [ %y_local.dup04056, %for.inc85.dup0 ]
  %call37.dup03795 = phi double* [ %call37.dup03665, %for.end74.dup0 ], [ %call37.dup04068, %for.inc85.dup0 ]
  %call6.dup03796 = phi i32* [ %call6.dup03664, %for.end74.dup0 ], [ %call6.dup04069, %for.inc85.dup0 ]
  %call79.dup0 = invoke nonnull align 4 dereferenceable(4) i32* @_ZN6Domain7numNodeEv(%class.Domain* %this)
          to label %invoke.cont78.dup0 unwind label %lpad77.dup0

for.end74.dup0:                                   ; preds = %for.cond.cleanup64.dup0
  %m_z.dup03659 = phi %"class.std::vector"* [ %m_z.dup03026, %for.cond.cleanup64.dup0 ]
  %i58.0.dup03660 = phi i32 [ %i58.0.dup0115, %for.cond.cleanup64.dup0 ]
  %m_fz.dup03661 = phi %"class.std::vector"* [ %m_fz.dup03020, %for.cond.cleanup64.dup0 ]
  %m_letap.dup03662 = phi %"class.std::vector.0"* [ %m_letap.dup03019, %for.cond.cleanup64.dup0 ]
  %inc.dup03663 = phi i32 [ %inc.dup03015, %for.cond.cleanup64.dup0 ]
  %call6.dup03664 = phi i32* [ %call6.dup03014, %for.cond.cleanup64.dup0 ]
  %call37.dup03665 = phi double* [ %call37.dup03013, %for.cond.cleanup64.dup0 ]
  %y_local.dup03666 = phi [8 x double]* [ %y_local.dup03012, %for.cond.cleanup64.dup0 ]
  %m_q.dup03667 = phi %"class.std::vector"* [ %m_q.dup03016, %for.cond.cleanup64.dup0 ]
  %m_yd.dup03668 = phi %"class.std::vector"* [ %m_yd.dup03010, %for.cond.cleanup64.dup0 ]
  %x_local.dup03669 = phi [8 x double]* [ %x_local.dup03009, %for.cond.cleanup64.dup0 ]
  %call67.dup03670 = phi double* [ %call67.dup0585, %for.cond.cleanup64.dup0 ]
  %call32.dup03671 = phi i32* [ %call32.dup03011, %for.cond.cleanup64.dup0 ]
  %m_v.dup03672 = phi %"class.std::vector"* [ %m_v.dup03008, %for.cond.cleanup64.dup0 ]
  %call54.dup03673 = phi double* [ %call54.dup01251, %for.cond.cleanup64.dup0 ]
  %m_symmY.dup03674 = phi %"class.std::vector.0"* [ %m_symmY.dup03018, %for.cond.cleanup64.dup0 ]
  %m_elemMass.dup03675 = phi %"class.std::vector"* [ %m_elemMass.dup03017, %for.cond.cleanup64.dup0 ]
  %m_lzetam.dup03676 = phi %"class.std::vector.0"* [ %m_lzetam.dup03006, %for.cond.cleanup64.dup0 ]
  %m_nodalMass.dup03677 = phi %"class.std::vector"* [ %m_nodalMass.dup03007, %for.cond.cleanup64.dup0 ]
  %call69.dup03678 = phi double* [ %call69.dup0275, %for.cond.cleanup64.dup0 ]
  %z_local.dup03679 = phi [8 x double]* [ %z_local.dup03021, %for.cond.cleanup64.dup0 ]
  %call71.dup03680 = phi double* [ %call71.dup0264, %for.cond.cleanup64.dup0 ]
  %call52.dup03681 = phi double* [ %call52.dup01252, %for.cond.cleanup64.dup0 ]
  %m_lxip.dup03682 = phi %"class.std::vector.0"* [ %m_lxip.dup03022, %for.cond.cleanup64.dup0 ]
  %m_nodelist.dup03683 = phi %"class.std::vector.0"* [ %m_nodelist.dup03023, %for.cond.cleanup64.dup0 ]
  %call45.dup03684 = phi i32* [ %call45.dup01253, %for.cond.cleanup64.dup0 ]
  %m_xd.dup03685 = phi %"class.std::vector"* [ %m_xd.dup03024, %for.cond.cleanup64.dup0 ]
  %inc73.dup03686 = phi i32 [ %inc73.dup0114, %for.cond.cleanup64.dup0 ]
  %m_volo.dup03687 = phi %"class.std::vector"* [ %m_volo.dup03025, %for.cond.cleanup64.dup0 ]
  %inc56.dup03688 = phi i32 [ %inc56.dup01254, %for.cond.cleanup64.dup0 ]
  %m_arealg.dup03689 = phi %"class.std::vector"* [ %m_arealg.dup03059, %for.cond.cleanup64.dup0 ]
  %call62.dup03690 = phi i32* [ %call62.dup0116, %for.cond.cleanup64.dup0 ]
  %call50.dup03691 = phi double* [ %call50.dup01255, %for.cond.cleanup64.dup0 ]
  %add.dup03692 = phi i32 [ %add.dup03046, %for.cond.cleanup64.dup0 ]
  %inc39.dup03693 = phi i32 [ %inc39.dup03047, %for.cond.cleanup64.dup0 ]
  %m_symmZ.dup03694 = phi %"class.std::vector.0"* [ %m_symmZ.dup03044, %for.cond.cleanup64.dup0 ]
  %m_p.dup03695 = phi %"class.std::vector"* [ %m_p.dup03045, %for.cond.cleanup64.dup0 ]
  %i.0.dup03696 = phi i32 [ %i.0.dup03048, %for.cond.cleanup64.dup0 ]
  %m_qq.dup03697 = phi %"class.std::vector"* [ %m_qq.dup03049, %for.cond.cleanup64.dup0 ]
  %m_xdd.dup03698 = phi %"class.std::vector"* [ %m_xdd.dup03050, %for.cond.cleanup64.dup0 ]
  %m_zdd.dup03699 = phi %"class.std::vector"* [ %m_zdd.dup03043, %for.cond.cleanup64.dup0 ]
  %m_ydd.dup03700 = phi %"class.std::vector"* [ %m_ydd.dup03051, %for.cond.cleanup64.dup0 ]
  %i28.0.dup03701 = phi i32 [ %i28.0.dup03057, %for.cond.cleanup64.dup0 ]
  %call11.dup03702 = phi i32* [ %call11.dup03058, %for.cond.cleanup64.dup0 ]
  %m_lxim.dup03703 = phi %"class.std::vector.0"* [ %m_lxim.dup03056, %for.cond.cleanup64.dup0 ]
  %m_letam.dup03704 = phi %"class.std::vector.0"* [ %m_letam.dup03054, %for.cond.cleanup64.dup0 ]
  %m_elemBC.dup03705 = phi %"class.std::vector.0"* [ %m_elemBC.dup03052, %for.cond.cleanup64.dup0 ]
  %call14.dup03706 = phi i32* [ %call14.dup03053, %for.cond.cleanup64.dup0 ]
  %m_y.dup03707 = phi %"class.std::vector"* [ %m_y.dup03055, %for.cond.cleanup64.dup0 ]
  %call23.dup03708 = phi double* [ %call23.dup03042, %for.cond.cleanup64.dup0 ]
  %call25.dup03709 = phi double* [ %call25.dup03041, %for.cond.cleanup64.dup0 ]
  %m_ss.dup03710 = phi %"class.std::vector"* [ %m_ss.dup03037, %for.cond.cleanup64.dup0 ]
  %call19.dup03711 = phi i32* [ %call19.dup03036, %for.cond.cleanup64.dup0 ]
  %m_fy.dup03712 = phi %"class.std::vector"* [ %m_fy.dup03040, %for.cond.cleanup64.dup0 ]
  %call21.dup03713 = phi double* [ %call21.dup03039, %for.cond.cleanup64.dup0 ]
  %m_x.dup03714 = phi %"class.std::vector"* [ %m_x.dup03038, %for.cond.cleanup64.dup0 ]
  %call.dup03715 = phi i32* [ %call.dup03035, %for.cond.cleanup64.dup0 ]
  %m_zd.dup03716 = phi %"class.std::vector"* [ %m_zd.dup03034, %for.cond.cleanup64.dup0 ]
  %call8.dup03717 = phi i8* [ %call8.dup03033, %for.cond.cleanup64.dup0 ]
  %m_ql.dup03718 = phi %"class.std::vector"* [ %m_ql.dup03032, %for.cond.cleanup64.dup0 ]
  %m_fx.dup03719 = phi %"class.std::vector"* [ %m_fx.dup03031, %for.cond.cleanup64.dup0 ]
  %call27.dup03720 = phi double* [ %call27.dup03030, %for.cond.cleanup64.dup0 ]
  %m_vnew.dup03721 = phi %"class.std::vector"* [ %m_vnew.dup03029, %for.cond.cleanup64.dup0 ]
  %m_e.dup03722 = phi %"class.std::vector"* [ %m_e.dup03028, %for.cond.cleanup64.dup0 ]
  %m_delv.dup03723 = phi %"class.std::vector"* [ %m_delv.dup03027, %for.cond.cleanup64.dup0 ]
  %m_vdov.dup03724 = phi %"class.std::vector"* [ %m_vdov.dup03005, %for.cond.cleanup64.dup0 ]
  %m_symmX.dup03725 = phi %"class.std::vector.0"* [ %m_symmX.dup03004, %for.cond.cleanup64.dup0 ]
  %m_lzetap.dup03726 = phi %"class.std::vector.0"* [ %m_lzetap.dup03003, %for.cond.cleanup64.dup0 ]
  %i41.0.dup03727 = phi i32 [ %i41.0.dup01256, %for.cond.cleanup64.dup0 ]
  br label %for.cond76.dup0

for.cond.cleanup64.dup0:                          ; preds = %invoke.cont61.dup0
  %inc73.dup0114 = phi i32 [ %inc73.dup098, %invoke.cont61.dup0 ]
  %i58.0.dup0115 = phi i32 [ %i58.0.dup099, %invoke.cont61.dup0 ]
  %call62.dup0116 = phi i32* [ %call62.dup097, %invoke.cont61.dup0 ]
  %call71.dup0264 = phi double* [ %call71.dup0262, %invoke.cont61.dup0 ]
  %call69.dup0275 = phi double* [ %call69.dup0273, %invoke.cont61.dup0 ]
  %call67.dup0585 = phi double* [ %call67.dup0584, %invoke.cont61.dup0 ]
  %call54.dup01251 = phi double* [ %call54.dup01215, %invoke.cont61.dup0 ]
  %call52.dup01252 = phi double* [ %call52.dup01216, %invoke.cont61.dup0 ]
  %call45.dup01253 = phi i32* [ %call45.dup01217, %invoke.cont61.dup0 ]
  %inc56.dup01254 = phi i32 [ %inc56.dup01219, %invoke.cont61.dup0 ]
  %call50.dup01255 = phi double* [ %call50.dup01218, %invoke.cont61.dup0 ]
  %i41.0.dup01256 = phi i32 [ %i41.0.dup01220, %invoke.cont61.dup0 ]
  %m_lzetap.dup03003 = phi %"class.std::vector.0"* [ %m_lzetap.dup02684, %invoke.cont61.dup0 ]
  %m_symmX.dup03004 = phi %"class.std::vector.0"* [ %m_symmX.dup02682, %invoke.cont61.dup0 ]
  %m_vdov.dup03005 = phi %"class.std::vector"* [ %m_vdov.dup02683, %invoke.cont61.dup0 ]
  %m_lzetam.dup03006 = phi %"class.std::vector.0"* [ %m_lzetam.dup02672, %invoke.cont61.dup0 ]
  %m_nodalMass.dup03007 = phi %"class.std::vector"* [ %m_nodalMass.dup02673, %invoke.cont61.dup0 ]
  %m_v.dup03008 = phi %"class.std::vector"* [ %m_v.dup02671, %invoke.cont61.dup0 ]
  %x_local.dup03009 = phi [8 x double]* [ %x_local.dup02678, %invoke.cont61.dup0 ]
  %m_yd.dup03010 = phi %"class.std::vector"* [ %m_yd.dup02677, %invoke.cont61.dup0 ]
  %call32.dup03011 = phi i32* [ %call32.dup02670, %invoke.cont61.dup0 ]
  %y_local.dup03012 = phi [8 x double]* [ %y_local.dup02669, %invoke.cont61.dup0 ]
  %call37.dup03013 = phi double* [ %call37.dup02668, %invoke.cont61.dup0 ]
  %call6.dup03014 = phi i32* [ %call6.dup02667, %invoke.cont61.dup0 ]
  %inc.dup03015 = phi i32 [ %inc.dup02666, %invoke.cont61.dup0 ]
  %m_q.dup03016 = phi %"class.std::vector"* [ %m_q.dup02665, %invoke.cont61.dup0 ]
  %m_elemMass.dup03017 = phi %"class.std::vector"* [ %m_elemMass.dup02675, %invoke.cont61.dup0 ]
  %m_symmY.dup03018 = phi %"class.std::vector.0"* [ %m_symmY.dup02674, %invoke.cont61.dup0 ]
  %m_letap.dup03019 = phi %"class.std::vector.0"* [ %m_letap.dup02663, %invoke.cont61.dup0 ]
  %m_fz.dup03020 = phi %"class.std::vector"* [ %m_fz.dup02662, %invoke.cont61.dup0 ]
  %z_local.dup03021 = phi [8 x double]* [ %z_local.dup02676, %invoke.cont61.dup0 ]
  %m_lxip.dup03022 = phi %"class.std::vector.0"* [ %m_lxip.dup02679, %invoke.cont61.dup0 ]
  %m_nodelist.dup03023 = phi %"class.std::vector.0"* [ %m_nodelist.dup02680, %invoke.cont61.dup0 ]
  %m_xd.dup03024 = phi %"class.std::vector"* [ %m_xd.dup02664, %invoke.cont61.dup0 ]
  %m_volo.dup03025 = phi %"class.std::vector"* [ %m_volo.dup02681, %invoke.cont61.dup0 ]
  %m_z.dup03026 = phi %"class.std::vector"* [ %m_z.dup02711, %invoke.cont61.dup0 ]
  %m_delv.dup03027 = phi %"class.std::vector"* [ %m_delv.dup02701, %invoke.cont61.dup0 ]
  %m_e.dup03028 = phi %"class.std::vector"* [ %m_e.dup02700, %invoke.cont61.dup0 ]
  %m_vnew.dup03029 = phi %"class.std::vector"* [ %m_vnew.dup02704, %invoke.cont61.dup0 ]
  %call27.dup03030 = phi double* [ %call27.dup02702, %invoke.cont61.dup0 ]
  %m_fx.dup03031 = phi %"class.std::vector"* [ %m_fx.dup02703, %invoke.cont61.dup0 ]
  %m_ql.dup03032 = phi %"class.std::vector"* [ %m_ql.dup02706, %invoke.cont61.dup0 ]
  %call8.dup03033 = phi i8* [ %call8.dup02707, %invoke.cont61.dup0 ]
  %m_zd.dup03034 = phi %"class.std::vector"* [ %m_zd.dup02708, %invoke.cont61.dup0 ]
  %call.dup03035 = phi i32* [ %call.dup02709, %invoke.cont61.dup0 ]
  %call19.dup03036 = phi i32* [ %call19.dup02715, %invoke.cont61.dup0 ]
  %m_ss.dup03037 = phi %"class.std::vector"* [ %m_ss.dup02716, %invoke.cont61.dup0 ]
  %m_x.dup03038 = phi %"class.std::vector"* [ %m_x.dup02705, %invoke.cont61.dup0 ]
  %call21.dup03039 = phi double* [ %call21.dup02710, %invoke.cont61.dup0 ]
  %m_fy.dup03040 = phi %"class.std::vector"* [ %m_fy.dup02661, %invoke.cont61.dup0 ]
  %call25.dup03041 = phi double* [ %call25.dup02714, %invoke.cont61.dup0 ]
  %call23.dup03042 = phi double* [ %call23.dup02713, %invoke.cont61.dup0 ]
  %m_zdd.dup03043 = phi %"class.std::vector"* [ %m_zdd.dup02712, %invoke.cont61.dup0 ]
  %m_symmZ.dup03044 = phi %"class.std::vector.0"* [ %m_symmZ.dup02699, %invoke.cont61.dup0 ]
  %m_p.dup03045 = phi %"class.std::vector"* [ %m_p.dup02698, %invoke.cont61.dup0 ]
  %add.dup03046 = phi i32 [ %add.dup02693, %invoke.cont61.dup0 ]
  %inc39.dup03047 = phi i32 [ %inc39.dup02692, %invoke.cont61.dup0 ]
  %i.0.dup03048 = phi i32 [ %i.0.dup02697, %invoke.cont61.dup0 ]
  %m_qq.dup03049 = phi %"class.std::vector"* [ %m_qq.dup02696, %invoke.cont61.dup0 ]
  %m_xdd.dup03050 = phi %"class.std::vector"* [ %m_xdd.dup02695, %invoke.cont61.dup0 ]
  %m_ydd.dup03051 = phi %"class.std::vector"* [ %m_ydd.dup02694, %invoke.cont61.dup0 ]
  %m_elemBC.dup03052 = phi %"class.std::vector.0"* [ %m_elemBC.dup02691, %invoke.cont61.dup0 ]
  %call14.dup03053 = phi i32* [ %call14.dup02690, %invoke.cont61.dup0 ]
  %m_letam.dup03054 = phi %"class.std::vector.0"* [ %m_letam.dup02688, %invoke.cont61.dup0 ]
  %m_y.dup03055 = phi %"class.std::vector"* [ %m_y.dup02689, %invoke.cont61.dup0 ]
  %m_lxim.dup03056 = phi %"class.std::vector.0"* [ %m_lxim.dup02687, %invoke.cont61.dup0 ]
  %i28.0.dup03057 = phi i32 [ %i28.0.dup02686, %invoke.cont61.dup0 ]
  %call11.dup03058 = phi i32* [ %call11.dup02685, %invoke.cont61.dup0 ]
  %m_arealg.dup03059 = phi %"class.std::vector"* [ %m_arealg.dup02717, %invoke.cont61.dup0 ]
  br label %for.end74.dup0

invoke.cont61.dup0:                               ; preds = %for.cond59.dup0
  %call62.dup097 = phi i32* [ %call62.dup0, %for.cond59.dup0 ]
  %inc73.dup098 = phi i32 [ %inc73.dup087, %for.cond59.dup0 ]
  %i58.0.dup099 = phi i32 [ %i58.0.dup0, %for.cond59.dup0 ]
  %call71.dup0262 = phi double* [ %call71.dup0261, %for.cond59.dup0 ]
  %call69.dup0273 = phi double* [ %call69.dup0272, %for.cond59.dup0 ]
  %call67.dup0584 = phi double* [ %call67.dup0583, %for.cond59.dup0 ]
  %call54.dup01215 = phi double* [ %call54.dup01209, %for.cond59.dup0 ]
  %call52.dup01216 = phi double* [ %call52.dup01212, %for.cond59.dup0 ]
  %call45.dup01217 = phi i32* [ %call45.dup01213, %for.cond59.dup0 ]
  %call50.dup01218 = phi double* [ %call50.dup01211, %for.cond59.dup0 ]
  %inc56.dup01219 = phi i32 [ %inc56.dup01214, %for.cond59.dup0 ]
  %i41.0.dup01220 = phi i32 [ %i41.0.dup01210, %for.cond59.dup0 ]
  %m_fy.dup02661 = phi %"class.std::vector"* [ %m_fy.dup02627, %for.cond59.dup0 ]
  %m_fz.dup02662 = phi %"class.std::vector"* [ %m_fz.dup02625, %for.cond59.dup0 ]
  %m_letap.dup02663 = phi %"class.std::vector.0"* [ %m_letap.dup02624, %for.cond59.dup0 ]
  %m_xd.dup02664 = phi %"class.std::vector"* [ %m_xd.dup02621, %for.cond59.dup0 ]
  %m_q.dup02665 = phi %"class.std::vector"* [ %m_q.dup02619, %for.cond59.dup0 ]
  %inc.dup02666 = phi i32 [ %inc.dup02618, %for.cond59.dup0 ]
  %call6.dup02667 = phi i32* [ %call6.dup02617, %for.cond59.dup0 ]
  %call37.dup02668 = phi double* [ %call37.dup02616, %for.cond59.dup0 ]
  %y_local.dup02669 = phi [8 x double]* [ %y_local.dup02615, %for.cond59.dup0 ]
  %call32.dup02670 = phi i32* [ %call32.dup02613, %for.cond59.dup0 ]
  %m_v.dup02671 = phi %"class.std::vector"* [ %m_v.dup02612, %for.cond59.dup0 ]
  %m_lzetam.dup02672 = phi %"class.std::vector.0"* [ %m_lzetam.dup02610, %for.cond59.dup0 ]
  %m_nodalMass.dup02673 = phi %"class.std::vector"* [ %m_nodalMass.dup02611, %for.cond59.dup0 ]
  %m_symmY.dup02674 = phi %"class.std::vector.0"* [ %m_symmY.dup02623, %for.cond59.dup0 ]
  %m_elemMass.dup02675 = phi %"class.std::vector"* [ %m_elemMass.dup02622, %for.cond59.dup0 ]
  %z_local.dup02676 = phi [8 x double]* [ %z_local.dup02614, %for.cond59.dup0 ]
  %m_yd.dup02677 = phi %"class.std::vector"* [ %m_yd.dup02645, %for.cond59.dup0 ]
  %x_local.dup02678 = phi [8 x double]* [ %x_local.dup02646, %for.cond59.dup0 ]
  %m_lxip.dup02679 = phi %"class.std::vector.0"* [ %m_lxip.dup02620, %for.cond59.dup0 ]
  %m_nodelist.dup02680 = phi %"class.std::vector.0"* [ %m_nodelist.dup02626, %for.cond59.dup0 ]
  %m_volo.dup02681 = phi %"class.std::vector"* [ %m_volo.dup02609, %for.cond59.dup0 ]
  %m_symmX.dup02682 = phi %"class.std::vector.0"* [ %m_symmX.dup02658, %for.cond59.dup0 ]
  %m_vdov.dup02683 = phi %"class.std::vector"* [ %m_vdov.dup02659, %for.cond59.dup0 ]
  %m_lzetap.dup02684 = phi %"class.std::vector.0"* [ %m_lzetap.dup02660, %for.cond59.dup0 ]
  %call11.dup02685 = phi i32* [ %call11.dup02638, %for.cond59.dup0 ]
  %i28.0.dup02686 = phi i32 [ %i28.0.dup02637, %for.cond59.dup0 ]
  %m_lxim.dup02687 = phi %"class.std::vector.0"* [ %m_lxim.dup02639, %for.cond59.dup0 ]
  %m_letam.dup02688 = phi %"class.std::vector.0"* [ %m_letam.dup02640, %for.cond59.dup0 ]
  %m_y.dup02689 = phi %"class.std::vector"* [ %m_y.dup02641, %for.cond59.dup0 ]
  %call14.dup02690 = phi i32* [ %call14.dup02642, %for.cond59.dup0 ]
  %m_elemBC.dup02691 = phi %"class.std::vector.0"* [ %m_elemBC.dup02643, %for.cond59.dup0 ]
  %inc39.dup02692 = phi i32 [ %inc39.dup02647, %for.cond59.dup0 ]
  %add.dup02693 = phi i32 [ %add.dup02648, %for.cond59.dup0 ]
  %m_ydd.dup02694 = phi %"class.std::vector"* [ %m_ydd.dup02644, %for.cond59.dup0 ]
  %m_xdd.dup02695 = phi %"class.std::vector"* [ %m_xdd.dup02656, %for.cond59.dup0 ]
  %m_qq.dup02696 = phi %"class.std::vector"* [ %m_qq.dup02655, %for.cond59.dup0 ]
  %i.0.dup02697 = phi i32 [ %i.0.dup02654, %for.cond59.dup0 ]
  %m_p.dup02698 = phi %"class.std::vector"* [ %m_p.dup02649, %for.cond59.dup0 ]
  %m_symmZ.dup02699 = phi %"class.std::vector.0"* [ %m_symmZ.dup02650, %for.cond59.dup0 ]
  %m_e.dup02700 = phi %"class.std::vector"* [ %m_e.dup02653, %for.cond59.dup0 ]
  %m_delv.dup02701 = phi %"class.std::vector"* [ %m_delv.dup02651, %for.cond59.dup0 ]
  %call27.dup02702 = phi double* [ %call27.dup02636, %for.cond59.dup0 ]
  %m_fx.dup02703 = phi %"class.std::vector"* [ %m_fx.dup02635, %for.cond59.dup0 ]
  %m_vnew.dup02704 = phi %"class.std::vector"* [ %m_vnew.dup02634, %for.cond59.dup0 ]
  %m_x.dup02705 = phi %"class.std::vector"* [ %m_x.dup02633, %for.cond59.dup0 ]
  %m_ql.dup02706 = phi %"class.std::vector"* [ %m_ql.dup02632, %for.cond59.dup0 ]
  %call8.dup02707 = phi i8* [ %call8.dup02631, %for.cond59.dup0 ]
  %m_zd.dup02708 = phi %"class.std::vector"* [ %m_zd.dup02630, %for.cond59.dup0 ]
  %call.dup02709 = phi i32* [ %call.dup02629, %for.cond59.dup0 ]
  %call21.dup02710 = phi double* [ %call21.dup02628, %for.cond59.dup0 ]
  %m_z.dup02711 = phi %"class.std::vector"* [ %m_z.dup02652, %for.cond59.dup0 ]
  %m_zdd.dup02712 = phi %"class.std::vector"* [ %m_zdd.dup02608, %for.cond59.dup0 ]
  %call23.dup02713 = phi double* [ %call23.dup02606, %for.cond59.dup0 ]
  %call25.dup02714 = phi double* [ %call25.dup02605, %for.cond59.dup0 ]
  %call19.dup02715 = phi i32* [ %call19.dup02607, %for.cond59.dup0 ]
  %m_ss.dup02716 = phi %"class.std::vector"* [ %m_ss.dup02604, %for.cond59.dup0 ]
  %m_arealg.dup02717 = phi %"class.std::vector"* [ %m_arealg.dup02657, %for.cond59.dup0 ]
  %4 = load i32, i32* %call62.dup097, align 4, !tbaa !35
  %cmp63.dup0 = icmp slt i32 %i58.0.dup099, %4
  br i1 %cmp63.dup0, label %for.body65.dup0, label %for.cond.cleanup64.dup0

for.cond59.dup0:                                  ; preds = %for.inc72.dup0, %for.end57.dup0
  %i58.0.dup0 = phi i32 [ %inc73.dup0, %for.inc72.dup0 ], [ 0, %for.end57.dup0 ]
  %inc73.dup087 = phi i32 [ undef, %for.end57.dup0 ], [ %inc73.dup0, %for.inc72.dup0 ]
  %call71.dup0261 = phi double* [ undef, %for.end57.dup0 ], [ %call71.dup0260, %for.inc72.dup0 ]
  %call69.dup0272 = phi double* [ undef, %for.end57.dup0 ], [ %call69.dup0271, %for.inc72.dup0 ]
  %call67.dup0583 = phi double* [ undef, %for.end57.dup0 ], [ %call67.dup0580, %for.inc72.dup0 ]
  %call54.dup01209 = phi double* [ %call54.dup01207, %for.end57.dup0 ], [ %call54.dup01245, %for.inc72.dup0 ]
  %i41.0.dup01210 = phi i32 [ %i41.0.dup01206, %for.end57.dup0 ], [ %i41.0.dup01248, %for.inc72.dup0 ]
  %call50.dup01211 = phi double* [ %call50.dup01205, %for.end57.dup0 ], [ %call50.dup01247, %for.inc72.dup0 ]
  %call52.dup01212 = phi double* [ %call52.dup01208, %for.end57.dup0 ], [ %call52.dup01250, %for.inc72.dup0 ]
  %call45.dup01213 = phi i32* [ %call45.dup01203, %for.end57.dup0 ], [ %call45.dup01249, %for.inc72.dup0 ]
  %inc56.dup01214 = phi i32 [ %inc56.dup01204, %for.end57.dup0 ], [ %inc56.dup01246, %for.inc72.dup0 ]
  %m_ss.dup02604 = phi %"class.std::vector"* [ %m_ss.dup02575, %for.end57.dup0 ], [ %m_ss.dup02978, %for.inc72.dup0 ]
  %call25.dup02605 = phi double* [ %call25.dup02574, %for.end57.dup0 ], [ %call25.dup02982, %for.inc72.dup0 ]
  %call23.dup02606 = phi double* [ %call23.dup02573, %for.end57.dup0 ], [ %call23.dup02983, %for.inc72.dup0 ]
  %call19.dup02607 = phi i32* [ %call19.dup02572, %for.end57.dup0 ], [ %call19.dup02979, %for.inc72.dup0 ]
  %m_zdd.dup02608 = phi %"class.std::vector"* [ %m_zdd.dup02571, %for.end57.dup0 ], [ %m_zdd.dup02958, %for.inc72.dup0 ]
  %m_volo.dup02609 = phi %"class.std::vector"* [ %m_volo.dup02570, %for.end57.dup0 ], [ %m_volo.dup02957, %for.inc72.dup0 ]
  %m_lzetam.dup02610 = phi %"class.std::vector.0"* [ %m_lzetam.dup02567, %for.end57.dup0 ], [ %m_lzetam.dup02948, %for.inc72.dup0 ]
  %m_nodalMass.dup02611 = phi %"class.std::vector"* [ %m_nodalMass.dup02568, %for.end57.dup0 ], [ %m_nodalMass.dup02949, %for.inc72.dup0 ]
  %m_v.dup02612 = phi %"class.std::vector"* [ %m_v.dup02566, %for.end57.dup0 ], [ %m_v.dup02950, %for.inc72.dup0 ]
  %call32.dup02613 = phi i32* [ %call32.dup02564, %for.end57.dup0 ], [ %call32.dup02951, %for.inc72.dup0 ]
  %z_local.dup02614 = phi [8 x double]* [ %z_local.dup02563, %for.end57.dup0 ], [ %z_local.dup02965, %for.inc72.dup0 ]
  %y_local.dup02615 = phi [8 x double]* [ %y_local.dup02562, %for.end57.dup0 ], [ %y_local.dup02956, %for.inc72.dup0 ]
  %call37.dup02616 = phi double* [ %call37.dup02561, %for.end57.dup0 ], [ %call37.dup02999, %for.inc72.dup0 ]
  %call6.dup02617 = phi i32* [ %call6.dup02560, %for.end57.dup0 ], [ %call6.dup02998, %for.inc72.dup0 ]
  %inc.dup02618 = phi i32 [ %inc.dup02559, %for.end57.dup0 ], [ %inc.dup02984, %for.inc72.dup0 ]
  %m_q.dup02619 = phi %"class.std::vector"* [ %m_q.dup02558, %for.end57.dup0 ], [ %m_q.dup02955, %for.inc72.dup0 ]
  %m_lxip.dup02620 = phi %"class.std::vector.0"* [ %m_lxip.dup02569, %for.end57.dup0 ], [ %m_lxip.dup02967, %for.inc72.dup0 ]
  %m_xd.dup02621 = phi %"class.std::vector"* [ %m_xd.dup02557, %for.end57.dup0 ], [ %m_xd.dup02947, %for.inc72.dup0 ]
  %m_elemMass.dup02622 = phi %"class.std::vector"* [ %m_elemMass.dup02576, %for.end57.dup0 ], [ %m_elemMass.dup02963, %for.inc72.dup0 ]
  %m_symmY.dup02623 = phi %"class.std::vector.0"* [ %m_symmY.dup02565, %for.end57.dup0 ], [ %m_symmY.dup02964, %for.inc72.dup0 ]
  %m_letap.dup02624 = phi %"class.std::vector.0"* [ %m_letap.dup02552, %for.end57.dup0 ], [ %m_letap.dup02962, %for.inc72.dup0 ]
  %m_fz.dup02625 = phi %"class.std::vector"* [ %m_fz.dup02551, %for.end57.dup0 ], [ %m_fz.dup02961, %for.inc72.dup0 ]
  %m_nodelist.dup02626 = phi %"class.std::vector.0"* [ %m_nodelist.dup02590, %for.end57.dup0 ], [ %m_nodelist.dup02966, %for.inc72.dup0 ]
  %m_fy.dup02627 = phi %"class.std::vector"* [ %m_fy.dup02587, %for.end57.dup0 ], [ %m_fy.dup02981, %for.inc72.dup0 ]
  %call21.dup02628 = phi double* [ %call21.dup02588, %for.end57.dup0 ], [ %call21.dup02980, %for.inc72.dup0 ]
  %call.dup02629 = phi i32* [ %call.dup02591, %for.end57.dup0 ], [ %call.dup02991, %for.inc72.dup0 ]
  %m_zd.dup02630 = phi %"class.std::vector"* [ %m_zd.dup02592, %for.end57.dup0 ], [ %m_zd.dup02990, %for.inc72.dup0 ]
  %call8.dup02631 = phi i8* [ %call8.dup02593, %for.end57.dup0 ], [ %call8.dup02988, %for.inc72.dup0 ]
  %m_ql.dup02632 = phi %"class.std::vector"* [ %m_ql.dup02594, %for.end57.dup0 ], [ %m_ql.dup02989, %for.inc72.dup0 ]
  %m_x.dup02633 = phi %"class.std::vector"* [ %m_x.dup02595, %for.end57.dup0 ], [ %m_x.dup02977, %for.inc72.dup0 ]
  %m_vnew.dup02634 = phi %"class.std::vector"* [ %m_vnew.dup02596, %for.end57.dup0 ], [ %m_vnew.dup02973, %for.inc72.dup0 ]
  %m_fx.dup02635 = phi %"class.std::vector"* [ %m_fx.dup02548, %for.end57.dup0 ], [ %m_fx.dup02974, %for.inc72.dup0 ]
  %call27.dup02636 = phi double* [ %call27.dup02547, %for.end57.dup0 ], [ %call27.dup02972, %for.inc72.dup0 ]
  %i28.0.dup02637 = phi i32 [ %i28.0.dup02602, %for.end57.dup0 ], [ %i28.0.dup02993, %for.inc72.dup0 ]
  %call11.dup02638 = phi i32* [ %call11.dup02603, %for.end57.dup0 ], [ %call11.dup02994, %for.inc72.dup0 ]
  %m_lxim.dup02639 = phi %"class.std::vector.0"* [ %m_lxim.dup02589, %for.end57.dup0 ], [ %m_lxim.dup02995, %for.inc72.dup0 ]
  %m_letam.dup02640 = phi %"class.std::vector.0"* [ %m_letam.dup02600, %for.end57.dup0 ], [ %m_letam.dup02946, %for.inc72.dup0 ]
  %m_y.dup02641 = phi %"class.std::vector"* [ %m_y.dup02601, %for.end57.dup0 ], [ %m_y.dup02960, %for.inc72.dup0 ]
  %call14.dup02642 = phi i32* [ %call14.dup02599, %for.end57.dup0 ], [ %call14.dup02997, %for.inc72.dup0 ]
  %m_elemBC.dup02643 = phi %"class.std::vector.0"* [ %m_elemBC.dup02598, %for.end57.dup0 ], [ %m_elemBC.dup02996, %for.inc72.dup0 ]
  %m_ydd.dup02644 = phi %"class.std::vector"* [ %m_ydd.dup02586, %for.end57.dup0 ], [ %m_ydd.dup02987, %for.inc72.dup0 ]
  %m_yd.dup02645 = phi %"class.std::vector"* [ %m_yd.dup02585, %for.end57.dup0 ], [ %m_yd.dup02953, %for.inc72.dup0 ]
  %x_local.dup02646 = phi [8 x double]* [ %x_local.dup02584, %for.end57.dup0 ], [ %x_local.dup02952, %for.inc72.dup0 ]
  %inc39.dup02647 = phi i32 [ %inc39.dup02583, %for.end57.dup0 ], [ %inc39.dup02969, %for.inc72.dup0 ]
  %add.dup02648 = phi i32 [ %add.dup02582, %for.end57.dup0 ], [ %add.dup02968, %for.inc72.dup0 ]
  %m_p.dup02649 = phi %"class.std::vector"* [ %m_p.dup02581, %for.end57.dup0 ], [ %m_p.dup02970, %for.inc72.dup0 ]
  %m_symmZ.dup02650 = phi %"class.std::vector.0"* [ %m_symmZ.dup02580, %for.end57.dup0 ], [ %m_symmZ.dup02971, %for.inc72.dup0 ]
  %m_delv.dup02651 = phi %"class.std::vector"* [ %m_delv.dup02579, %for.end57.dup0 ], [ %m_delv.dup02976, %for.inc72.dup0 ]
  %m_z.dup02652 = phi %"class.std::vector"* [ %m_z.dup02578, %for.end57.dup0 ], [ %m_z.dup02959, %for.inc72.dup0 ]
  %m_e.dup02653 = phi %"class.std::vector"* [ %m_e.dup02577, %for.end57.dup0 ], [ %m_e.dup02975, %for.inc72.dup0 ]
  %i.0.dup02654 = phi i32 [ %i.0.dup02553, %for.end57.dup0 ], [ %i.0.dup02992, %for.inc72.dup0 ]
  %m_qq.dup02655 = phi %"class.std::vector"* [ %m_qq.dup02549, %for.end57.dup0 ], [ %m_qq.dup02985, %for.inc72.dup0 ]
  %m_xdd.dup02656 = phi %"class.std::vector"* [ %m_xdd.dup02550, %for.end57.dup0 ], [ %m_xdd.dup02986, %for.inc72.dup0 ]
  %m_arealg.dup02657 = phi %"class.std::vector"* [ %m_arealg.dup02597, %for.end57.dup0 ], [ %m_arealg.dup02954, %for.inc72.dup0 ]
  %m_symmX.dup02658 = phi %"class.std::vector.0"* [ %m_symmX.dup02554, %for.end57.dup0 ], [ %m_symmX.dup03001, %for.inc72.dup0 ]
  %m_vdov.dup02659 = phi %"class.std::vector"* [ %m_vdov.dup02556, %for.end57.dup0 ], [ %m_vdov.dup03000, %for.inc72.dup0 ]
  %m_lzetap.dup02660 = phi %"class.std::vector.0"* [ %m_lzetap.dup02555, %for.end57.dup0 ], [ %m_lzetap.dup03002, %for.inc72.dup0 ]
  %call62.dup0 = invoke nonnull align 4 dereferenceable(4) i32* @_ZN6Domain7numNodeEv(%class.Domain* %this)
          to label %invoke.cont61.dup0 unwind label %lpad60.dup0

for.end57.dup0:                                   ; preds = %for.cond.cleanup47.dup0
  %call45.dup01203 = phi i32* [ %call45.dup01198, %for.cond.cleanup47.dup0 ]
  %inc56.dup01204 = phi i32 [ %inc56.dup01197, %for.cond.cleanup47.dup0 ]
  %call50.dup01205 = phi double* [ %call50.dup01199, %for.cond.cleanup47.dup0 ]
  %i41.0.dup01206 = phi i32 [ %i41.0.dup01200, %for.cond.cleanup47.dup0 ]
  %call54.dup01207 = phi double* [ %call54.dup01202, %for.cond.cleanup47.dup0 ]
  %call52.dup01208 = phi double* [ %call52.dup01201, %for.cond.cleanup47.dup0 ]
  %call27.dup02547 = phi double* [ %call27.dup02519, %for.cond.cleanup47.dup0 ]
  %m_fx.dup02548 = phi %"class.std::vector"* [ %m_fx.dup02518, %for.cond.cleanup47.dup0 ]
  %m_qq.dup02549 = phi %"class.std::vector"* [ %m_qq.dup02517, %for.cond.cleanup47.dup0 ]
  %m_xdd.dup02550 = phi %"class.std::vector"* [ %m_xdd.dup02516, %for.cond.cleanup47.dup0 ]
  %m_fz.dup02551 = phi %"class.std::vector"* [ %m_fz.dup02514, %for.cond.cleanup47.dup0 ]
  %m_letap.dup02552 = phi %"class.std::vector.0"* [ %m_letap.dup02515, %for.cond.cleanup47.dup0 ]
  %i.0.dup02553 = phi i32 [ %i.0.dup02513, %for.cond.cleanup47.dup0 ]
  %m_symmX.dup02554 = phi %"class.std::vector.0"* [ %m_symmX.dup02510, %for.cond.cleanup47.dup0 ]
  %m_lzetap.dup02555 = phi %"class.std::vector.0"* [ %m_lzetap.dup02509, %for.cond.cleanup47.dup0 ]
  %m_vdov.dup02556 = phi %"class.std::vector"* [ %m_vdov.dup02511, %for.cond.cleanup47.dup0 ]
  %m_xd.dup02557 = phi %"class.std::vector"* [ %m_xd.dup02508, %for.cond.cleanup47.dup0 ]
  %m_q.dup02558 = phi %"class.std::vector"* [ %m_q.dup02506, %for.cond.cleanup47.dup0 ]
  %inc.dup02559 = phi i32 [ %inc.dup02505, %for.cond.cleanup47.dup0 ]
  %call6.dup02560 = phi i32* [ %call6.dup02504, %for.cond.cleanup47.dup0 ]
  %call37.dup02561 = phi double* [ %call37.dup02503, %for.cond.cleanup47.dup0 ]
  %y_local.dup02562 = phi [8 x double]* [ %y_local.dup02502, %for.cond.cleanup47.dup0 ]
  %z_local.dup02563 = phi [8 x double]* [ %z_local.dup02501, %for.cond.cleanup47.dup0 ]
  %call32.dup02564 = phi i32* [ %call32.dup02500, %for.cond.cleanup47.dup0 ]
  %m_symmY.dup02565 = phi %"class.std::vector.0"* [ %m_symmY.dup02512, %for.cond.cleanup47.dup0 ]
  %m_v.dup02566 = phi %"class.std::vector"* [ %m_v.dup02499, %for.cond.cleanup47.dup0 ]
  %m_lzetam.dup02567 = phi %"class.std::vector.0"* [ %m_lzetam.dup02497, %for.cond.cleanup47.dup0 ]
  %m_nodalMass.dup02568 = phi %"class.std::vector"* [ %m_nodalMass.dup02498, %for.cond.cleanup47.dup0 ]
  %m_lxip.dup02569 = phi %"class.std::vector.0"* [ %m_lxip.dup02507, %for.cond.cleanup47.dup0 ]
  %m_volo.dup02570 = phi %"class.std::vector"* [ %m_volo.dup02535, %for.cond.cleanup47.dup0 ]
  %m_zdd.dup02571 = phi %"class.std::vector"* [ %m_zdd.dup02536, %for.cond.cleanup47.dup0 ]
  %call19.dup02572 = phi i32* [ %call19.dup02539, %for.cond.cleanup47.dup0 ]
  %call23.dup02573 = phi double* [ %call23.dup02537, %for.cond.cleanup47.dup0 ]
  %call25.dup02574 = phi double* [ %call25.dup02538, %for.cond.cleanup47.dup0 ]
  %m_ss.dup02575 = phi %"class.std::vector"* [ %m_ss.dup02540, %for.cond.cleanup47.dup0 ]
  %m_elemMass.dup02576 = phi %"class.std::vector"* [ %m_elemMass.dup02546, %for.cond.cleanup47.dup0 ]
  %m_e.dup02577 = phi %"class.std::vector"* [ %m_e.dup02533, %for.cond.cleanup47.dup0 ]
  %m_z.dup02578 = phi %"class.std::vector"* [ %m_z.dup02534, %for.cond.cleanup47.dup0 ]
  %m_delv.dup02579 = phi %"class.std::vector"* [ %m_delv.dup02490, %for.cond.cleanup47.dup0 ]
  %m_symmZ.dup02580 = phi %"class.std::vector.0"* [ %m_symmZ.dup02545, %for.cond.cleanup47.dup0 ]
  %m_p.dup02581 = phi %"class.std::vector"* [ %m_p.dup02544, %for.cond.cleanup47.dup0 ]
  %add.dup02582 = phi i32 [ %add.dup02527, %for.cond.cleanup47.dup0 ]
  %inc39.dup02583 = phi i32 [ %inc39.dup02526, %for.cond.cleanup47.dup0 ]
  %x_local.dup02584 = phi [8 x double]* [ %x_local.dup02531, %for.cond.cleanup47.dup0 ]
  %m_yd.dup02585 = phi %"class.std::vector"* [ %m_yd.dup02530, %for.cond.cleanup47.dup0 ]
  %m_ydd.dup02586 = phi %"class.std::vector"* [ %m_ydd.dup02532, %for.cond.cleanup47.dup0 ]
  %m_fy.dup02587 = phi %"class.std::vector"* [ %m_fy.dup02542, %for.cond.cleanup47.dup0 ]
  %call21.dup02588 = phi double* [ %call21.dup02541, %for.cond.cleanup47.dup0 ]
  %m_lxim.dup02589 = phi %"class.std::vector.0"* [ %m_lxim.dup02529, %for.cond.cleanup47.dup0 ]
  %m_nodelist.dup02590 = phi %"class.std::vector.0"* [ %m_nodelist.dup02528, %for.cond.cleanup47.dup0 ]
  %call.dup02591 = phi i32* [ %call.dup02525, %for.cond.cleanup47.dup0 ]
  %m_zd.dup02592 = phi %"class.std::vector"* [ %m_zd.dup02524, %for.cond.cleanup47.dup0 ]
  %call8.dup02593 = phi i8* [ %call8.dup02522, %for.cond.cleanup47.dup0 ]
  %m_ql.dup02594 = phi %"class.std::vector"* [ %m_ql.dup02521, %for.cond.cleanup47.dup0 ]
  %m_x.dup02595 = phi %"class.std::vector"* [ %m_x.dup02523, %for.cond.cleanup47.dup0 ]
  %m_vnew.dup02596 = phi %"class.std::vector"* [ %m_vnew.dup02520, %for.cond.cleanup47.dup0 ]
  %m_arealg.dup02597 = phi %"class.std::vector"* [ %m_arealg.dup02543, %for.cond.cleanup47.dup0 ]
  %m_elemBC.dup02598 = phi %"class.std::vector.0"* [ %m_elemBC.dup02496, %for.cond.cleanup47.dup0 ]
  %call14.dup02599 = phi i32* [ %call14.dup02495, %for.cond.cleanup47.dup0 ]
  %m_letam.dup02600 = phi %"class.std::vector.0"* [ %m_letam.dup02494, %for.cond.cleanup47.dup0 ]
  %m_y.dup02601 = phi %"class.std::vector"* [ %m_y.dup02493, %for.cond.cleanup47.dup0 ]
  %i28.0.dup02602 = phi i32 [ %i28.0.dup02492, %for.cond.cleanup47.dup0 ]
  %call11.dup02603 = phi i32* [ %call11.dup02491, %for.cond.cleanup47.dup0 ]
  br label %for.cond59.dup0

for.cond.cleanup47.dup0:                          ; preds = %invoke.cont44.dup0
  %inc56.dup01197 = phi i32 [ %inc56.dup01192, %invoke.cont44.dup0 ]
  %call45.dup01198 = phi i32* [ %call45.dup01191, %invoke.cont44.dup0 ]
  %call50.dup01199 = phi double* [ %call50.dup01193, %invoke.cont44.dup0 ]
  %i41.0.dup01200 = phi i32 [ %i41.0.dup01194, %invoke.cont44.dup0 ]
  %call52.dup01201 = phi double* [ %call52.dup01196, %invoke.cont44.dup0 ]
  %call54.dup01202 = phi double* [ %call54.dup01195, %invoke.cont44.dup0 ]
  %m_delv.dup02490 = phi %"class.std::vector"* [ %m_delv.dup02177, %invoke.cont44.dup0 ]
  %call11.dup02491 = phi i32* [ %call11.dup02176, %invoke.cont44.dup0 ]
  %i28.0.dup02492 = phi i32 [ %i28.0.dup02175, %invoke.cont44.dup0 ]
  %m_y.dup02493 = phi %"class.std::vector"* [ %m_y.dup02174, %invoke.cont44.dup0 ]
  %m_letam.dup02494 = phi %"class.std::vector.0"* [ %m_letam.dup02173, %invoke.cont44.dup0 ]
  %call14.dup02495 = phi i32* [ %call14.dup02172, %invoke.cont44.dup0 ]
  %m_elemBC.dup02496 = phi %"class.std::vector.0"* [ %m_elemBC.dup02171, %invoke.cont44.dup0 ]
  %m_lzetam.dup02497 = phi %"class.std::vector.0"* [ %m_lzetam.dup02168, %invoke.cont44.dup0 ]
  %m_nodalMass.dup02498 = phi %"class.std::vector"* [ %m_nodalMass.dup02169, %invoke.cont44.dup0 ]
  %m_v.dup02499 = phi %"class.std::vector"* [ %m_v.dup02167, %invoke.cont44.dup0 ]
  %call32.dup02500 = phi i32* [ %call32.dup02164, %invoke.cont44.dup0 ]
  %z_local.dup02501 = phi [8 x double]* [ %z_local.dup02163, %invoke.cont44.dup0 ]
  %y_local.dup02502 = phi [8 x double]* [ %y_local.dup02162, %invoke.cont44.dup0 ]
  %call37.dup02503 = phi double* [ %call37.dup02161, %invoke.cont44.dup0 ]
  %call6.dup02504 = phi i32* [ %call6.dup02160, %invoke.cont44.dup0 ]
  %inc.dup02505 = phi i32 [ %inc.dup02159, %invoke.cont44.dup0 ]
  %m_q.dup02506 = phi %"class.std::vector"* [ %m_q.dup02158, %invoke.cont44.dup0 ]
  %m_lxip.dup02507 = phi %"class.std::vector.0"* [ %m_lxip.dup02170, %invoke.cont44.dup0 ]
  %m_xd.dup02508 = phi %"class.std::vector"* [ %m_xd.dup02202, %invoke.cont44.dup0 ]
  %m_lzetap.dup02509 = phi %"class.std::vector.0"* [ %m_lzetap.dup02189, %invoke.cont44.dup0 ]
  %m_symmX.dup02510 = phi %"class.std::vector.0"* [ %m_symmX.dup02190, %invoke.cont44.dup0 ]
  %m_vdov.dup02511 = phi %"class.std::vector"* [ %m_vdov.dup02191, %invoke.cont44.dup0 ]
  %m_symmY.dup02512 = phi %"class.std::vector.0"* [ %m_symmY.dup02166, %invoke.cont44.dup0 ]
  %i.0.dup02513 = phi i32 [ %i.0.dup02184, %invoke.cont44.dup0 ]
  %m_fz.dup02514 = phi %"class.std::vector"* [ %m_fz.dup02186, %invoke.cont44.dup0 ]
  %m_letap.dup02515 = phi %"class.std::vector.0"* [ %m_letap.dup02185, %invoke.cont44.dup0 ]
  %m_xdd.dup02516 = phi %"class.std::vector"* [ %m_xdd.dup02193, %invoke.cont44.dup0 ]
  %m_qq.dup02517 = phi %"class.std::vector"* [ %m_qq.dup02192, %invoke.cont44.dup0 ]
  %m_fx.dup02518 = phi %"class.std::vector"* [ %m_fx.dup02194, %invoke.cont44.dup0 ]
  %call27.dup02519 = phi double* [ %call27.dup02196, %invoke.cont44.dup0 ]
  %m_vnew.dup02520 = phi %"class.std::vector"* [ %m_vnew.dup02195, %invoke.cont44.dup0 ]
  %m_ql.dup02521 = phi %"class.std::vector"* [ %m_ql.dup02198, %invoke.cont44.dup0 ]
  %call8.dup02522 = phi i8* [ %call8.dup02197, %invoke.cont44.dup0 ]
  %m_x.dup02523 = phi %"class.std::vector"* [ %m_x.dup02200, %invoke.cont44.dup0 ]
  %m_zd.dup02524 = phi %"class.std::vector"* [ %m_zd.dup02203, %invoke.cont44.dup0 ]
  %call.dup02525 = phi i32* [ %call.dup02204, %invoke.cont44.dup0 ]
  %inc39.dup02526 = phi i32 [ %inc39.dup02187, %invoke.cont44.dup0 ]
  %add.dup02527 = phi i32 [ %add.dup02188, %invoke.cont44.dup0 ]
  %m_nodelist.dup02528 = phi %"class.std::vector.0"* [ %m_nodelist.dup02201, %invoke.cont44.dup0 ]
  %m_lxim.dup02529 = phi %"class.std::vector.0"* [ %m_lxim.dup02183, %invoke.cont44.dup0 ]
  %m_yd.dup02530 = phi %"class.std::vector"* [ %m_yd.dup02182, %invoke.cont44.dup0 ]
  %x_local.dup02531 = phi [8 x double]* [ %x_local.dup02181, %invoke.cont44.dup0 ]
  %m_ydd.dup02532 = phi %"class.std::vector"* [ %m_ydd.dup02180, %invoke.cont44.dup0 ]
  %m_e.dup02533 = phi %"class.std::vector"* [ %m_e.dup02179, %invoke.cont44.dup0 ]
  %m_z.dup02534 = phi %"class.std::vector"* [ %m_z.dup02178, %invoke.cont44.dup0 ]
  %m_volo.dup02535 = phi %"class.std::vector"* [ %m_volo.dup02155, %invoke.cont44.dup0 ]
  %m_zdd.dup02536 = phi %"class.std::vector"* [ %m_zdd.dup02154, %invoke.cont44.dup0 ]
  %call23.dup02537 = phi double* [ %call23.dup02153, %invoke.cont44.dup0 ]
  %call25.dup02538 = phi double* [ %call25.dup02152, %invoke.cont44.dup0 ]
  %call19.dup02539 = phi i32* [ %call19.dup02150, %invoke.cont44.dup0 ]
  %m_ss.dup02540 = phi %"class.std::vector"* [ %m_ss.dup02151, %invoke.cont44.dup0 ]
  %call21.dup02541 = phi double* [ %call21.dup02149, %invoke.cont44.dup0 ]
  %m_fy.dup02542 = phi %"class.std::vector"* [ %m_fy.dup02148, %invoke.cont44.dup0 ]
  %m_arealg.dup02543 = phi %"class.std::vector"* [ %m_arealg.dup02199, %invoke.cont44.dup0 ]
  %m_p.dup02544 = phi %"class.std::vector"* [ %m_p.dup02156, %invoke.cont44.dup0 ]
  %m_symmZ.dup02545 = phi %"class.std::vector.0"* [ %m_symmZ.dup02157, %invoke.cont44.dup0 ]
  %m_elemMass.dup02546 = phi %"class.std::vector"* [ %m_elemMass.dup02165, %invoke.cont44.dup0 ]
  br label %for.end57.dup0

invoke.cont44.dup0:                               ; preds = %for.cond42.dup0
  %call45.dup01191 = phi i32* [ %call45.dup0, %for.cond42.dup0 ]
  %inc56.dup01192 = phi i32 [ %inc56.dup0561, %for.cond42.dup0 ]
  %call50.dup01193 = phi double* [ %call50.dup01157, %for.cond42.dup0 ]
  %i41.0.dup01194 = phi i32 [ %i41.0.dup0, %for.cond42.dup0 ]
  %call54.dup01195 = phi double* [ %call54.dup01159, %for.cond42.dup0 ]
  %call52.dup01196 = phi double* [ %call52.dup01158, %for.cond42.dup0 ]
  %m_fy.dup02148 = phi %"class.std::vector"* [ %m_fy.dup02120, %for.cond42.dup0 ]
  %call21.dup02149 = phi double* [ %call21.dup02119, %for.cond42.dup0 ]
  %call19.dup02150 = phi i32* [ %call19.dup02118, %for.cond42.dup0 ]
  %m_ss.dup02151 = phi %"class.std::vector"* [ %m_ss.dup02117, %for.cond42.dup0 ]
  %call25.dup02152 = phi double* [ %call25.dup02116, %for.cond42.dup0 ]
  %call23.dup02153 = phi double* [ %call23.dup02115, %for.cond42.dup0 ]
  %m_zdd.dup02154 = phi %"class.std::vector"* [ %m_zdd.dup02114, %for.cond42.dup0 ]
  %m_volo.dup02155 = phi %"class.std::vector"* [ %m_volo.dup02113, %for.cond42.dup0 ]
  %m_p.dup02156 = phi %"class.std::vector"* [ %m_p.dup02109, %for.cond42.dup0 ]
  %m_symmZ.dup02157 = phi %"class.std::vector.0"* [ %m_symmZ.dup02110, %for.cond42.dup0 ]
  %m_q.dup02158 = phi %"class.std::vector"* [ %m_q.dup02108, %for.cond42.dup0 ]
  %inc.dup02159 = phi i32 [ %inc.dup02107, %for.cond42.dup0 ]
  %call6.dup02160 = phi i32* [ %call6.dup02106, %for.cond42.dup0 ]
  %call37.dup02161 = phi double* [ %call37.dup02105, %for.cond42.dup0 ]
  %y_local.dup02162 = phi [8 x double]* [ %y_local.dup02104, %for.cond42.dup0 ]
  %z_local.dup02163 = phi [8 x double]* [ %z_local.dup02103, %for.cond42.dup0 ]
  %call32.dup02164 = phi i32* [ %call32.dup02102, %for.cond42.dup0 ]
  %m_elemMass.dup02165 = phi %"class.std::vector"* [ %m_elemMass.dup02112, %for.cond42.dup0 ]
  %m_symmY.dup02166 = phi %"class.std::vector.0"* [ %m_symmY.dup02111, %for.cond42.dup0 ]
  %m_v.dup02167 = phi %"class.std::vector"* [ %m_v.dup02132, %for.cond42.dup0 ]
  %m_lzetam.dup02168 = phi %"class.std::vector.0"* [ %m_lzetam.dup02092, %for.cond42.dup0 ]
  %m_nodalMass.dup02169 = phi %"class.std::vector"* [ %m_nodalMass.dup02093, %for.cond42.dup0 ]
  %m_lxip.dup02170 = phi %"class.std::vector.0"* [ %m_lxip.dup02128, %for.cond42.dup0 ]
  %m_elemBC.dup02171 = phi %"class.std::vector.0"* [ %m_elemBC.dup02133, %for.cond42.dup0 ]
  %call14.dup02172 = phi i32* [ %call14.dup02134, %for.cond42.dup0 ]
  %m_letam.dup02173 = phi %"class.std::vector.0"* [ %m_letam.dup02135, %for.cond42.dup0 ]
  %m_y.dup02174 = phi %"class.std::vector"* [ %m_y.dup02138, %for.cond42.dup0 ]
  %i28.0.dup02175 = phi i32 [ %i28.0.dup02139, %for.cond42.dup0 ]
  %call11.dup02176 = phi i32* [ %call11.dup02140, %for.cond42.dup0 ]
  %m_delv.dup02177 = phi %"class.std::vector"* [ %m_delv.dup02146, %for.cond42.dup0 ]
  %m_z.dup02178 = phi %"class.std::vector"* [ %m_z.dup02145, %for.cond42.dup0 ]
  %m_e.dup02179 = phi %"class.std::vector"* [ %m_e.dup02147, %for.cond42.dup0 ]
  %m_ydd.dup02180 = phi %"class.std::vector"* [ %m_ydd.dup02131, %for.cond42.dup0 ]
  %x_local.dup02181 = phi [8 x double]* [ %x_local.dup02137, %for.cond42.dup0 ]
  %m_yd.dup02182 = phi %"class.std::vector"* [ %m_yd.dup02136, %for.cond42.dup0 ]
  %m_lxim.dup02183 = phi %"class.std::vector.0"* [ %m_lxim.dup02144, %for.cond42.dup0 ]
  %i.0.dup02184 = phi i32 [ %i.0.dup02143, %for.cond42.dup0 ]
  %m_letap.dup02185 = phi %"class.std::vector.0"* [ %m_letap.dup02141, %for.cond42.dup0 ]
  %m_fz.dup02186 = phi %"class.std::vector"* [ %m_fz.dup02142, %for.cond42.dup0 ]
  %inc39.dup02187 = phi i32 [ %inc39.dup02124, %for.cond42.dup0 ]
  %add.dup02188 = phi i32 [ %add.dup02123, %for.cond42.dup0 ]
  %m_lzetap.dup02189 = phi %"class.std::vector.0"* [ %m_lzetap.dup02125, %for.cond42.dup0 ]
  %m_symmX.dup02190 = phi %"class.std::vector.0"* [ %m_symmX.dup02127, %for.cond42.dup0 ]
  %m_vdov.dup02191 = phi %"class.std::vector"* [ %m_vdov.dup02126, %for.cond42.dup0 ]
  %m_qq.dup02192 = phi %"class.std::vector"* [ %m_qq.dup02122, %for.cond42.dup0 ]
  %m_xdd.dup02193 = phi %"class.std::vector"* [ %m_xdd.dup02121, %for.cond42.dup0 ]
  %m_fx.dup02194 = phi %"class.std::vector"* [ %m_fx.dup02100, %for.cond42.dup0 ]
  %m_vnew.dup02195 = phi %"class.std::vector"* [ %m_vnew.dup02099, %for.cond42.dup0 ]
  %call27.dup02196 = phi double* [ %call27.dup02101, %for.cond42.dup0 ]
  %call8.dup02197 = phi i8* [ %call8.dup02096, %for.cond42.dup0 ]
  %m_ql.dup02198 = phi %"class.std::vector"* [ %m_ql.dup02095, %for.cond42.dup0 ]
  %m_arealg.dup02199 = phi %"class.std::vector"* [ %m_arealg.dup02130, %for.cond42.dup0 ]
  %m_x.dup02200 = phi %"class.std::vector"* [ %m_x.dup02091, %for.cond42.dup0 ]
  %m_nodelist.dup02201 = phi %"class.std::vector.0"* [ %m_nodelist.dup02094, %for.cond42.dup0 ]
  %m_xd.dup02202 = phi %"class.std::vector"* [ %m_xd.dup02129, %for.cond42.dup0 ]
  %m_zd.dup02203 = phi %"class.std::vector"* [ %m_zd.dup02097, %for.cond42.dup0 ]
  %call.dup02204 = phi i32* [ %call.dup02098, %for.cond42.dup0 ]
  %5 = load i32, i32* %call45.dup01191, align 4, !tbaa !35
  %cmp46.dup0 = icmp slt i32 %i41.0.dup01194, %5
  br i1 %cmp46.dup0, label %for.body48.dup0, label %for.cond.cleanup47.dup0

for.cond42.dup0:                                  ; preds = %for.end40.dup0, %for.inc55.dup0
  %i41.0.dup0 = phi i32 [ 0, %for.end40.dup0 ], [ %inc56.dup0, %for.inc55.dup0 ]
  %inc56.dup0561 = phi i32 [ %inc56.dup0, %for.inc55.dup0 ], [ undef, %for.end40.dup0 ]
  %call50.dup01157 = phi double* [ %call50.dup01154, %for.inc55.dup0 ], [ undef, %for.end40.dup0 ]
  %call52.dup01158 = phi double* [ %call52.dup01156, %for.inc55.dup0 ], [ undef, %for.end40.dup0 ]
  %call54.dup01159 = phi double* [ %call54.dup01155, %for.inc55.dup0 ], [ undef, %for.end40.dup0 ]
  %m_x.dup02091 = phi %"class.std::vector"* [ %m_x.dup02472, %for.inc55.dup0 ], [ %m_x.dup02069, %for.end40.dup0 ]
  %m_lzetam.dup02092 = phi %"class.std::vector.0"* [ %m_lzetam.dup02471, %for.inc55.dup0 ], [ %m_lzetam.dup02068, %for.end40.dup0 ]
  %m_nodalMass.dup02093 = phi %"class.std::vector"* [ %m_nodalMass.dup02470, %for.inc55.dup0 ], [ %m_nodalMass.dup02067, %for.end40.dup0 ]
  %m_nodelist.dup02094 = phi %"class.std::vector.0"* [ %m_nodelist.dup02455, %for.inc55.dup0 ], [ %m_nodelist.dup02065, %for.end40.dup0 ]
  %m_ql.dup02095 = phi %"class.std::vector"* [ %m_ql.dup02461, %for.inc55.dup0 ], [ %m_ql.dup02064, %for.end40.dup0 ]
  %call8.dup02096 = phi i8* [ %call8.dup02462, %for.inc55.dup0 ], [ %call8.dup02063, %for.end40.dup0 ]
  %m_zd.dup02097 = phi %"class.std::vector"* [ %m_zd.dup02449, %for.inc55.dup0 ], [ %m_zd.dup02062, %for.end40.dup0 ]
  %call.dup02098 = phi i32* [ %call.dup02448, %for.inc55.dup0 ], [ %call.dup02061, %for.end40.dup0 ]
  %m_vnew.dup02099 = phi %"class.std::vector"* [ %m_vnew.dup02459, %for.inc55.dup0 ], [ %m_vnew.dup02060, %for.end40.dup0 ]
  %m_fx.dup02100 = phi %"class.std::vector"* [ %m_fx.dup02460, %for.inc55.dup0 ], [ %m_fx.dup02059, %for.end40.dup0 ]
  %call27.dup02101 = phi double* [ %call27.dup02458, %for.inc55.dup0 ], [ %call27.dup02058, %for.end40.dup0 ]
  %call32.dup02102 = phi i32* [ %call32.dup02433, %for.inc55.dup0 ], [ %call32.dup02057, %for.end40.dup0 ]
  %z_local.dup02103 = phi [8 x double]* [ %z_local.dup02439, %for.inc55.dup0 ], [ %z_local.dup02056, %for.end40.dup0 ]
  %y_local.dup02104 = phi [8 x double]* [ %y_local.dup02440, %for.inc55.dup0 ], [ %y_local.dup02055, %for.end40.dup0 ]
  %call37.dup02105 = phi double* [ %call37.dup02441, %for.inc55.dup0 ], [ %call37.dup02054, %for.end40.dup0 ]
  %call6.dup02106 = phi i32* [ %call6.dup02442, %for.inc55.dup0 ], [ %call6.dup02053, %for.end40.dup0 ]
  %inc.dup02107 = phi i32 [ %inc.dup02443, %for.inc55.dup0 ], [ %inc.dup02034, %for.end40.dup0 ]
  %m_q.dup02108 = phi %"class.std::vector"* [ %m_q.dup02444, %for.inc55.dup0 ], [ %m_q.dup02036, %for.end40.dup0 ]
  %m_p.dup02109 = phi %"class.std::vector"* [ %m_p.dup02486, %for.inc55.dup0 ], [ %m_p.dup02038, %for.end40.dup0 ]
  %m_symmZ.dup02110 = phi %"class.std::vector.0"* [ %m_symmZ.dup02487, %for.inc55.dup0 ], [ %m_symmZ.dup02037, %for.end40.dup0 ]
  %m_symmY.dup02111 = phi %"class.std::vector.0"* [ %m_symmY.dup02451, %for.inc55.dup0 ], [ %m_symmY.dup02039, %for.end40.dup0 ]
  %m_elemMass.dup02112 = phi %"class.std::vector"* [ %m_elemMass.dup02450, %for.inc55.dup0 ], [ %m_elemMass.dup02040, %for.end40.dup0 ]
  %m_volo.dup02113 = phi %"class.std::vector"* [ %m_volo.dup02463, %for.inc55.dup0 ], [ %m_volo.dup02082, %for.end40.dup0 ]
  %m_zdd.dup02114 = phi %"class.std::vector"* [ %m_zdd.dup02464, %for.inc55.dup0 ], [ %m_zdd.dup02085, %for.end40.dup0 ]
  %call23.dup02115 = phi double* [ %call23.dup02467, %for.inc55.dup0 ], [ %call23.dup02084, %for.end40.dup0 ]
  %call25.dup02116 = phi double* [ %call25.dup02468, %for.inc55.dup0 ], [ %call25.dup02083, %for.end40.dup0 ]
  %m_ss.dup02117 = phi %"class.std::vector"* [ %m_ss.dup02466, %for.inc55.dup0 ], [ %m_ss.dup02077, %for.end40.dup0 ]
  %call19.dup02118 = phi i32* [ %call19.dup02465, %for.inc55.dup0 ], [ %call19.dup02076, %for.end40.dup0 ]
  %call21.dup02119 = phi double* [ %call21.dup02488, %for.inc55.dup0 ], [ %call21.dup02086, %for.end40.dup0 ]
  %m_fy.dup02120 = phi %"class.std::vector"* [ %m_fy.dup02489, %for.inc55.dup0 ], [ %m_fy.dup02087, %for.end40.dup0 ]
  %m_xdd.dup02121 = phi %"class.std::vector"* [ %m_xdd.dup02480, %for.inc55.dup0 ], [ %m_xdd.dup02081, %for.end40.dup0 ]
  %m_qq.dup02122 = phi %"class.std::vector"* [ %m_qq.dup02481, %for.inc55.dup0 ], [ %m_qq.dup02080, %for.end40.dup0 ]
  %add.dup02123 = phi i32 [ %add.dup02484, %for.inc55.dup0 ], [ %add.dup02089, %for.end40.dup0 ]
  %inc39.dup02124 = phi i32 [ %inc39.dup02483, %for.inc55.dup0 ], [ %inc39.dup02090, %for.end40.dup0 ]
  %m_lzetap.dup02125 = phi %"class.std::vector.0"* [ %m_lzetap.dup02447, %for.inc55.dup0 ], [ %m_lzetap.dup02050, %for.end40.dup0 ]
  %m_vdov.dup02126 = phi %"class.std::vector"* [ %m_vdov.dup02446, %for.inc55.dup0 ], [ %m_vdov.dup02049, %for.end40.dup0 ]
  %m_symmX.dup02127 = phi %"class.std::vector.0"* [ %m_symmX.dup02445, %for.inc55.dup0 ], [ %m_symmX.dup02048, %for.end40.dup0 ]
  %m_lxip.dup02128 = phi %"class.std::vector.0"* [ %m_lxip.dup02454, %for.inc55.dup0 ], [ %m_lxip.dup02066, %for.end40.dup0 ]
  %m_xd.dup02129 = phi %"class.std::vector"* [ %m_xd.dup02485, %for.inc55.dup0 ], [ %m_xd.dup02088, %for.end40.dup0 ]
  %m_arealg.dup02130 = phi %"class.std::vector"* [ %m_arealg.dup02473, %for.inc55.dup0 ], [ %m_arealg.dup02035, %for.end40.dup0 ]
  %m_ydd.dup02131 = phi %"class.std::vector"* [ %m_ydd.dup02476, %for.inc55.dup0 ], [ %m_ydd.dup02079, %for.end40.dup0 ]
  %m_v.dup02132 = phi %"class.std::vector"* [ %m_v.dup02438, %for.inc55.dup0 ], [ %m_v.dup02078, %for.end40.dup0 ]
  %m_elemBC.dup02133 = phi %"class.std::vector.0"* [ %m_elemBC.dup02435, %for.inc55.dup0 ], [ %m_elemBC.dup02075, %for.end40.dup0 ]
  %call14.dup02134 = phi i32* [ %call14.dup02434, %for.inc55.dup0 ], [ %call14.dup02074, %for.end40.dup0 ]
  %m_letam.dup02135 = phi %"class.std::vector.0"* [ %m_letam.dup02436, %for.inc55.dup0 ], [ %m_letam.dup02073, %for.end40.dup0 ]
  %m_yd.dup02136 = phi %"class.std::vector"* [ %m_yd.dup02474, %for.inc55.dup0 ], [ %m_yd.dup02072, %for.end40.dup0 ]
  %x_local.dup02137 = phi [8 x double]* [ %x_local.dup02475, %for.inc55.dup0 ], [ %x_local.dup02071, %for.end40.dup0 ]
  %m_y.dup02138 = phi %"class.std::vector"* [ %m_y.dup02437, %for.inc55.dup0 ], [ %m_y.dup02070, %for.end40.dup0 ]
  %i28.0.dup02139 = phi i32 [ %i28.0.dup02456, %for.inc55.dup0 ], [ %i28.0.dup02047, %for.end40.dup0 ]
  %call11.dup02140 = phi i32* [ %call11.dup02457, %for.inc55.dup0 ], [ %call11.dup02046, %for.end40.dup0 ]
  %m_letap.dup02141 = phi %"class.std::vector.0"* [ %m_letap.dup02452, %for.inc55.dup0 ], [ %m_letap.dup02044, %for.end40.dup0 ]
  %m_fz.dup02142 = phi %"class.std::vector"* [ %m_fz.dup02453, %for.inc55.dup0 ], [ %m_fz.dup02045, %for.end40.dup0 ]
  %i.0.dup02143 = phi i32 [ %i.0.dup02482, %for.inc55.dup0 ], [ %i.0.dup02052, %for.end40.dup0 ]
  %m_lxim.dup02144 = phi %"class.std::vector.0"* [ %m_lxim.dup02469, %for.inc55.dup0 ], [ %m_lxim.dup02051, %for.end40.dup0 ]
  %m_z.dup02145 = phi %"class.std::vector"* [ %m_z.dup02478, %for.inc55.dup0 ], [ %m_z.dup02042, %for.end40.dup0 ]
  %m_delv.dup02146 = phi %"class.std::vector"* [ %m_delv.dup02477, %for.inc55.dup0 ], [ %m_delv.dup02043, %for.end40.dup0 ]
  %m_e.dup02147 = phi %"class.std::vector"* [ %m_e.dup02479, %for.inc55.dup0 ], [ %m_e.dup02041, %for.end40.dup0 ]
  %call45.dup0 = invoke nonnull align 4 dereferenceable(4) i32* @_ZN6Domain7numNodeEv(%class.Domain* %this)
          to label %invoke.cont44.dup0 unwind label %lpad43.dup0

for.inc55.dup0:                                   ; preds = %invoke.cont53.dup0
  %call50.dup01154 = phi double* [ %call50.dup01152, %invoke.cont53.dup0 ]
  %call54.dup01155 = phi double* [ %call54.dup01153, %invoke.cont53.dup0 ]
  %call52.dup01156 = phi double* [ %call52.dup01151, %invoke.cont53.dup0 ]
  %call45.dup01436 = phi i32* [ %call45.dup01435, %invoke.cont53.dup0 ]
  %i41.0.dup01437 = phi i32 [ %i41.0.dup01433, %invoke.cont53.dup0 ]
  %call32.dup02433 = phi i32* [ %call32.dup02404, %invoke.cont53.dup0 ]
  %call14.dup02434 = phi i32* [ %call14.dup02400, %invoke.cont53.dup0 ]
  %m_elemBC.dup02435 = phi %"class.std::vector.0"* [ %m_elemBC.dup02401, %invoke.cont53.dup0 ]
  %m_letam.dup02436 = phi %"class.std::vector.0"* [ %m_letam.dup02399, %invoke.cont53.dup0 ]
  %m_y.dup02437 = phi %"class.std::vector"* [ %m_y.dup02398, %invoke.cont53.dup0 ]
  %m_v.dup02438 = phi %"class.std::vector"* [ %m_v.dup02397, %invoke.cont53.dup0 ]
  %z_local.dup02439 = phi [8 x double]* [ %z_local.dup02391, %invoke.cont53.dup0 ]
  %y_local.dup02440 = phi [8 x double]* [ %y_local.dup02390, %invoke.cont53.dup0 ]
  %call37.dup02441 = phi double* [ %call37.dup02389, %invoke.cont53.dup0 ]
  %call6.dup02442 = phi i32* [ %call6.dup02388, %invoke.cont53.dup0 ]
  %inc.dup02443 = phi i32 [ %inc.dup02387, %invoke.cont53.dup0 ]
  %m_q.dup02444 = phi %"class.std::vector"* [ %m_q.dup02386, %invoke.cont53.dup0 ]
  %m_symmX.dup02445 = phi %"class.std::vector.0"* [ %m_symmX.dup02383, %invoke.cont53.dup0 ]
  %m_vdov.dup02446 = phi %"class.std::vector"* [ %m_vdov.dup02381, %invoke.cont53.dup0 ]
  %m_lzetap.dup02447 = phi %"class.std::vector.0"* [ %m_lzetap.dup02382, %invoke.cont53.dup0 ]
  %call.dup02448 = phi i32* [ %call.dup02378, %invoke.cont53.dup0 ]
  %m_zd.dup02449 = phi %"class.std::vector"* [ %m_zd.dup02377, %invoke.cont53.dup0 ]
  %m_elemMass.dup02450 = phi %"class.std::vector"* [ %m_elemMass.dup02396, %invoke.cont53.dup0 ]
  %m_symmY.dup02451 = phi %"class.std::vector.0"* [ %m_symmY.dup02395, %invoke.cont53.dup0 ]
  %m_letap.dup02452 = phi %"class.std::vector.0"* [ %m_letap.dup02385, %invoke.cont53.dup0 ]
  %m_fz.dup02453 = phi %"class.std::vector"* [ %m_fz.dup02384, %invoke.cont53.dup0 ]
  %m_lxip.dup02454 = phi %"class.std::vector.0"* [ %m_lxip.dup02393, %invoke.cont53.dup0 ]
  %m_nodelist.dup02455 = phi %"class.std::vector.0"* [ %m_nodelist.dup02392, %invoke.cont53.dup0 ]
  %i28.0.dup02456 = phi i32 [ %i28.0.dup02418, %invoke.cont53.dup0 ]
  %call11.dup02457 = phi i32* [ %call11.dup02417, %invoke.cont53.dup0 ]
  %call27.dup02458 = phi double* [ %call27.dup02419, %invoke.cont53.dup0 ]
  %m_vnew.dup02459 = phi %"class.std::vector"* [ %m_vnew.dup02421, %invoke.cont53.dup0 ]
  %m_fx.dup02460 = phi %"class.std::vector"* [ %m_fx.dup02420, %invoke.cont53.dup0 ]
  %m_ql.dup02461 = phi %"class.std::vector"* [ %m_ql.dup02423, %invoke.cont53.dup0 ]
  %call8.dup02462 = phi i8* [ %call8.dup02376, %invoke.cont53.dup0 ]
  %m_volo.dup02463 = phi %"class.std::vector"* [ %m_volo.dup02425, %invoke.cont53.dup0 ]
  %m_zdd.dup02464 = phi %"class.std::vector"* [ %m_zdd.dup02426, %invoke.cont53.dup0 ]
  %call19.dup02465 = phi i32* [ %call19.dup02430, %invoke.cont53.dup0 ]
  %m_ss.dup02466 = phi %"class.std::vector"* [ %m_ss.dup02429, %invoke.cont53.dup0 ]
  %call23.dup02467 = phi double* [ %call23.dup02427, %invoke.cont53.dup0 ]
  %call25.dup02468 = phi double* [ %call25.dup02428, %invoke.cont53.dup0 ]
  %m_lxim.dup02469 = phi %"class.std::vector.0"* [ %m_lxim.dup02416, %invoke.cont53.dup0 ]
  %m_nodalMass.dup02470 = phi %"class.std::vector"* [ %m_nodalMass.dup02431, %invoke.cont53.dup0 ]
  %m_lzetam.dup02471 = phi %"class.std::vector.0"* [ %m_lzetam.dup02432, %invoke.cont53.dup0 ]
  %m_x.dup02472 = phi %"class.std::vector"* [ %m_x.dup02422, %invoke.cont53.dup0 ]
  %m_arealg.dup02473 = phi %"class.std::vector"* [ %m_arealg.dup02424, %invoke.cont53.dup0 ]
  %m_yd.dup02474 = phi %"class.std::vector"* [ %m_yd.dup02415, %invoke.cont53.dup0 ]
  %x_local.dup02475 = phi [8 x double]* [ %x_local.dup02414, %invoke.cont53.dup0 ]
  %m_ydd.dup02476 = phi %"class.std::vector"* [ %m_ydd.dup02413, %invoke.cont53.dup0 ]
  %m_delv.dup02477 = phi %"class.std::vector"* [ %m_delv.dup02412, %invoke.cont53.dup0 ]
  %m_z.dup02478 = phi %"class.std::vector"* [ %m_z.dup02411, %invoke.cont53.dup0 ]
  %m_e.dup02479 = phi %"class.std::vector"* [ %m_e.dup02410, %invoke.cont53.dup0 ]
  %m_xdd.dup02480 = phi %"class.std::vector"* [ %m_xdd.dup02409, %invoke.cont53.dup0 ]
  %m_qq.dup02481 = phi %"class.std::vector"* [ %m_qq.dup02408, %invoke.cont53.dup0 ]
  %i.0.dup02482 = phi i32 [ %i.0.dup02407, %invoke.cont53.dup0 ]
  %inc39.dup02483 = phi i32 [ %inc39.dup02402, %invoke.cont53.dup0 ]
  %add.dup02484 = phi i32 [ %add.dup02403, %invoke.cont53.dup0 ]
  %m_xd.dup02485 = phi %"class.std::vector"* [ %m_xd.dup02394, %invoke.cont53.dup0 ]
  %m_p.dup02486 = phi %"class.std::vector"* [ %m_p.dup02405, %invoke.cont53.dup0 ]
  %m_symmZ.dup02487 = phi %"class.std::vector.0"* [ %m_symmZ.dup02406, %invoke.cont53.dup0 ]
  %call21.dup02488 = phi double* [ %call21.dup02379, %invoke.cont53.dup0 ]
  %m_fy.dup02489 = phi %"class.std::vector"* [ %m_fy.dup02380, %invoke.cont53.dup0 ]
  %inc56.dup0 = add nsw i32 %i41.0.dup01437, 1
  br label %for.cond42.dup0, !llvm.loop !36

invoke.cont53.dup0:                               ; preds = %invoke.cont51.dup0
  %call52.dup01151 = phi double* [ %call52.dup014, %invoke.cont51.dup0 ]
  %call50.dup01152 = phi double* [ %call50.dup0207, %invoke.cont51.dup0 ]
  %call54.dup01153 = phi double* [ %call54.dup0, %invoke.cont51.dup0 ]
  %i41.0.dup01433 = phi i32 [ %i41.0.dup01432, %invoke.cont51.dup0 ]
  %inc56.dup01434 = phi i32 [ %inc56.dup01430, %invoke.cont51.dup0 ]
  %call45.dup01435 = phi i32* [ %call45.dup01431, %invoke.cont51.dup0 ]
  %call8.dup02376 = phi i8* [ %call8.dup02348, %invoke.cont51.dup0 ]
  %m_zd.dup02377 = phi %"class.std::vector"* [ %m_zd.dup02347, %invoke.cont51.dup0 ]
  %call.dup02378 = phi i32* [ %call.dup02346, %invoke.cont51.dup0 ]
  %call21.dup02379 = phi double* [ %call21.dup02345, %invoke.cont51.dup0 ]
  %m_fy.dup02380 = phi %"class.std::vector"* [ %m_fy.dup02344, %invoke.cont51.dup0 ]
  %m_vdov.dup02381 = phi %"class.std::vector"* [ %m_vdov.dup02341, %invoke.cont51.dup0 ]
  %m_lzetap.dup02382 = phi %"class.std::vector.0"* [ %m_lzetap.dup02340, %invoke.cont51.dup0 ]
  %m_symmX.dup02383 = phi %"class.std::vector.0"* [ %m_symmX.dup02339, %invoke.cont51.dup0 ]
  %m_fz.dup02384 = phi %"class.std::vector"* [ %m_fz.dup02338, %invoke.cont51.dup0 ]
  %m_letap.dup02385 = phi %"class.std::vector.0"* [ %m_letap.dup02337, %invoke.cont51.dup0 ]
  %m_q.dup02386 = phi %"class.std::vector"* [ %m_q.dup02334, %invoke.cont51.dup0 ]
  %inc.dup02387 = phi i32 [ %inc.dup02333, %invoke.cont51.dup0 ]
  %call6.dup02388 = phi i32* [ %call6.dup02332, %invoke.cont51.dup0 ]
  %call37.dup02389 = phi double* [ %call37.dup02331, %invoke.cont51.dup0 ]
  %y_local.dup02390 = phi [8 x double]* [ %y_local.dup02330, %invoke.cont51.dup0 ]
  %z_local.dup02391 = phi [8 x double]* [ %z_local.dup02329, %invoke.cont51.dup0 ]
  %m_nodelist.dup02392 = phi %"class.std::vector.0"* [ %m_nodelist.dup02343, %invoke.cont51.dup0 ]
  %m_lxip.dup02393 = phi %"class.std::vector.0"* [ %m_lxip.dup02342, %invoke.cont51.dup0 ]
  %m_xd.dup02394 = phi %"class.std::vector"* [ %m_xd.dup02366, %invoke.cont51.dup0 ]
  %m_symmY.dup02395 = phi %"class.std::vector.0"* [ %m_symmY.dup02336, %invoke.cont51.dup0 ]
  %m_elemMass.dup02396 = phi %"class.std::vector"* [ %m_elemMass.dup02335, %invoke.cont51.dup0 ]
  %m_v.dup02397 = phi %"class.std::vector"* [ %m_v.dup02327, %invoke.cont51.dup0 ]
  %m_y.dup02398 = phi %"class.std::vector"* [ %m_y.dup02358, %invoke.cont51.dup0 ]
  %m_letam.dup02399 = phi %"class.std::vector.0"* [ %m_letam.dup02357, %invoke.cont51.dup0 ]
  %call14.dup02400 = phi i32* [ %call14.dup02359, %invoke.cont51.dup0 ]
  %m_elemBC.dup02401 = phi %"class.std::vector.0"* [ %m_elemBC.dup02360, %invoke.cont51.dup0 ]
  %inc39.dup02402 = phi i32 [ %inc39.dup02364, %invoke.cont51.dup0 ]
  %add.dup02403 = phi i32 [ %add.dup02365, %invoke.cont51.dup0 ]
  %call32.dup02404 = phi i32* [ %call32.dup02328, %invoke.cont51.dup0 ]
  %m_p.dup02405 = phi %"class.std::vector"* [ %m_p.dup02367, %invoke.cont51.dup0 ]
  %m_symmZ.dup02406 = phi %"class.std::vector.0"* [ %m_symmZ.dup02368, %invoke.cont51.dup0 ]
  %i.0.dup02407 = phi i32 [ %i.0.dup02372, %invoke.cont51.dup0 ]
  %m_qq.dup02408 = phi %"class.std::vector"* [ %m_qq.dup02373, %invoke.cont51.dup0 ]
  %m_xdd.dup02409 = phi %"class.std::vector"* [ %m_xdd.dup02374, %invoke.cont51.dup0 ]
  %m_e.dup02410 = phi %"class.std::vector"* [ %m_e.dup02371, %invoke.cont51.dup0 ]
  %m_z.dup02411 = phi %"class.std::vector"* [ %m_z.dup02370, %invoke.cont51.dup0 ]
  %m_delv.dup02412 = phi %"class.std::vector"* [ %m_delv.dup02369, %invoke.cont51.dup0 ]
  %m_ydd.dup02413 = phi %"class.std::vector"* [ %m_ydd.dup02361, %invoke.cont51.dup0 ]
  %x_local.dup02414 = phi [8 x double]* [ %x_local.dup02363, %invoke.cont51.dup0 ]
  %m_yd.dup02415 = phi %"class.std::vector"* [ %m_yd.dup02362, %invoke.cont51.dup0 ]
  %m_lxim.dup02416 = phi %"class.std::vector.0"* [ %m_lxim.dup02356, %invoke.cont51.dup0 ]
  %call11.dup02417 = phi i32* [ %call11.dup02355, %invoke.cont51.dup0 ]
  %i28.0.dup02418 = phi i32 [ %i28.0.dup02354, %invoke.cont51.dup0 ]
  %call27.dup02419 = phi double* [ %call27.dup02353, %invoke.cont51.dup0 ]
  %m_fx.dup02420 = phi %"class.std::vector"* [ %m_fx.dup02352, %invoke.cont51.dup0 ]
  %m_vnew.dup02421 = phi %"class.std::vector"* [ %m_vnew.dup02351, %invoke.cont51.dup0 ]
  %m_x.dup02422 = phi %"class.std::vector"* [ %m_x.dup02350, %invoke.cont51.dup0 ]
  %m_ql.dup02423 = phi %"class.std::vector"* [ %m_ql.dup02349, %invoke.cont51.dup0 ]
  %m_arealg.dup02424 = phi %"class.std::vector"* [ %m_arealg.dup02375, %invoke.cont51.dup0 ]
  %m_volo.dup02425 = phi %"class.std::vector"* [ %m_volo.dup02324, %invoke.cont51.dup0 ]
  %m_zdd.dup02426 = phi %"class.std::vector"* [ %m_zdd.dup02323, %invoke.cont51.dup0 ]
  %call23.dup02427 = phi double* [ %call23.dup02321, %invoke.cont51.dup0 ]
  %call25.dup02428 = phi double* [ %call25.dup02320, %invoke.cont51.dup0 ]
  %m_ss.dup02429 = phi %"class.std::vector"* [ %m_ss.dup02319, %invoke.cont51.dup0 ]
  %call19.dup02430 = phi i32* [ %call19.dup02322, %invoke.cont51.dup0 ]
  %m_nodalMass.dup02431 = phi %"class.std::vector"* [ %m_nodalMass.dup02326, %invoke.cont51.dup0 ]
  %m_lzetam.dup02432 = phi %"class.std::vector.0"* [ %m_lzetam.dup02325, %invoke.cont51.dup0 ]
  store double 0.000000e+00, double* %call54.dup01153, align 8, !tbaa !34
  br label %for.inc55.dup0

invoke.cont51.dup0:                               ; preds = %invoke.cont49.dup0
  %call52.dup014 = phi double* [ %call52.dup0, %invoke.cont49.dup0 ]
  %call50.dup0207 = phi double* [ %call50.dup0206, %invoke.cont49.dup0 ]
  %inc56.dup01430 = phi i32 [ %inc56.dup01426, %invoke.cont49.dup0 ]
  %call45.dup01431 = phi i32* [ %call45.dup01427, %invoke.cont49.dup0 ]
  %i41.0.dup01432 = phi i32 [ %i41.0.dup01428, %invoke.cont49.dup0 ]
  %m_ss.dup02319 = phi %"class.std::vector"* [ %m_ss.dup02290, %invoke.cont49.dup0 ]
  %call25.dup02320 = phi double* [ %call25.dup02289, %invoke.cont49.dup0 ]
  %call23.dup02321 = phi double* [ %call23.dup02288, %invoke.cont49.dup0 ]
  %call19.dup02322 = phi i32* [ %call19.dup02287, %invoke.cont49.dup0 ]
  %m_zdd.dup02323 = phi %"class.std::vector"* [ %m_zdd.dup02286, %invoke.cont49.dup0 ]
  %m_volo.dup02324 = phi %"class.std::vector"* [ %m_volo.dup02285, %invoke.cont49.dup0 ]
  %m_lzetam.dup02325 = phi %"class.std::vector.0"* [ %m_lzetam.dup02282, %invoke.cont49.dup0 ]
  %m_nodalMass.dup02326 = phi %"class.std::vector"* [ %m_nodalMass.dup02283, %invoke.cont49.dup0 ]
  %m_v.dup02327 = phi %"class.std::vector"* [ %m_v.dup02281, %invoke.cont49.dup0 ]
  %call32.dup02328 = phi i32* [ %call32.dup02279, %invoke.cont49.dup0 ]
  %z_local.dup02329 = phi [8 x double]* [ %z_local.dup02278, %invoke.cont49.dup0 ]
  %y_local.dup02330 = phi [8 x double]* [ %y_local.dup02277, %invoke.cont49.dup0 ]
  %call37.dup02331 = phi double* [ %call37.dup02276, %invoke.cont49.dup0 ]
  %call6.dup02332 = phi i32* [ %call6.dup02275, %invoke.cont49.dup0 ]
  %inc.dup02333 = phi i32 [ %inc.dup02274, %invoke.cont49.dup0 ]
  %m_q.dup02334 = phi %"class.std::vector"* [ %m_q.dup02273, %invoke.cont49.dup0 ]
  %m_elemMass.dup02335 = phi %"class.std::vector"* [ %m_elemMass.dup02291, %invoke.cont49.dup0 ]
  %m_symmY.dup02336 = phi %"class.std::vector.0"* [ %m_symmY.dup02280, %invoke.cont49.dup0 ]
  %m_letap.dup02337 = phi %"class.std::vector.0"* [ %m_letap.dup02267, %invoke.cont49.dup0 ]
  %m_fz.dup02338 = phi %"class.std::vector"* [ %m_fz.dup02266, %invoke.cont49.dup0 ]
  %m_symmX.dup02339 = phi %"class.std::vector.0"* [ %m_symmX.dup02269, %invoke.cont49.dup0 ]
  %m_lzetap.dup02340 = phi %"class.std::vector.0"* [ %m_lzetap.dup02270, %invoke.cont49.dup0 ]
  %m_vdov.dup02341 = phi %"class.std::vector"* [ %m_vdov.dup02271, %invoke.cont49.dup0 ]
  %m_lxip.dup02342 = phi %"class.std::vector.0"* [ %m_lxip.dup02284, %invoke.cont49.dup0 ]
  %m_nodelist.dup02343 = phi %"class.std::vector.0"* [ %m_nodelist.dup02305, %invoke.cont49.dup0 ]
  %m_fy.dup02344 = phi %"class.std::vector"* [ %m_fy.dup02302, %invoke.cont49.dup0 ]
  %call21.dup02345 = phi double* [ %call21.dup02303, %invoke.cont49.dup0 ]
  %call.dup02346 = phi i32* [ %call.dup02306, %invoke.cont49.dup0 ]
  %m_zd.dup02347 = phi %"class.std::vector"* [ %m_zd.dup02307, %invoke.cont49.dup0 ]
  %call8.dup02348 = phi i8* [ %call8.dup02308, %invoke.cont49.dup0 ]
  %m_ql.dup02349 = phi %"class.std::vector"* [ %m_ql.dup02309, %invoke.cont49.dup0 ]
  %m_x.dup02350 = phi %"class.std::vector"* [ %m_x.dup02310, %invoke.cont49.dup0 ]
  %m_vnew.dup02351 = phi %"class.std::vector"* [ %m_vnew.dup02311, %invoke.cont49.dup0 ]
  %m_fx.dup02352 = phi %"class.std::vector"* [ %m_fx.dup02263, %invoke.cont49.dup0 ]
  %call27.dup02353 = phi double* [ %call27.dup02262, %invoke.cont49.dup0 ]
  %i28.0.dup02354 = phi i32 [ %i28.0.dup02317, %invoke.cont49.dup0 ]
  %call11.dup02355 = phi i32* [ %call11.dup02318, %invoke.cont49.dup0 ]
  %m_lxim.dup02356 = phi %"class.std::vector.0"* [ %m_lxim.dup02304, %invoke.cont49.dup0 ]
  %m_letam.dup02357 = phi %"class.std::vector.0"* [ %m_letam.dup02315, %invoke.cont49.dup0 ]
  %m_y.dup02358 = phi %"class.std::vector"* [ %m_y.dup02316, %invoke.cont49.dup0 ]
  %call14.dup02359 = phi i32* [ %call14.dup02314, %invoke.cont49.dup0 ]
  %m_elemBC.dup02360 = phi %"class.std::vector.0"* [ %m_elemBC.dup02313, %invoke.cont49.dup0 ]
  %m_ydd.dup02361 = phi %"class.std::vector"* [ %m_ydd.dup02301, %invoke.cont49.dup0 ]
  %m_yd.dup02362 = phi %"class.std::vector"* [ %m_yd.dup02300, %invoke.cont49.dup0 ]
  %x_local.dup02363 = phi [8 x double]* [ %x_local.dup02299, %invoke.cont49.dup0 ]
  %inc39.dup02364 = phi i32 [ %inc39.dup02298, %invoke.cont49.dup0 ]
  %add.dup02365 = phi i32 [ %add.dup02297, %invoke.cont49.dup0 ]
  %m_xd.dup02366 = phi %"class.std::vector"* [ %m_xd.dup02272, %invoke.cont49.dup0 ]
  %m_p.dup02367 = phi %"class.std::vector"* [ %m_p.dup02296, %invoke.cont49.dup0 ]
  %m_symmZ.dup02368 = phi %"class.std::vector.0"* [ %m_symmZ.dup02295, %invoke.cont49.dup0 ]
  %m_delv.dup02369 = phi %"class.std::vector"* [ %m_delv.dup02294, %invoke.cont49.dup0 ]
  %m_z.dup02370 = phi %"class.std::vector"* [ %m_z.dup02293, %invoke.cont49.dup0 ]
  %m_e.dup02371 = phi %"class.std::vector"* [ %m_e.dup02292, %invoke.cont49.dup0 ]
  %i.0.dup02372 = phi i32 [ %i.0.dup02268, %invoke.cont49.dup0 ]
  %m_qq.dup02373 = phi %"class.std::vector"* [ %m_qq.dup02264, %invoke.cont49.dup0 ]
  %m_xdd.dup02374 = phi %"class.std::vector"* [ %m_xdd.dup02265, %invoke.cont49.dup0 ]
  %m_arealg.dup02375 = phi %"class.std::vector"* [ %m_arealg.dup02312, %invoke.cont49.dup0 ]
  store double 0.000000e+00, double* %call52.dup014, align 8, !tbaa !34
  %call54.dup0 = invoke nonnull align 8 dereferenceable(8) double* @_ZN6Domain2zdEi(%class.Domain* %this, i32 %i41.0.dup01432)
          to label %invoke.cont53.dup0 unwind label %lpad43.dup0

invoke.cont49.dup0:                               ; preds = %for.body48.dup0
  %call50.dup0206 = phi double* [ %call50.dup0, %for.body48.dup0 ]
  %inc56.dup01426 = phi i32 [ %inc56.dup01421, %for.body48.dup0 ]
  %call45.dup01427 = phi i32* [ %call45.dup01422, %for.body48.dup0 ]
  %i41.0.dup01428 = phi i32 [ %i41.0.dup01423, %for.body48.dup0 ]
  %call54.dup01429 = phi double* [ %call54.dup01425, %for.body48.dup0 ]
  %call27.dup02262 = phi double* [ %call27.dup02234, %for.body48.dup0 ]
  %m_fx.dup02263 = phi %"class.std::vector"* [ %m_fx.dup02233, %for.body48.dup0 ]
  %m_qq.dup02264 = phi %"class.std::vector"* [ %m_qq.dup02232, %for.body48.dup0 ]
  %m_xdd.dup02265 = phi %"class.std::vector"* [ %m_xdd.dup02231, %for.body48.dup0 ]
  %m_fz.dup02266 = phi %"class.std::vector"* [ %m_fz.dup02229, %for.body48.dup0 ]
  %m_letap.dup02267 = phi %"class.std::vector.0"* [ %m_letap.dup02230, %for.body48.dup0 ]
  %i.0.dup02268 = phi i32 [ %i.0.dup02228, %for.body48.dup0 ]
  %m_symmX.dup02269 = phi %"class.std::vector.0"* [ %m_symmX.dup02225, %for.body48.dup0 ]
  %m_lzetap.dup02270 = phi %"class.std::vector.0"* [ %m_lzetap.dup02224, %for.body48.dup0 ]
  %m_vdov.dup02271 = phi %"class.std::vector"* [ %m_vdov.dup02226, %for.body48.dup0 ]
  %m_xd.dup02272 = phi %"class.std::vector"* [ %m_xd.dup02223, %for.body48.dup0 ]
  %m_q.dup02273 = phi %"class.std::vector"* [ %m_q.dup02221, %for.body48.dup0 ]
  %inc.dup02274 = phi i32 [ %inc.dup02220, %for.body48.dup0 ]
  %call6.dup02275 = phi i32* [ %call6.dup02219, %for.body48.dup0 ]
  %call37.dup02276 = phi double* [ %call37.dup02218, %for.body48.dup0 ]
  %y_local.dup02277 = phi [8 x double]* [ %y_local.dup02217, %for.body48.dup0 ]
  %z_local.dup02278 = phi [8 x double]* [ %z_local.dup02216, %for.body48.dup0 ]
  %call32.dup02279 = phi i32* [ %call32.dup02215, %for.body48.dup0 ]
  %m_symmY.dup02280 = phi %"class.std::vector.0"* [ %m_symmY.dup02227, %for.body48.dup0 ]
  %m_v.dup02281 = phi %"class.std::vector"* [ %m_v.dup02214, %for.body48.dup0 ]
  %m_lzetam.dup02282 = phi %"class.std::vector.0"* [ %m_lzetam.dup02212, %for.body48.dup0 ]
  %m_nodalMass.dup02283 = phi %"class.std::vector"* [ %m_nodalMass.dup02213, %for.body48.dup0 ]
  %m_lxip.dup02284 = phi %"class.std::vector.0"* [ %m_lxip.dup02222, %for.body48.dup0 ]
  %m_volo.dup02285 = phi %"class.std::vector"* [ %m_volo.dup02250, %for.body48.dup0 ]
  %m_zdd.dup02286 = phi %"class.std::vector"* [ %m_zdd.dup02251, %for.body48.dup0 ]
  %call19.dup02287 = phi i32* [ %call19.dup02254, %for.body48.dup0 ]
  %call23.dup02288 = phi double* [ %call23.dup02252, %for.body48.dup0 ]
  %call25.dup02289 = phi double* [ %call25.dup02253, %for.body48.dup0 ]
  %m_ss.dup02290 = phi %"class.std::vector"* [ %m_ss.dup02255, %for.body48.dup0 ]
  %m_elemMass.dup02291 = phi %"class.std::vector"* [ %m_elemMass.dup02261, %for.body48.dup0 ]
  %m_e.dup02292 = phi %"class.std::vector"* [ %m_e.dup02248, %for.body48.dup0 ]
  %m_z.dup02293 = phi %"class.std::vector"* [ %m_z.dup02249, %for.body48.dup0 ]
  %m_delv.dup02294 = phi %"class.std::vector"* [ %m_delv.dup02205, %for.body48.dup0 ]
  %m_symmZ.dup02295 = phi %"class.std::vector.0"* [ %m_symmZ.dup02260, %for.body48.dup0 ]
  %m_p.dup02296 = phi %"class.std::vector"* [ %m_p.dup02259, %for.body48.dup0 ]
  %add.dup02297 = phi i32 [ %add.dup02242, %for.body48.dup0 ]
  %inc39.dup02298 = phi i32 [ %inc39.dup02241, %for.body48.dup0 ]
  %x_local.dup02299 = phi [8 x double]* [ %x_local.dup02246, %for.body48.dup0 ]
  %m_yd.dup02300 = phi %"class.std::vector"* [ %m_yd.dup02245, %for.body48.dup0 ]
  %m_ydd.dup02301 = phi %"class.std::vector"* [ %m_ydd.dup02247, %for.body48.dup0 ]
  %m_fy.dup02302 = phi %"class.std::vector"* [ %m_fy.dup02257, %for.body48.dup0 ]
  %call21.dup02303 = phi double* [ %call21.dup02256, %for.body48.dup0 ]
  %m_lxim.dup02304 = phi %"class.std::vector.0"* [ %m_lxim.dup02244, %for.body48.dup0 ]
  %m_nodelist.dup02305 = phi %"class.std::vector.0"* [ %m_nodelist.dup02243, %for.body48.dup0 ]
  %call.dup02306 = phi i32* [ %call.dup02240, %for.body48.dup0 ]
  %m_zd.dup02307 = phi %"class.std::vector"* [ %m_zd.dup02239, %for.body48.dup0 ]
  %call8.dup02308 = phi i8* [ %call8.dup02237, %for.body48.dup0 ]
  %m_ql.dup02309 = phi %"class.std::vector"* [ %m_ql.dup02236, %for.body48.dup0 ]
  %m_x.dup02310 = phi %"class.std::vector"* [ %m_x.dup02238, %for.body48.dup0 ]
  %m_vnew.dup02311 = phi %"class.std::vector"* [ %m_vnew.dup02235, %for.body48.dup0 ]
  %m_arealg.dup02312 = phi %"class.std::vector"* [ %m_arealg.dup02258, %for.body48.dup0 ]
  %m_elemBC.dup02313 = phi %"class.std::vector.0"* [ %m_elemBC.dup02211, %for.body48.dup0 ]
  %call14.dup02314 = phi i32* [ %call14.dup02210, %for.body48.dup0 ]
  %m_letam.dup02315 = phi %"class.std::vector.0"* [ %m_letam.dup02209, %for.body48.dup0 ]
  %m_y.dup02316 = phi %"class.std::vector"* [ %m_y.dup02208, %for.body48.dup0 ]
  %i28.0.dup02317 = phi i32 [ %i28.0.dup02207, %for.body48.dup0 ]
  %call11.dup02318 = phi i32* [ %call11.dup02206, %for.body48.dup0 ]
  store double 0.000000e+00, double* %call50.dup0206, align 8, !tbaa !34
  %call52.dup0 = invoke nonnull align 8 dereferenceable(8) double* @_ZN6Domain2ydEi(%class.Domain* %this, i32 %i41.0.dup01428)
          to label %invoke.cont51.dup0 unwind label %lpad43.dup0

for.body48.dup0:                                  ; preds = %invoke.cont44.dup0
  %inc56.dup01421 = phi i32 [ %inc56.dup01192, %invoke.cont44.dup0 ]
  %call45.dup01422 = phi i32* [ %call45.dup01191, %invoke.cont44.dup0 ]
  %i41.0.dup01423 = phi i32 [ %i41.0.dup01194, %invoke.cont44.dup0 ]
  %call52.dup01424 = phi double* [ %call52.dup01196, %invoke.cont44.dup0 ]
  %call54.dup01425 = phi double* [ %call54.dup01195, %invoke.cont44.dup0 ]
  %m_delv.dup02205 = phi %"class.std::vector"* [ %m_delv.dup02177, %invoke.cont44.dup0 ]
  %call11.dup02206 = phi i32* [ %call11.dup02176, %invoke.cont44.dup0 ]
  %i28.0.dup02207 = phi i32 [ %i28.0.dup02175, %invoke.cont44.dup0 ]
  %m_y.dup02208 = phi %"class.std::vector"* [ %m_y.dup02174, %invoke.cont44.dup0 ]
  %m_letam.dup02209 = phi %"class.std::vector.0"* [ %m_letam.dup02173, %invoke.cont44.dup0 ]
  %call14.dup02210 = phi i32* [ %call14.dup02172, %invoke.cont44.dup0 ]
  %m_elemBC.dup02211 = phi %"class.std::vector.0"* [ %m_elemBC.dup02171, %invoke.cont44.dup0 ]
  %m_lzetam.dup02212 = phi %"class.std::vector.0"* [ %m_lzetam.dup02168, %invoke.cont44.dup0 ]
  %m_nodalMass.dup02213 = phi %"class.std::vector"* [ %m_nodalMass.dup02169, %invoke.cont44.dup0 ]
  %m_v.dup02214 = phi %"class.std::vector"* [ %m_v.dup02167, %invoke.cont44.dup0 ]
  %call32.dup02215 = phi i32* [ %call32.dup02164, %invoke.cont44.dup0 ]
  %z_local.dup02216 = phi [8 x double]* [ %z_local.dup02163, %invoke.cont44.dup0 ]
  %y_local.dup02217 = phi [8 x double]* [ %y_local.dup02162, %invoke.cont44.dup0 ]
  %call37.dup02218 = phi double* [ %call37.dup02161, %invoke.cont44.dup0 ]
  %call6.dup02219 = phi i32* [ %call6.dup02160, %invoke.cont44.dup0 ]
  %inc.dup02220 = phi i32 [ %inc.dup02159, %invoke.cont44.dup0 ]
  %m_q.dup02221 = phi %"class.std::vector"* [ %m_q.dup02158, %invoke.cont44.dup0 ]
  %m_lxip.dup02222 = phi %"class.std::vector.0"* [ %m_lxip.dup02170, %invoke.cont44.dup0 ]
  %m_xd.dup02223 = phi %"class.std::vector"* [ %m_xd.dup02202, %invoke.cont44.dup0 ]
  %m_lzetap.dup02224 = phi %"class.std::vector.0"* [ %m_lzetap.dup02189, %invoke.cont44.dup0 ]
  %m_symmX.dup02225 = phi %"class.std::vector.0"* [ %m_symmX.dup02190, %invoke.cont44.dup0 ]
  %m_vdov.dup02226 = phi %"class.std::vector"* [ %m_vdov.dup02191, %invoke.cont44.dup0 ]
  %m_symmY.dup02227 = phi %"class.std::vector.0"* [ %m_symmY.dup02166, %invoke.cont44.dup0 ]
  %i.0.dup02228 = phi i32 [ %i.0.dup02184, %invoke.cont44.dup0 ]
  %m_fz.dup02229 = phi %"class.std::vector"* [ %m_fz.dup02186, %invoke.cont44.dup0 ]
  %m_letap.dup02230 = phi %"class.std::vector.0"* [ %m_letap.dup02185, %invoke.cont44.dup0 ]
  %m_xdd.dup02231 = phi %"class.std::vector"* [ %m_xdd.dup02193, %invoke.cont44.dup0 ]
  %m_qq.dup02232 = phi %"class.std::vector"* [ %m_qq.dup02192, %invoke.cont44.dup0 ]
  %m_fx.dup02233 = phi %"class.std::vector"* [ %m_fx.dup02194, %invoke.cont44.dup0 ]
  %call27.dup02234 = phi double* [ %call27.dup02196, %invoke.cont44.dup0 ]
  %m_vnew.dup02235 = phi %"class.std::vector"* [ %m_vnew.dup02195, %invoke.cont44.dup0 ]
  %m_ql.dup02236 = phi %"class.std::vector"* [ %m_ql.dup02198, %invoke.cont44.dup0 ]
  %call8.dup02237 = phi i8* [ %call8.dup02197, %invoke.cont44.dup0 ]
  %m_x.dup02238 = phi %"class.std::vector"* [ %m_x.dup02200, %invoke.cont44.dup0 ]
  %m_zd.dup02239 = phi %"class.std::vector"* [ %m_zd.dup02203, %invoke.cont44.dup0 ]
  %call.dup02240 = phi i32* [ %call.dup02204, %invoke.cont44.dup0 ]
  %inc39.dup02241 = phi i32 [ %inc39.dup02187, %invoke.cont44.dup0 ]
  %add.dup02242 = phi i32 [ %add.dup02188, %invoke.cont44.dup0 ]
  %m_nodelist.dup02243 = phi %"class.std::vector.0"* [ %m_nodelist.dup02201, %invoke.cont44.dup0 ]
  %m_lxim.dup02244 = phi %"class.std::vector.0"* [ %m_lxim.dup02183, %invoke.cont44.dup0 ]
  %m_yd.dup02245 = phi %"class.std::vector"* [ %m_yd.dup02182, %invoke.cont44.dup0 ]
  %x_local.dup02246 = phi [8 x double]* [ %x_local.dup02181, %invoke.cont44.dup0 ]
  %m_ydd.dup02247 = phi %"class.std::vector"* [ %m_ydd.dup02180, %invoke.cont44.dup0 ]
  %m_e.dup02248 = phi %"class.std::vector"* [ %m_e.dup02179, %invoke.cont44.dup0 ]
  %m_z.dup02249 = phi %"class.std::vector"* [ %m_z.dup02178, %invoke.cont44.dup0 ]
  %m_volo.dup02250 = phi %"class.std::vector"* [ %m_volo.dup02155, %invoke.cont44.dup0 ]
  %m_zdd.dup02251 = phi %"class.std::vector"* [ %m_zdd.dup02154, %invoke.cont44.dup0 ]
  %call23.dup02252 = phi double* [ %call23.dup02153, %invoke.cont44.dup0 ]
  %call25.dup02253 = phi double* [ %call25.dup02152, %invoke.cont44.dup0 ]
  %call19.dup02254 = phi i32* [ %call19.dup02150, %invoke.cont44.dup0 ]
  %m_ss.dup02255 = phi %"class.std::vector"* [ %m_ss.dup02151, %invoke.cont44.dup0 ]
  %call21.dup02256 = phi double* [ %call21.dup02149, %invoke.cont44.dup0 ]
  %m_fy.dup02257 = phi %"class.std::vector"* [ %m_fy.dup02148, %invoke.cont44.dup0 ]
  %m_arealg.dup02258 = phi %"class.std::vector"* [ %m_arealg.dup02199, %invoke.cont44.dup0 ]
  %m_p.dup02259 = phi %"class.std::vector"* [ %m_p.dup02156, %invoke.cont44.dup0 ]
  %m_symmZ.dup02260 = phi %"class.std::vector.0"* [ %m_symmZ.dup02157, %invoke.cont44.dup0 ]
  %m_elemMass.dup02261 = phi %"class.std::vector"* [ %m_elemMass.dup02165, %invoke.cont44.dup0 ]
  %call50.dup0 = invoke nonnull align 8 dereferenceable(8) double* @_ZN6Domain2xdEi(%class.Domain* %this, i32 %i41.0.dup01423)
          to label %invoke.cont49.dup0 unwind label %lpad43.dup0

lpad43.dup0:                                      ; preds = %for.body48.dup0, %invoke.cont49.dup0, %invoke.cont51.dup0, %for.cond42.dup0
  %call54.dup088 = phi double* [ undef, %for.cond42.dup0 ], [ undef, %invoke.cont49.dup0 ], [ undef, %invoke.cont51.dup0 ], [ undef, %for.body48.dup0 ]
  %call52.dup089 = phi double* [ undef, %for.cond42.dup0 ], [ undef, %invoke.cont49.dup0 ], [ undef, %invoke.cont51.dup0 ], [ undef, %for.body48.dup0 ]
  %call50.dup090 = phi double* [ undef, %for.cond42.dup0 ], [ undef, %invoke.cont49.dup0 ], [ undef, %invoke.cont51.dup0 ], [ undef, %for.body48.dup0 ]
  %call45.dup091 = phi i32* [ undef, %for.cond42.dup0 ], [ undef, %invoke.cont49.dup0 ], [ undef, %invoke.cont51.dup0 ], [ undef, %for.body48.dup0 ]
  %i41.0.dup092 = phi i32 [ undef, %for.cond42.dup0 ], [ undef, %invoke.cont49.dup0 ], [ undef, %invoke.cont51.dup0 ], [ undef, %for.body48.dup0 ]
  %inc56.dup0562 = phi i32 [ undef, %for.cond42.dup0 ], [ undef, %invoke.cont49.dup0 ], [ undef, %invoke.cont51.dup0 ], [ undef, %for.body48.dup0 ]
  %m_fy.dup03117 = phi %"class.std::vector"* [ undef, %for.cond42.dup0 ], [ undef, %invoke.cont49.dup0 ], [ undef, %invoke.cont51.dup0 ], [ undef, %for.body48.dup0 ]
  %call21.dup03118 = phi double* [ undef, %for.cond42.dup0 ], [ undef, %invoke.cont49.dup0 ], [ undef, %invoke.cont51.dup0 ], [ undef, %for.body48.dup0 ]
  %call19.dup03119 = phi i32* [ undef, %for.cond42.dup0 ], [ undef, %invoke.cont49.dup0 ], [ undef, %invoke.cont51.dup0 ], [ undef, %for.body48.dup0 ]
  %m_ss.dup03120 = phi %"class.std::vector"* [ undef, %for.cond42.dup0 ], [ undef, %invoke.cont49.dup0 ], [ undef, %invoke.cont51.dup0 ], [ undef, %for.body48.dup0 ]
  %call25.dup03121 = phi double* [ undef, %for.cond42.dup0 ], [ undef, %invoke.cont49.dup0 ], [ undef, %invoke.cont51.dup0 ], [ undef, %for.body48.dup0 ]
  %call23.dup03122 = phi double* [ undef, %for.cond42.dup0 ], [ undef, %invoke.cont49.dup0 ], [ undef, %invoke.cont51.dup0 ], [ undef, %for.body48.dup0 ]
  %m_zdd.dup03123 = phi %"class.std::vector"* [ undef, %for.cond42.dup0 ], [ undef, %invoke.cont49.dup0 ], [ undef, %invoke.cont51.dup0 ], [ undef, %for.body48.dup0 ]
  %m_volo.dup03124 = phi %"class.std::vector"* [ undef, %for.cond42.dup0 ], [ undef, %invoke.cont49.dup0 ], [ undef, %invoke.cont51.dup0 ], [ undef, %for.body48.dup0 ]
  %m_p.dup03125 = phi %"class.std::vector"* [ undef, %for.cond42.dup0 ], [ undef, %invoke.cont49.dup0 ], [ undef, %invoke.cont51.dup0 ], [ undef, %for.body48.dup0 ]
  %m_symmZ.dup03126 = phi %"class.std::vector.0"* [ undef, %for.cond42.dup0 ], [ undef, %invoke.cont49.dup0 ], [ undef, %invoke.cont51.dup0 ], [ undef, %for.body48.dup0 ]
  %m_q.dup03127 = phi %"class.std::vector"* [ undef, %for.cond42.dup0 ], [ undef, %invoke.cont49.dup0 ], [ undef, %invoke.cont51.dup0 ], [ undef, %for.body48.dup0 ]
  %inc.dup03128 = phi i32 [ undef, %for.cond42.dup0 ], [ undef, %invoke.cont49.dup0 ], [ undef, %invoke.cont51.dup0 ], [ undef, %for.body48.dup0 ]
